   181c8:	00008067          	ret

   181cc:	40a0053b          	negw	a0,a0

   181d0:	4145579b          	sraiw	a5,a0,0x14

   181d4:	01300713          	li	a4,19

   181d8:	00f74a63          	blt	a4,a5,181ec <__ulp+0x44>

   181dc:	00080537          	lui	a0,0x80

   181e0:	40f5553b          	sraw	a0,a0,a5

   181e4:	02051513          	slli	a0,a0,0x20

   181e8:	00008067          	ret

   181ec:	fec7871b          	addiw	a4,a5,-20

   181f0:	01e00693          	li	a3,30

   181f4:	00000513          	li	a0,0

   181f8:	00100793          	li	a5,1

   181fc:	00e6c663          	blt	a3,a4,18208 <__ulp+0x60>

   18200:	800007b7          	lui	a5,0x80000

   18204:	00e7d7bb          	srlw	a5,a5,a4

   18208:	02055513          	srli	a0,a0,0x20

   1820c:	02079793          	slli	a5,a5,0x20

   18210:	0207d793          	srli	a5,a5,0x20

   18214:	02051513          	slli	a0,a0,0x20

   18218:	00f56533          	or	a0,a0,a5

   1821c:	00008067          	ret



0000000000018220 <__b2d>:

   18220:	fd010113          	addi	sp,sp,-48

   18224:	02813023          	sd	s0,32(sp)

   18228:	01452403          	lw	s0,20(a0) # 80014 <__BSS_END__+0x5b554>

   1822c:	01213823          	sd	s2,16(sp)

   18230:	01850913          	addi	s2,a0,24

   18234:	00241413          	slli	s0,s0,0x2

   18238:	00890433          	add	s0,s2,s0

   1823c:	00913c23          	sd	s1,24(sp)

   18240:	ffc42483          	lw	s1,-4(s0)

   18244:	01313423          	sd	s3,8(sp)

   18248:	01413023          	sd	s4,0(sp)

   1824c:	00048513          	mv	a0,s1

   18250:	00058a13          	mv	s4,a1

   18254:	02113423          	sd	ra,40(sp)

   18258:	e88ff0ef          	jal	ra,178e0 <__hi0bits>

   1825c:	02000693          	li	a3,32

   18260:	40a687bb          	subw	a5,a3,a0

   18264:	00fa2023          	sw	a5,0(s4)

   18268:	00a00793          	li	a5,10

   1826c:	ffc40993          	addi	s3,s0,-4

   18270:	0aa7d663          	bge	a5,a0,1831c <__b2d+0xfc>

   18274:	ff55079b          	addiw	a5,a0,-11

   18278:	07397063          	bgeu	s2,s3,182d8 <__b2d+0xb8>

   1827c:	ff842703          	lw	a4,-8(s0)

   18280:	06078063          	beqz	a5,182e0 <__b2d+0xc0>

   18284:	40f6853b          	subw	a0,a3,a5

   18288:	00f496bb          	sllw	a3,s1,a5

   1828c:	00a754bb          	srlw	s1,a4,a0

   18290:	0096e6b3          	or	a3,a3,s1

   18294:	3ff004b7          	lui	s1,0x3ff00

   18298:	0096e6b3          	or	a3,a3,s1

   1829c:	00f7173b          	sllw	a4,a4,a5

   182a0:	ff840613          	addi	a2,s0,-8

   182a4:	02069793          	slli	a5,a3,0x20

   182a8:	0007069b          	sext.w	a3,a4

   182ac:	00c97a63          	bgeu	s2,a2,182c0 <__b2d+0xa0>

   182b0:	ff442683          	lw	a3,-12(s0)

   182b4:	00a6d53b          	srlw	a0,a3,a0

   182b8:	00e566b3          	or	a3,a0,a4

   182bc:	0006869b          	sext.w	a3,a3

   182c0:	0207d793          	srli	a5,a5,0x20

   182c4:	02069693          	slli	a3,a3,0x20

   182c8:	0206d693          	srli	a3,a3,0x20

   182cc:	02079793          	slli	a5,a5,0x20

   182d0:	00d7e7b3          	or	a5,a5,a3

   182d4:	0240006f          	j	182f8 <__b2d+0xd8>

   182d8:	00000713          	li	a4,0

   182dc:	08079663          	bnez	a5,18368 <__b2d+0x148>

   182e0:	3ff007b7          	lui	a5,0x3ff00

   182e4:	00f4e7b3          	or	a5,s1,a5

   182e8:	02071713          	slli	a4,a4,0x20

   182ec:	02075713          	srli	a4,a4,0x20

   182f0:	02079793          	slli	a5,a5,0x20

   182f4:	00e7e7b3          	or	a5,a5,a4

   182f8:	02813083          	ld	ra,40(sp)

   182fc:	02013403          	ld	s0,32(sp)

   18300:	01813483          	ld	s1,24(sp)

   18304:	01013903          	ld	s2,16(sp)

   18308:	00813983          	ld	s3,8(sp)

   1830c:	00013a03          	ld	s4,0(sp)

   18310:	00078513          	mv	a0,a5

   18314:	03010113          	addi	sp,sp,48

   18318:	00008067          	ret

   1831c:	00b00693          	li	a3,11

   18320:	40a686bb          	subw	a3,a3,a0

   18324:	3ff00737          	lui	a4,0x3ff00

   18328:	00d4d7bb          	srlw	a5,s1,a3

   1832c:	00e7e7b3          	or	a5,a5,a4

   18330:	02079793          	slli	a5,a5,0x20

   18334:	00000713          	li	a4,0

   18338:	01397663          	bgeu	s2,s3,18344 <__b2d+0x124>

   1833c:	ff842703          	lw	a4,-8(s0)

   18340:	00d7573b          	srlw	a4,a4,a3

   18344:	0155051b          	addiw	a0,a0,21

   18348:	00a494bb          	sllw	s1,s1,a0

   1834c:	009764b3          	or	s1,a4,s1

   18350:	0207d793          	srli	a5,a5,0x20

   18354:	02049493          	slli	s1,s1,0x20

   18358:	0204d493          	srli	s1,s1,0x20

   1835c:	02079793          	slli	a5,a5,0x20

   18360:	0097e7b3          	or	a5,a5,s1

   18364:	f95ff06f          	j	182f8 <__b2d+0xd8>

   18368:	00f497bb          	sllw	a5,s1,a5

   1836c:	3ff00537          	lui	a0,0x3ff00

   18370:	00a7e7b3          	or	a5,a5,a0

   18374:	02079793          	slli	a5,a5,0x20

   18378:	00000693          	li	a3,0

   1837c:	f45ff06f          	j	182c0 <__b2d+0xa0>



0000000000018380 <__d2b>:

   18380:	fc010113          	addi	sp,sp,-64

   18384:	02913423          	sd	s1,40(sp)

   18388:	00058493          	mv	s1,a1

   1838c:	00100593          	li	a1,1

   18390:	02813823          	sd	s0,48(sp)

   18394:	03213023          	sd	s2,32(sp)

   18398:	01313c23          	sd	s3,24(sp)

   1839c:	01413823          	sd	s4,16(sp)

   183a0:	02113c23          	sd	ra,56(sp)

   183a4:	00060993          	mv	s3,a2

   183a8:	00068913          	mv	s2,a3

   183ac:	9d4ff0ef          	jal	ra,17580 <_Balloc>

   183b0:	4204d793          	srai	a5,s1,0x20

   183b4:	0147d41b          	srliw	s0,a5,0x14

   183b8:	7ff47413          	andi	s0,s0,2047

   183bc:	02c79793          	slli	a5,a5,0x2c

   183c0:	00050a13          	mv	s4,a0

   183c4:	02c7d793          	srli	a5,a5,0x2c

   183c8:	00040663          	beqz	s0,183d4 <__d2b+0x54>

   183cc:	00100737          	lui	a4,0x100

   183d0:	00e7e7b3          	or	a5,a5,a4

   183d4:	00f12623          	sw	a5,12(sp)

   183d8:	0004849b          	sext.w	s1,s1

   183dc:	08048e63          	beqz	s1,18478 <__d2b+0xf8>

   183e0:	00810513          	addi	a0,sp,8

   183e4:	00912423          	sw	s1,8(sp)

   183e8:	d6cff0ef          	jal	ra,17954 <__lo0bits>

   183ec:	06051063          	bnez	a0,1844c <__d2b+0xcc>

   183f0:	00812703          	lw	a4,8(sp)

   183f4:	00c12783          	lw	a5,12(sp)

   183f8:	00ea2c23          	sw	a4,24(s4)

   183fc:	00f034b3          	snez	s1,a5

   18400:	00148493          	addi	s1,s1,1 # 3ff00001 <__BSS_END__+0x3fedb541>

   18404:	00fa2e23          	sw	a5,28(s4)

   18408:	009a2a23          	sw	s1,20(s4)

   1840c:	08040863          	beqz	s0,1849c <__d2b+0x11c>

   18410:	bcd4041b          	addiw	s0,s0,-1075

   18414:	00a4043b          	addw	s0,s0,a0

   18418:	03500793          	li	a5,53

   1841c:	0089a023          	sw	s0,0(s3)

   18420:	40a7853b          	subw	a0,a5,a0

   18424:	00a92023          	sw	a0,0(s2)

   18428:	03813083          	ld	ra,56(sp)

   1842c:	03013403          	ld	s0,48(sp)

   18430:	000a0513          	mv	a0,s4

   18434:	02813483          	ld	s1,40(sp)

   18438:	02013903          	ld	s2,32(sp)

   1843c:	01813983          	ld	s3,24(sp)

   18440:	01013a03          	ld	s4,16(sp)

   18444:	04010113          	addi	sp,sp,64

   18448:	00008067          	ret

   1844c:	00c12703          	lw	a4,12(sp)

   18450:	00812683          	lw	a3,8(sp)

   18454:	02000793          	li	a5,32

   18458:	40a787bb          	subw	a5,a5,a0

   1845c:	00f717bb          	sllw	a5,a4,a5

   18460:	00d7e7b3          	or	a5,a5,a3

   18464:	00a7573b          	srlw	a4,a4,a0

   18468:	00fa2c23          	sw	a5,24(s4)

   1846c:	00e12623          	sw	a4,12(sp)

   18470:	0007079b          	sext.w	a5,a4

   18474:	f89ff06f          	j	183fc <__d2b+0x7c>

   18478:	00c10513          	addi	a0,sp,12

   1847c:	cd8ff0ef          	jal	ra,17954 <__lo0bits>

   18480:	00100793          	li	a5,1

   18484:	00fa2a23          	sw	a5,20(s4)

   18488:	00c12783          	lw	a5,12(sp)

   1848c:	0205051b          	addiw	a0,a0,32

   18490:	00100493          	li	s1,1

   18494:	00fa2c23          	sw	a5,24(s4)

   18498:	f6041ce3          	bnez	s0,18410 <__d2b+0x90>

   1849c:	bce5051b          	addiw	a0,a0,-1074

   184a0:	00249793          	slli	a5,s1,0x2

   184a4:	00a9a023          	sw	a0,0(s3)

   184a8:	00fa07b3          	add	a5,s4,a5

   184ac:	0147a503          	lw	a0,20(a5) # 3ff00014 <__BSS_END__+0x3fedb554>

   184b0:	0054949b          	slliw	s1,s1,0x5

   184b4:	c2cff0ef          	jal	ra,178e0 <__hi0bits>

   184b8:	40a484bb          	subw	s1,s1,a0

   184bc:	00992023          	sw	s1,0(s2)

   184c0:	f69ff06f          	j	18428 <__d2b+0xa8>



00000000000184c4 <__ratio>:

   184c4:	fd010113          	addi	sp,sp,-48

   184c8:	00913c23          	sd	s1,24(sp)

   184cc:	00058493          	mv	s1,a1

   184d0:	00810593          	addi	a1,sp,8

   184d4:	02113423          	sd	ra,40(sp)

   184d8:	02813023          	sd	s0,32(sp)

   184dc:	01213823          	sd	s2,16(sp)

   184e0:	00050913          	mv	s2,a0

   184e4:	d3dff0ef          	jal	ra,18220 <__b2d>

   184e8:	00c10593          	addi	a1,sp,12

   184ec:	00050413          	mv	s0,a0

   184f0:	00048513          	mv	a0,s1

   184f4:	d2dff0ef          	jal	ra,18220 <__b2d>

   184f8:	0144a703          	lw	a4,20(s1)

   184fc:	01492783          	lw	a5,20(s2)

   18500:	00c12683          	lw	a3,12(sp)

   18504:	00050593          	mv	a1,a0

   18508:	40e787bb          	subw	a5,a5,a4

   1850c:	00812703          	lw	a4,8(sp)

   18510:	0057979b          	slliw	a5,a5,0x5

   18514:	40d7073b          	subw	a4,a4,a3

   18518:	00e7873b          	addw	a4,a5,a4

   1851c:	00070793          	mv	a5,a4

   18520:	04e05263          	blez	a4,18564 <__ratio+0xa0>

   18524:	02045713          	srli	a4,s0,0x20

   18528:	0147979b          	slliw	a5,a5,0x14

   1852c:	00e787bb          	addw	a5,a5,a4

   18530:	fff00713          	li	a4,-1

   18534:	02075713          	srli	a4,a4,0x20

   18538:	02079793          	slli	a5,a5,0x20

   1853c:	00877433          	and	s0,a4,s0

   18540:	00f46433          	or	s0,s0,a5

   18544:	00040513          	mv	a0,s0

   18548:	695060ef          	jal	ra,1f3dc <__divdf3>

   1854c:	02813083          	ld	ra,40(sp)

   18550:	02013403          	ld	s0,32(sp)

   18554:	01813483          	ld	s1,24(sp)

   18558:	01013903          	ld	s2,16(sp)

   1855c:	03010113          	addi	sp,sp,48

   18560:	00008067          	ret

   18564:	02055713          	srli	a4,a0,0x20

   18568:	0147979b          	slliw	a5,a5,0x14

   1856c:	fff00513          	li	a0,-1

   18570:	40f707bb          	subw	a5,a4,a5

   18574:	02055513          	srli	a0,a0,0x20

   18578:	02079793          	slli	a5,a5,0x20

   1857c:	00b575b3          	and	a1,a0,a1

   18580:	00f5e5b3          	or	a1,a1,a5

   18584:	fc1ff06f          	j	18544 <__ratio+0x80>



0000000000018588 <_mprec_log10>:

   18588:	fe010113          	addi	sp,sp,-32

   1858c:	00813823          	sd	s0,16(sp)

   18590:	00113c23          	sd	ra,24(sp)

   18594:	00913423          	sd	s1,8(sp)

   18598:	01700793          	li	a5,23

   1859c:	00050413          	mv	s0,a0

   185a0:	04a7d063          	bge	a5,a0,185e0 <_mprec_log10+0x58>

   185a4:	0000c797          	auipc	a5,0xc

   185a8:	44478793          	addi	a5,a5,1092 # 249e8 <__SDATA_BEGIN__+0x10>

   185ac:	0007b503          	ld	a0,0(a5)

   185b0:	0000c797          	auipc	a5,0xc

   185b4:	44078793          	addi	a5,a5,1088 # 249f0 <__SDATA_BEGIN__+0x18>

   185b8:	0007b483          	ld	s1,0(a5)

   185bc:	fff4041b          	addiw	s0,s0,-1

   185c0:	00048593          	mv	a1,s1

   185c4:	38c070ef          	jal	ra,1f950 <__muldf3>

   185c8:	fe041ae3          	bnez	s0,185bc <_mprec_log10+0x34>

   185cc:	01813083          	ld	ra,24(sp)

   185d0:	01013403          	ld	s0,16(sp)

   185d4:	00813483          	ld	s1,8(sp)

   185d8:	02010113          	addi	sp,sp,32

   185dc:	00008067          	ret

   185e0:	00351413          	slli	s0,a0,0x3

   185e4:	0000a797          	auipc	a5,0xa

   185e8:	b4478793          	addi	a5,a5,-1212 # 22128 <p05.3334>

   185ec:	00878433          	add	s0,a5,s0

   185f0:	01043503          	ld	a0,16(s0)

   185f4:	01813083          	ld	ra,24(sp)

   185f8:	01013403          	ld	s0,16(sp)

   185fc:	00813483          	ld	s1,8(sp)

   18600:	02010113          	addi	sp,sp,32

   18604:	00008067          	ret



0000000000018608 <__copybits>:

   18608:	01462683          	lw	a3,20(a2)

   1860c:	fff5859b          	addiw	a1,a1,-1

   18610:	4055d59b          	sraiw	a1,a1,0x5

   18614:	00158593          	addi	a1,a1,1

   18618:	01860793          	addi	a5,a2,24

   1861c:	00269693          	slli	a3,a3,0x2

   18620:	00259593          	slli	a1,a1,0x2

   18624:	00d786b3          	add	a3,a5,a3

   18628:	00b505b3          	add	a1,a0,a1

   1862c:	02d7f863          	bgeu	a5,a3,1865c <__copybits+0x54>

   18630:	00050713          	mv	a4,a0

   18634:	00478793          	addi	a5,a5,4

   18638:	ffc7a803          	lw	a6,-4(a5)

   1863c:	00470713          	addi	a4,a4,4 # 100004 <__BSS_END__+0xdb544>

   18640:	ff072e23          	sw	a6,-4(a4)

   18644:	fed7e8e3          	bltu	a5,a3,18634 <__copybits+0x2c>

   18648:	40c687b3          	sub	a5,a3,a2

   1864c:	fe778793          	addi	a5,a5,-25

   18650:	ffc7f793          	andi	a5,a5,-4

   18654:	00478793          	addi	a5,a5,4

   18658:	00f50533          	add	a0,a0,a5

   1865c:	00b57863          	bgeu	a0,a1,1866c <__copybits+0x64>

   18660:	00450513          	addi	a0,a0,4 # 3ff00004 <__BSS_END__+0x3fedb544>

   18664:	fe052e23          	sw	zero,-4(a0)

   18668:	feb56ce3          	bltu	a0,a1,18660 <__copybits+0x58>

   1866c:	00008067          	ret



0000000000018670 <__any_on>:

   18670:	01452703          	lw	a4,20(a0)

   18674:	4055d613          	srai	a2,a1,0x5

   18678:	01850693          	addi	a3,a0,24

   1867c:	02c75a63          	bge	a4,a2,186b0 <__any_on+0x40>

   18680:	00271793          	slli	a5,a4,0x2

   18684:	00f687b3          	add	a5,a3,a5

   18688:	04f6fc63          	bgeu	a3,a5,186e0 <__any_on+0x70>

   1868c:	ffc7a503          	lw	a0,-4(a5)

   18690:	ffc78793          	addi	a5,a5,-4

   18694:	00051a63          	bnez	a0,186a8 <__any_on+0x38>

   18698:	04f6f263          	bgeu	a3,a5,186dc <__any_on+0x6c>

   1869c:	ffc78793          	addi	a5,a5,-4

   186a0:	0007a703          	lw	a4,0(a5)

   186a4:	fe070ae3          	beqz	a4,18698 <__any_on+0x28>

   186a8:	00100513          	li	a0,1

   186ac:	00008067          	ret

   186b0:	00261793          	slli	a5,a2,0x2

   186b4:	00f687b3          	add	a5,a3,a5

   186b8:	fce658e3          	bge	a2,a4,18688 <__any_on+0x18>

   186bc:	01f5f593          	andi	a1,a1,31

   186c0:	fc0584e3          	beqz	a1,18688 <__any_on+0x18>

   186c4:	0007a603          	lw	a2,0(a5)

   186c8:	00100513          	li	a0,1

   186cc:	00b6573b          	srlw	a4,a2,a1

   186d0:	00b715bb          	sllw	a1,a4,a1

   186d4:	fac58ae3          	beq	a1,a2,18688 <__any_on+0x18>

   186d8:	00008067          	ret

   186dc:	00008067          	ret

   186e0:	00000513          	li	a0,0

   186e4:	00008067          	ret



00000000000186e8 <_sbrk_r>:

   186e8:	ff010113          	addi	sp,sp,-16

   186ec:	00813023          	sd	s0,0(sp)

   186f0:	00050413          	mv	s0,a0

   186f4:	00058513          	mv	a0,a1

   186f8:	0000c797          	auipc	a5,0xc

   186fc:	3c07a023          	sw	zero,960(a5) # 24ab8 <errno>

   18700:	00113423          	sd	ra,8(sp)

   18704:	371060ef          	jal	ra,1f274 <_sbrk>

   18708:	fff00793          	li	a5,-1

   1870c:	00f50a63          	beq	a0,a5,18720 <_sbrk_r+0x38>

   18710:	00813083          	ld	ra,8(sp)

   18714:	00013403          	ld	s0,0(sp)

   18718:	01010113          	addi	sp,sp,16

   1871c:	00008067          	ret

   18720:	0000c797          	auipc	a5,0xc

   18724:	39878793          	addi	a5,a5,920 # 24ab8 <errno>

   18728:	0007a783          	lw	a5,0(a5)

   1872c:	fe0782e3          	beqz	a5,18710 <_sbrk_r+0x28>

   18730:	00f42023          	sw	a5,0(s0)

   18734:	00813083          	ld	ra,8(sp)

   18738:	00013403          	ld	s0,0(sp)

   1873c:	01010113          	addi	sp,sp,16

   18740:	00008067          	ret



0000000000018744 <frexp>:

   18744:	fe010113          	addi	sp,sp,-32

   18748:	00813823          	sd	s0,16(sp)

   1874c:	42055693          	srai	a3,a0,0x20

   18750:	80000437          	lui	s0,0x80000

   18754:	00913423          	sd	s1,8(sp)

   18758:	00113c23          	sd	ra,24(sp)

   1875c:	0006861b          	sext.w	a2,a3

   18760:	fff44413          	not	s0,s0

   18764:	00058493          	mv	s1,a1

   18768:	0005a023          	sw	zero,0(a1)

   1876c:	008677b3          	and	a5,a2,s0

   18770:	7ff005b7          	lui	a1,0x7ff00

   18774:	00050713          	mv	a4,a0

   18778:	06b7dc63          	bge	a5,a1,187f0 <frexp+0xac>

   1877c:	00a7e5b3          	or	a1,a5,a0

   18780:	0005859b          	sext.w	a1,a1

   18784:	06058663          	beqz	a1,187f0 <frexp+0xac>

   18788:	7ff005b7          	lui	a1,0x7ff00

   1878c:	00b67633          	and	a2,a2,a1

   18790:	00000593          	li	a1,0

   18794:	02061263          	bnez	a2,187b8 <frexp+0x74>

   18798:	0000c797          	auipc	a5,0xc

   1879c:	26078793          	addi	a5,a5,608 # 249f8 <__SDATA_BEGIN__+0x20>

   187a0:	0007b583          	ld	a1,0(a5)

   187a4:	1ac070ef          	jal	ra,1f950 <__muldf3>

   187a8:	42055693          	srai	a3,a0,0x20

   187ac:	00050713          	mv	a4,a0

   187b0:	0086f7b3          	and	a5,a3,s0

   187b4:	fca00593          	li	a1,-54

   187b8:	80100637          	lui	a2,0x80100

   187bc:	fff60613          	addi	a2,a2,-1 # ffffffff800fffff <__BSS_END__+0xffffffff800db53f>

   187c0:	00c6f6b3          	and	a3,a3,a2

   187c4:	3fe00637          	lui	a2,0x3fe00

   187c8:	00c6e6b3          	or	a3,a3,a2

   187cc:	4147d79b          	sraiw	a5,a5,0x14

   187d0:	fff00613          	li	a2,-1

   187d4:	c027879b          	addiw	a5,a5,-1022

   187d8:	02065613          	srli	a2,a2,0x20

   187dc:	00b787bb          	addw	a5,a5,a1

   187e0:	02069693          	slli	a3,a3,0x20

   187e4:	00e67733          	and	a4,a2,a4

   187e8:	00f4a023          	sw	a5,0(s1)

   187ec:	00d76733          	or	a4,a4,a3

   187f0:	01813083          	ld	ra,24(sp)

   187f4:	01013403          	ld	s0,16(sp)

   187f8:	00813483          	ld	s1,8(sp)

   187fc:	00070513          	mv	a0,a4

   18800:	02010113          	addi	sp,sp,32

   18804:	00008067          	ret



0000000000018808 <_sprintf_r>:

   18808:	f0010113          	addi	sp,sp,-256

   1880c:	0d810e13          	addi	t3,sp,216

   18810:	0ef13423          	sd	a5,232(sp)

   18814:	80000337          	lui	t1,0x80000

   18818:	ffff07b7          	lui	a5,0xffff0

   1881c:	00058e93          	mv	t4,a1

   18820:	fff34313          	not	t1,t1

   18824:	0cd13c23          	sd	a3,216(sp)

   18828:	20878793          	addi	a5,a5,520 # ffffffffffff0208 <__BSS_END__+0xfffffffffffcb748>

   1882c:	01010593          	addi	a1,sp,16

   18830:	000e0693          	mv	a3,t3

   18834:	0c113423          	sd	ra,200(sp)

   18838:	02f12023          	sw	a5,32(sp)

   1883c:	0ee13023          	sd	a4,224(sp)

   18840:	0f013823          	sd	a6,240(sp)

   18844:	0f113c23          	sd	a7,248(sp)

   18848:	01d13823          	sd	t4,16(sp)

   1884c:	03d13423          	sd	t4,40(sp)

   18850:	02612823          	sw	t1,48(sp)

   18854:	00612e23          	sw	t1,28(sp)

   18858:	01c13423          	sd	t3,8(sp)

   1885c:	5a0000ef          	jal	ra,18dfc <_svfprintf_r>

   18860:	01013783          	ld	a5,16(sp)

   18864:	00078023          	sb	zero,0(a5)

   18868:	0c813083          	ld	ra,200(sp)

   1886c:	10010113          	addi	sp,sp,256

   18870:	00008067          	ret



0000000000018874 <sprintf>:

   18874:	00050e93          	mv	t4,a0

   18878:	75818513          	addi	a0,gp,1880 # 24a18 <_impure_ptr>

   1887c:	f0010113          	addi	sp,sp,-256

   18880:	00053503          	ld	a0,0(a0)

   18884:	0d010e13          	addi	t3,sp,208

   18888:	0ef13423          	sd	a5,232(sp)

   1888c:	80000337          	lui	t1,0x80000

   18890:	ffff07b7          	lui	a5,0xffff0

   18894:	fff34313          	not	t1,t1

   18898:	0cc13823          	sd	a2,208(sp)

   1889c:	0cd13c23          	sd	a3,216(sp)

   188a0:	20878793          	addi	a5,a5,520 # ffffffffffff0208 <__BSS_END__+0xfffffffffffcb748>

   188a4:	00058613          	mv	a2,a1

   188a8:	000e0693          	mv	a3,t3

   188ac:	01010593          	addi	a1,sp,16

   188b0:	0c113423          	sd	ra,200(sp)

   188b4:	02f12023          	sw	a5,32(sp)

   188b8:	0ee13023          	sd	a4,224(sp)

   188bc:	0f013823          	sd	a6,240(sp)

   188c0:	0f113c23          	sd	a7,248(sp)

   188c4:	01d13823          	sd	t4,16(sp)

   188c8:	03d13423          	sd	t4,40(sp)

   188cc:	02612823          	sw	t1,48(sp)

   188d0:	00612e23          	sw	t1,28(sp)

   188d4:	01c13423          	sd	t3,8(sp)

   188d8:	524000ef          	jal	ra,18dfc <_svfprintf_r>

   188dc:	01013783          	ld	a5,16(sp)

   188e0:	00078023          	sb	zero,0(a5)

   188e4:	0c813083          	ld	ra,200(sp)

   188e8:	10010113          	addi	sp,sp,256

   188ec:	00008067          	ret



00000000000188f0 <__sread>:

   188f0:	ff010113          	addi	sp,sp,-16

   188f4:	00813023          	sd	s0,0(sp)

   188f8:	00058413          	mv	s0,a1

   188fc:	01259583          	lh	a1,18(a1) # 7ff00012 <__BSS_END__+0x7fedb552>

   18900:	00113423          	sd	ra,8(sp)

   18904:	431040ef          	jal	ra,1d534 <_read_r>

   18908:	02054063          	bltz	a0,18928 <__sread+0x38>

   1890c:	09043783          	ld	a5,144(s0) # ffffffff80000090 <__BSS_END__+0xffffffff7ffdb5d0>

   18910:	00813083          	ld	ra,8(sp)

   18914:	00a787b3          	add	a5,a5,a0

   18918:	08f43823          	sd	a5,144(s0)

   1891c:	00013403          	ld	s0,0(sp)

   18920:	01010113          	addi	sp,sp,16

   18924:	00008067          	ret

   18928:	01045783          	lhu	a5,16(s0)

   1892c:	fffff737          	lui	a4,0xfffff

   18930:	fff70713          	addi	a4,a4,-1 # ffffffffffffefff <__BSS_END__+0xfffffffffffda53f>

   18934:	00e7f7b3          	and	a5,a5,a4

   18938:	00f41823          	sh	a5,16(s0)

   1893c:	00813083          	ld	ra,8(sp)

   18940:	00013403          	ld	s0,0(sp)

   18944:	01010113          	addi	sp,sp,16

   18948:	00008067          	ret



000000000001894c <__seofread>:

   1894c:	00000513          	li	a0,0

   18950:	00008067          	ret



0000000000018954 <__swrite>:

   18954:	01059783          	lh	a5,16(a1)

   18958:	fd010113          	addi	sp,sp,-48

   1895c:	02813023          	sd	s0,32(sp)

   18960:	00913c23          	sd	s1,24(sp)

   18964:	01213823          	sd	s2,16(sp)

   18968:	01313423          	sd	s3,8(sp)

   1896c:	02113423          	sd	ra,40(sp)

   18970:	1007f713          	andi	a4,a5,256

   18974:	00058413          	mv	s0,a1

   18978:	00050493          	mv	s1,a0

   1897c:	00060913          	mv	s2,a2

   18980:	00068993          	mv	s3,a3

   18984:	01259583          	lh	a1,18(a1)

   18988:	02071e63          	bnez	a4,189c4 <__swrite+0x70>

   1898c:	fffff737          	lui	a4,0xfffff

   18990:	fff70713          	addi	a4,a4,-1 # ffffffffffffefff <__BSS_END__+0xfffffffffffda53f>

   18994:	00e7f7b3          	and	a5,a5,a4

   18998:	00f41823          	sh	a5,16(s0)

   1899c:	02013403          	ld	s0,32(sp)

   189a0:	02813083          	ld	ra,40(sp)

   189a4:	00098693          	mv	a3,s3

   189a8:	00090613          	mv	a2,s2

   189ac:	00813983          	ld	s3,8(sp)

   189b0:	01013903          	ld	s2,16(sp)

   189b4:	00048513          	mv	a0,s1

   189b8:	01813483          	ld	s1,24(sp)

   189bc:	03010113          	addi	sp,sp,48

   189c0:	6c10306f          	j	1c880 <_write_r>

   189c4:	00200693          	li	a3,2

   189c8:	00000613          	li	a2,0

   189cc:	0c5040ef          	jal	ra,1d290 <_lseek_r>

   189d0:	01041783          	lh	a5,16(s0)

   189d4:	01241583          	lh	a1,18(s0)

   189d8:	fb5ff06f          	j	1898c <__swrite+0x38>



00000000000189dc <__sseek>:

   189dc:	ff010113          	addi	sp,sp,-16

   189e0:	00813023          	sd	s0,0(sp)

   189e4:	00058413          	mv	s0,a1

   189e8:	01259583          	lh	a1,18(a1)

   189ec:	00113423          	sd	ra,8(sp)

   189f0:	0a1040ef          	jal	ra,1d290 <_lseek_r>

   189f4:	fff00793          	li	a5,-1

   189f8:	02f50463          	beq	a0,a5,18a20 <__sseek+0x44>

   189fc:	01045783          	lhu	a5,16(s0)

   18a00:	00001737          	lui	a4,0x1

   18a04:	08a43823          	sd	a0,144(s0)

   18a08:	00e7e7b3          	or	a5,a5,a4

   18a0c:	00f41823          	sh	a5,16(s0)

   18a10:	00813083          	ld	ra,8(sp)

   18a14:	00013403          	ld	s0,0(sp)

   18a18:	01010113          	addi	sp,sp,16

   18a1c:	00008067          	ret

   18a20:	01045783          	lhu	a5,16(s0)

   18a24:	fffff737          	lui	a4,0xfffff

   18a28:	fff70713          	addi	a4,a4,-1 # ffffffffffffefff <__BSS_END__+0xfffffffffffda53f>

   18a2c:	00e7f7b3          	and	a5,a5,a4

   18a30:	00f41823          	sh	a5,16(s0)

   18a34:	00813083          	ld	ra,8(sp)

   18a38:	00013403          	ld	s0,0(sp)

   18a3c:	01010113          	addi	sp,sp,16

   18a40:	00008067          	ret



0000000000018a44 <__sclose>:

   18a44:	01259583          	lh	a1,18(a1)

   18a48:	7690306f          	j	1c9b0 <_close_r>



0000000000018a4c <strcmp>:

   18a4c:	00b56733          	or	a4,a0,a1

   18a50:	fff00393          	li	t2,-1

   18a54:	00777713          	andi	a4,a4,7

   18a58:	0c071c63          	bnez	a4,18b30 <strcmp+0xe4>

   18a5c:	0000c797          	auipc	a5,0xc

   18a60:	fa47b783          	ld	a5,-92(a5) # 24a00 <mask>

   18a64:	00053603          	ld	a2,0(a0)

   18a68:	0005b683          	ld	a3,0(a1)

   18a6c:	00f672b3          	and	t0,a2,a5

   18a70:	00f66333          	or	t1,a2,a5

   18a74:	00f282b3          	add	t0,t0,a5

   18a78:	0062e2b3          	or	t0,t0,t1

   18a7c:	0c729e63          	bne	t0,t2,18b58 <strcmp+0x10c>

   18a80:	04d61663          	bne	a2,a3,18acc <strcmp+0x80>

   18a84:	00853603          	ld	a2,8(a0)

   18a88:	0085b683          	ld	a3,8(a1)

   18a8c:	00f672b3          	and	t0,a2,a5

   18a90:	00f66333          	or	t1,a2,a5

   18a94:	00f282b3          	add	t0,t0,a5

   18a98:	0062e2b3          	or	t0,t0,t1

   18a9c:	0a729a63          	bne	t0,t2,18b50 <strcmp+0x104>

   18aa0:	02d61663          	bne	a2,a3,18acc <strcmp+0x80>

   18aa4:	01053603          	ld	a2,16(a0)

   18aa8:	0105b683          	ld	a3,16(a1)

   18aac:	00f672b3          	and	t0,a2,a5

   18ab0:	00f66333          	or	t1,a2,a5

   18ab4:	00f282b3          	add	t0,t0,a5

   18ab8:	0062e2b3          	or	t0,t0,t1

   18abc:	0a729463          	bne	t0,t2,18b64 <strcmp+0x118>

   18ac0:	01850513          	addi	a0,a0,24

   18ac4:	01858593          	addi	a1,a1,24

   18ac8:	f8d60ee3          	beq	a2,a3,18a64 <strcmp+0x18>

   18acc:	03061713          	slli	a4,a2,0x30

   18ad0:	03069793          	slli	a5,a3,0x30

   18ad4:	02f71a63          	bne	a4,a5,18b08 <strcmp+0xbc>

   18ad8:	02061713          	slli	a4,a2,0x20

   18adc:	02069793          	slli	a5,a3,0x20

   18ae0:	02f71463          	bne	a4,a5,18b08 <strcmp+0xbc>

   18ae4:	01061713          	slli	a4,a2,0x10

   18ae8:	01069793          	slli	a5,a3,0x10

   18aec:	00f71e63          	bne	a4,a5,18b08 <strcmp+0xbc>

   18af0:	03065713          	srli	a4,a2,0x30

   18af4:	0306d793          	srli	a5,a3,0x30

   18af8:	40f70533          	sub	a0,a4,a5

   18afc:	0ff57593          	andi	a1,a0,255

   18b00:	02059063          	bnez	a1,18b20 <strcmp+0xd4>

   18b04:	00008067          	ret

   18b08:	03075713          	srli	a4,a4,0x30

   18b0c:	0307d793          	srli	a5,a5,0x30

   18b10:	40f70533          	sub	a0,a4,a5

   18b14:	0ff57593          	andi	a1,a0,255

   18b18:	00059463          	bnez	a1,18b20 <strcmp+0xd4>

   18b1c:	00008067          	ret

   18b20:	0ff77713          	andi	a4,a4,255

   18b24:	0ff7f793          	andi	a5,a5,255

   18b28:	40f70533          	sub	a0,a4,a5

   18b2c:	00008067          	ret

   18b30:	00054603          	lbu	a2,0(a0)

   18b34:	0005c683          	lbu	a3,0(a1)

   18b38:	00150513          	addi	a0,a0,1

   18b3c:	00158593          	addi	a1,a1,1

   18b40:	00d61463          	bne	a2,a3,18b48 <strcmp+0xfc>

   18b44:	fe0616e3          	bnez	a2,18b30 <strcmp+0xe4>

   18b48:	40d60533          	sub	a0,a2,a3

   18b4c:	00008067          	ret

   18b50:	00850513          	addi	a0,a0,8

   18b54:	00858593          	addi	a1,a1,8

   18b58:	fcd61ce3          	bne	a2,a3,18b30 <strcmp+0xe4>

   18b5c:	00000513          	li	a0,0

   18b60:	00008067          	ret

   18b64:	01050513          	addi	a0,a0,16

   18b68:	01058593          	addi	a1,a1,16

   18b6c:	fcd612e3          	bne	a2,a3,18b30 <strcmp+0xe4>

   18b70:	00000513          	li	a0,0

   18b74:	00008067          	ret



0000000000018b78 <strcpy>:

   18b78:	00b567b3          	or	a5,a0,a1

   18b7c:	0077f793          	andi	a5,a5,7

   18b80:	0a079863          	bnez	a5,18c30 <strcpy+0xb8>

   18b84:	0000c797          	auipc	a5,0xc

   18b88:	e7c78793          	addi	a5,a5,-388 # 24a00 <mask>

   18b8c:	0007b683          	ld	a3,0(a5)

   18b90:	0005b703          	ld	a4,0(a1)

   18b94:	fff00613          	li	a2,-1

   18b98:	00d777b3          	and	a5,a4,a3

   18b9c:	00d787b3          	add	a5,a5,a3

   18ba0:	00e7e7b3          	or	a5,a5,a4

   18ba4:	00d7e7b3          	or	a5,a5,a3

   18ba8:	0ac79263          	bne	a5,a2,18c4c <strcpy+0xd4>

   18bac:	00050613          	mv	a2,a0

   18bb0:	fff00813          	li	a6,-1

   18bb4:	00860613          	addi	a2,a2,8 # 3fe00008 <__BSS_END__+0x3fddb548>

   18bb8:	00858593          	addi	a1,a1,8

   18bbc:	fee63c23          	sd	a4,-8(a2)

   18bc0:	0005b703          	ld	a4,0(a1)

   18bc4:	00d777b3          	and	a5,a4,a3

   18bc8:	00d787b3          	add	a5,a5,a3

   18bcc:	00e7e7b3          	or	a5,a5,a4

   18bd0:	00d7e7b3          	or	a5,a5,a3

   18bd4:	ff0780e3          	beq	a5,a6,18bb4 <strcpy+0x3c>

   18bd8:	0005c783          	lbu	a5,0(a1)

   18bdc:	0015c703          	lbu	a4,1(a1)

   18be0:	0025c683          	lbu	a3,2(a1)

   18be4:	00f60023          	sb	a5,0(a2)

   18be8:	04078263          	beqz	a5,18c2c <strcpy+0xb4>

   18bec:	00e600a3          	sb	a4,1(a2)

   18bf0:	02070e63          	beqz	a4,18c2c <strcpy+0xb4>

   18bf4:	0035c783          	lbu	a5,3(a1)

   18bf8:	00d60123          	sb	a3,2(a2)

   18bfc:	02068863          	beqz	a3,18c2c <strcpy+0xb4>

   18c00:	0045c703          	lbu	a4,4(a1)

   18c04:	00f601a3          	sb	a5,3(a2)

   18c08:	02078263          	beqz	a5,18c2c <strcpy+0xb4>

   18c0c:	0055c783          	lbu	a5,5(a1)

   18c10:	00e60223          	sb	a4,4(a2)

   18c14:	00070c63          	beqz	a4,18c2c <strcpy+0xb4>

   18c18:	0065c703          	lbu	a4,6(a1)

   18c1c:	00f602a3          	sb	a5,5(a2)

   18c20:	00078663          	beqz	a5,18c2c <strcpy+0xb4>

   18c24:	00e60323          	sb	a4,6(a2)

   18c28:	02071663          	bnez	a4,18c54 <strcpy+0xdc>

   18c2c:	00008067          	ret

   18c30:	00050793          	mv	a5,a0

   18c34:	0005c703          	lbu	a4,0(a1)

   18c38:	00178793          	addi	a5,a5,1

   18c3c:	00158593          	addi	a1,a1,1

   18c40:	fee78fa3          	sb	a4,-1(a5)

   18c44:	fe0718e3          	bnez	a4,18c34 <strcpy+0xbc>

   18c48:	00008067          	ret

   18c4c:	00050613          	mv	a2,a0

   18c50:	f89ff06f          	j	18bd8 <strcpy+0x60>

   18c54:	000603a3          	sb	zero,7(a2)

   18c58:	00008067          	ret



0000000000018c5c <strlen>:

   18c5c:	00757793          	andi	a5,a0,7

   18c60:	00050713          	mv	a4,a0

   18c64:	06079e63          	bnez	a5,18ce0 <strlen+0x84>

   18c68:	0000c797          	auipc	a5,0xc

   18c6c:	d9878793          	addi	a5,a5,-616 # 24a00 <mask>

   18c70:	0007b683          	ld	a3,0(a5)

   18c74:	fff00593          	li	a1,-1

   18c78:	00870713          	addi	a4,a4,8

   18c7c:	ff873603          	ld	a2,-8(a4)

   18c80:	00d677b3          	and	a5,a2,a3

   18c84:	00d787b3          	add	a5,a5,a3

   18c88:	00c7e7b3          	or	a5,a5,a2

   18c8c:	00d7e7b3          	or	a5,a5,a3

   18c90:	feb784e3          	beq	a5,a1,18c78 <strlen+0x1c>

   18c94:	ff874783          	lbu	a5,-8(a4)

   18c98:	40a706b3          	sub	a3,a4,a0

   18c9c:	06078463          	beqz	a5,18d04 <strlen+0xa8>

   18ca0:	ff974783          	lbu	a5,-7(a4)

   18ca4:	04078c63          	beqz	a5,18cfc <strlen+0xa0>

   18ca8:	ffa74783          	lbu	a5,-6(a4)

   18cac:	06078463          	beqz	a5,18d14 <strlen+0xb8>

   18cb0:	ffb74783          	lbu	a5,-5(a4)

   18cb4:	04078c63          	beqz	a5,18d0c <strlen+0xb0>

   18cb8:	ffc74603          	lbu	a2,-4(a4)

   18cbc:	ffd74583          	lbu	a1,-3(a4)

   18cc0:	ffe74783          	lbu	a5,-2(a4)

   18cc4:	04060c63          	beqz	a2,18d1c <strlen+0xc0>

   18cc8:	04058e63          	beqz	a1,18d24 <strlen+0xc8>

   18ccc:	00f03533          	snez	a0,a5

   18cd0:	00d50533          	add	a0,a0,a3

   18cd4:	ffe50513          	addi	a0,a0,-2

   18cd8:	00008067          	ret

   18cdc:	f80686e3          	beqz	a3,18c68 <strlen+0xc>

   18ce0:	00074783          	lbu	a5,0(a4)

   18ce4:	00170713          	addi	a4,a4,1

   18ce8:	00777693          	andi	a3,a4,7

   18cec:	fe0798e3          	bnez	a5,18cdc <strlen+0x80>

   18cf0:	40a70733          	sub	a4,a4,a0

   18cf4:	fff70513          	addi	a0,a4,-1

   18cf8:	00008067          	ret

   18cfc:	ff968513          	addi	a0,a3,-7

   18d00:	00008067          	ret

   18d04:	ff868513          	addi	a0,a3,-8

   18d08:	00008067          	ret

   18d0c:	ffb68513          	addi	a0,a3,-5

   18d10:	00008067          	ret

   18d14:	ffa68513          	addi	a0,a3,-6

   18d18:	00008067          	ret

   18d1c:	ffc68513          	addi	a0,a3,-4

   18d20:	00008067          	ret

   18d24:	ffd68513          	addi	a0,a3,-3

   18d28:	00008067          	ret



0000000000018d2c <strncpy>:

   18d2c:	00a5e7b3          	or	a5,a1,a0

   18d30:	0077f793          	andi	a5,a5,7

   18d34:	0a079063          	bnez	a5,18dd4 <strncpy+0xa8>

   18d38:	00700793          	li	a5,7

   18d3c:	08c7fc63          	bgeu	a5,a2,18dd4 <strncpy+0xa8>

   18d40:	0000c797          	auipc	a5,0xc

   18d44:	c9878793          	addi	a5,a5,-872 # 249d8 <__SDATA_BEGIN__>

   18d48:	0007b303          	ld	t1,0(a5)

   18d4c:	0000c797          	auipc	a5,0xc

   18d50:	c9478793          	addi	a5,a5,-876 # 249e0 <__SDATA_BEGIN__+0x8>

   18d54:	0007b883          	ld	a7,0(a5)

   18d58:	00050713          	mv	a4,a0

   18d5c:	00700e13          	li	t3,7

   18d60:	0005b683          	ld	a3,0(a1)

   18d64:	006687b3          	add	a5,a3,t1

   18d68:	fff6c813          	not	a6,a3

   18d6c:	0107f7b3          	and	a5,a5,a6

   18d70:	0117f7b3          	and	a5,a5,a7

   18d74:	00079e63          	bnez	a5,18d90 <strncpy+0x64>

   18d78:	00870713          	addi	a4,a4,8

   18d7c:	ff860613          	addi	a2,a2,-8

   18d80:	fed73c23          	sd	a3,-8(a4)

   18d84:	00858593          	addi	a1,a1,8

   18d88:	fcce6ce3          	bltu	t3,a2,18d60 <strncpy+0x34>

   18d8c:	06060463          	beqz	a2,18df4 <strncpy+0xc8>

   18d90:	0005c803          	lbu	a6,0(a1)

   18d94:	fff60693          	addi	a3,a2,-1

   18d98:	00158593          	addi	a1,a1,1

   18d9c:	01070023          	sb	a6,0(a4)

   18da0:	00170793          	addi	a5,a4,1

   18da4:	02080c63          	beqz	a6,18ddc <strncpy+0xb0>

   18da8:	00c70633          	add	a2,a4,a2

   18dac:	00d706b3          	add	a3,a4,a3

   18db0:	0140006f          	j	18dc4 <strncpy+0x98>

   18db4:	fff5c703          	lbu	a4,-1(a1)

   18db8:	00178793          	addi	a5,a5,1

   18dbc:	fee78fa3          	sb	a4,-1(a5)

   18dc0:	02070063          	beqz	a4,18de0 <strncpy+0xb4>

   18dc4:	00158593          	addi	a1,a1,1

   18dc8:	40f68833          	sub	a6,a3,a5

   18dcc:	fec794e3          	bne	a5,a2,18db4 <strncpy+0x88>

   18dd0:	00008067          	ret

   18dd4:	00050713          	mv	a4,a0

   18dd8:	fb5ff06f          	j	18d8c <strncpy+0x60>

   18ddc:	00068813          	mv	a6,a3

   18de0:	01078733          	add	a4,a5,a6

   18de4:	00080a63          	beqz	a6,18df8 <strncpy+0xcc>

   18de8:	00178793          	addi	a5,a5,1

   18dec:	fe078fa3          	sb	zero,-1(a5)

   18df0:	fee79ce3          	bne	a5,a4,18de8 <strncpy+0xbc>

   18df4:	00008067          	ret

   18df8:	00008067          	ret



0000000000018dfc <_svfprintf_r>:

   18dfc:	d8010113          	addi	sp,sp,-640

   18e00:	26113c23          	sd	ra,632(sp)

   18e04:	25613023          	sd	s6,576(sp)

   18e08:	23813823          	sd	s8,560(sp)

   18e0c:	23a13023          	sd	s10,544(sp)

   18e10:	00058c13          	mv	s8,a1

   18e14:	00060d13          	mv	s10,a2

   18e18:	00d13823          	sd	a3,16(sp)

   18e1c:	26813823          	sd	s0,624(sp)

   18e20:	26913423          	sd	s1,616(sp)

   18e24:	27213023          	sd	s2,608(sp)

   18e28:	25313c23          	sd	s3,600(sp)

   18e2c:	25413823          	sd	s4,592(sp)

   18e30:	25513423          	sd	s5,584(sp)

   18e34:	23713c23          	sd	s7,568(sp)

   18e38:	23913423          	sd	s9,552(sp)

   18e3c:	21b13c23          	sd	s11,536(sp)

   18e40:	00050b13          	mv	s6,a0

   18e44:	ae1fd0ef          	jal	ra,16924 <_localeconv_r>

   18e48:	00053783          	ld	a5,0(a0)

   18e4c:	00078513          	mv	a0,a5

   18e50:	08f13023          	sd	a5,128(sp)

   18e54:	e09ff0ef          	jal	ra,18c5c <strlen>

   18e58:	010c5783          	lhu	a5,16(s8)

   18e5c:	06a13c23          	sd	a0,120(sp)

   18e60:	10013023          	sd	zero,256(sp)

   18e64:	10013423          	sd	zero,264(sp)

   18e68:	0807f793          	andi	a5,a5,128

   18e6c:	00078863          	beqz	a5,18e7c <_svfprintf_r+0x80>

   18e70:	018c3783          	ld	a5,24(s8)

   18e74:	00079463          	bnez	a5,18e7c <_svfprintf_r+0x80>

   18e78:	5700106f          	j	1a3e8 <_svfprintf_r+0x15ec>

   18e7c:	000d4783          	lbu	a5,0(s10)

   18e80:	19010b93          	addi	s7,sp,400

   18e84:	11713823          	sd	s7,272(sp)

   18e88:	12013023          	sd	zero,288(sp)

   18e8c:	10012c23          	sw	zero,280(sp)

   18e90:	02013423          	sd	zero,40(sp)

   18e94:	02013823          	sd	zero,48(sp)

   18e98:	08013823          	sd	zero,144(sp)

   18e9c:	06013823          	sd	zero,112(sp)

   18ea0:	08013423          	sd	zero,136(sp)

   18ea4:	08013c23          	sd	zero,152(sp)

   18ea8:	00013423          	sd	zero,8(sp)

   18eac:	000b8313          	mv	t1,s7

   18eb0:	01000d93          	li	s11,16

   18eb4:	00009997          	auipc	s3,0x9

   18eb8:	51c98993          	addi	s3,s3,1308 # 223d0 <zeroes.4526>

   18ebc:	6a078863          	beqz	a5,1956c <_svfprintf_r+0x770>

   18ec0:	02500693          	li	a3,37

   18ec4:	00d79463          	bne	a5,a3,18ecc <_svfprintf_r+0xd0>

   18ec8:	41c0106f          	j	1a2e4 <_svfprintf_r+0x14e8>

   18ecc:	000d0413          	mv	s0,s10

   18ed0:	00c0006f          	j	18edc <_svfprintf_r+0xe0>

   18ed4:	0cd78463          	beq	a5,a3,18f9c <_svfprintf_r+0x1a0>

   18ed8:	00048413          	mv	s0,s1

   18edc:	00144783          	lbu	a5,1(s0)

   18ee0:	00140493          	addi	s1,s0,1

   18ee4:	fe0798e3          	bnez	a5,18ed4 <_svfprintf_r+0xd8>

   18ee8:	41a4893b          	subw	s2,s1,s10

   18eec:	68090063          	beqz	s2,1956c <_svfprintf_r+0x770>

   18ef0:	12013683          	ld	a3,288(sp)

   18ef4:	11812783          	lw	a5,280(sp)

   18ef8:	01a33023          	sd	s10,0(t1) # ffffffff80000000 <__BSS_END__+0xffffffff7ffdb540>

   18efc:	012686b3          	add	a3,a3,s2

   18f00:	0017879b          	addiw	a5,a5,1

   18f04:	01233423          	sd	s2,8(t1)

   18f08:	12d13023          	sd	a3,288(sp)

   18f0c:	10f12c23          	sw	a5,280(sp)

   18f10:	0007869b          	sext.w	a3,a5

   18f14:	00700793          	li	a5,7

   18f18:	01030313          	addi	t1,t1,16

   18f1c:	08d7c663          	blt	a5,a3,18fa8 <_svfprintf_r+0x1ac>

   18f20:	00813703          	ld	a4,8(sp)

   18f24:	00144783          	lbu	a5,1(s0)

   18f28:	00e9073b          	addw	a4,s2,a4

   18f2c:	00e13423          	sd	a4,8(sp)

   18f30:	62078e63          	beqz	a5,1956c <_svfprintf_r+0x770>

   18f34:	00148913          	addi	s2,s1,1

   18f38:	0014c483          	lbu	s1,1(s1)

   18f3c:	0c010fa3          	sb	zero,223(sp)

   18f40:	fff00e93          	li	t4,-1

   18f44:	00000a13          	li	s4,0

   18f48:	00000413          	li	s0,0

   18f4c:	00900a93          	li	s5,9

   18f50:	02a00c93          	li	s9,42

   18f54:	00190913          	addi	s2,s2,1

   18f58:	0004849b          	sext.w	s1,s1

   18f5c:	05a00613          	li	a2,90

   18f60:	fe04879b          	addiw	a5,s1,-32

   18f64:	0007869b          	sext.w	a3,a5

   18f68:	1ad66e63          	bltu	a2,a3,19124 <_svfprintf_r+0x328>

   18f6c:	02079793          	slli	a5,a5,0x20

   18f70:	00009717          	auipc	a4,0x9

   18f74:	2e070713          	addi	a4,a4,736 # 22250 <__mprec_bigtens+0x28>

   18f78:	01e7d793          	srli	a5,a5,0x1e

   18f7c:	00e787b3          	add	a5,a5,a4

   18f80:	0007a783          	lw	a5,0(a5)

   18f84:	00e787b3          	add	a5,a5,a4

   18f88:	00078067          	jr	a5

   18f8c:	01046413          	ori	s0,s0,16

   18f90:	0004041b          	sext.w	s0,s0

   18f94:	00094483          	lbu	s1,0(s2)

   18f98:	fbdff06f          	j	18f54 <_svfprintf_r+0x158>

   18f9c:	41a4893b          	subw	s2,s1,s10

   18fa0:	f8090ae3          	beqz	s2,18f34 <_svfprintf_r+0x138>

   18fa4:	f4dff06f          	j	18ef0 <_svfprintf_r+0xf4>

   18fa8:	11010613          	addi	a2,sp,272

   18fac:	000c0593          	mv	a1,s8

   18fb0:	000b0513          	mv	a0,s6

   18fb4:	4bd040ef          	jal	ra,1dc70 <__ssprint_r>

   18fb8:	02051a63          	bnez	a0,18fec <_svfprintf_r+0x1f0>

   18fbc:	000b8313          	mv	t1,s7

   18fc0:	f61ff06f          	j	18f20 <_svfprintf_r+0x124>

   18fc4:	11010613          	addi	a2,sp,272

   18fc8:	000c0593          	mv	a1,s8

   18fcc:	000b0513          	mv	a0,s6

   18fd0:	4a1040ef          	jal	ra,1dc70 <__ssprint_r>

   18fd4:	56050863          	beqz	a0,19544 <_svfprintf_r+0x748>

   18fd8:	02013783          	ld	a5,32(sp)

   18fdc:	00078863          	beqz	a5,18fec <_svfprintf_r+0x1f0>

   18fe0:	02013583          	ld	a1,32(sp)

   18fe4:	000b0513          	mv	a0,s6

   18fe8:	885fa0ef          	jal	ra,1386c <_free_r>

   18fec:	010c5783          	lhu	a5,16(s8)

   18ff0:	0407f793          	andi	a5,a5,64

   18ff4:	00078463          	beqz	a5,18ffc <_svfprintf_r+0x200>

   18ff8:	2c80206f          	j	1b2c0 <_svfprintf_r+0x24c4>

   18ffc:	27813083          	ld	ra,632(sp)

   19000:	27013403          	ld	s0,624(sp)

   19004:	00813503          	ld	a0,8(sp)

   19008:	26813483          	ld	s1,616(sp)

   1900c:	26013903          	ld	s2,608(sp)

   19010:	25813983          	ld	s3,600(sp)

   19014:	25013a03          	ld	s4,592(sp)

   19018:	24813a83          	ld	s5,584(sp)

   1901c:	24013b03          	ld	s6,576(sp)

   19020:	23813b83          	ld	s7,568(sp)

   19024:	23013c03          	ld	s8,560(sp)

   19028:	22813c83          	ld	s9,552(sp)

   1902c:	22013d03          	ld	s10,544(sp)

   19030:	21813d83          	ld	s11,536(sp)

   19034:	28010113          	addi	sp,sp,640

   19038:	00008067          	ret

   1903c:	01013703          	ld	a4,16(sp)

   19040:	00009797          	auipc	a5,0x9

   19044:	df078793          	addi	a5,a5,-528 # 21e30 <zeroes.4541+0x60>

   19048:	02f13823          	sd	a5,48(sp)

   1904c:	02047793          	andi	a5,s0,32

   19050:	00870693          	addi	a3,a4,8

   19054:	10078463          	beqz	a5,1915c <_svfprintf_r+0x360>

   19058:	00073a83          	ld	s5,0(a4)

   1905c:	00147713          	andi	a4,s0,1

   19060:	00070e63          	beqz	a4,1907c <_svfprintf_r+0x280>

   19064:	000a8c63          	beqz	s5,1907c <_svfprintf_r+0x280>

   19068:	00246413          	ori	s0,s0,2

   1906c:	03000713          	li	a4,48

   19070:	0ee10023          	sb	a4,224(sp)

   19074:	0e9100a3          	sb	s1,225(sp)

   19078:	0004041b          	sext.w	s0,s0

   1907c:	bff47813          	andi	a6,s0,-1025

   19080:	0008081b          	sext.w	a6,a6

   19084:	00d13823          	sd	a3,16(sp)

   19088:	00200713          	li	a4,2

   1908c:	0c010fa3          	sb	zero,223(sp)

   19090:	fff00693          	li	a3,-1

   19094:	30de8a63          	beq	t4,a3,193a8 <_svfprintf_r+0x5ac>

   19098:	f7f87413          	andi	s0,a6,-129

   1909c:	0004041b          	sext.w	s0,s0

   190a0:	600a98e3          	bnez	s5,19eb0 <_svfprintf_r+0x10b4>

   190a4:	000e8463          	beqz	t4,190ac <_svfprintf_r+0x2b0>

   190a8:	7ed0006f          	j	1a094 <_svfprintf_r+0x1298>

   190ac:	2a071063          	bnez	a4,1934c <_svfprintf_r+0x550>

   190b0:	00187c93          	andi	s9,a6,1

   190b4:	18c10d13          	addi	s10,sp,396

   190b8:	000c8463          	beqz	s9,190c0 <_svfprintf_r+0x2c4>

   190bc:	2800106f          	j	1a33c <_svfprintf_r+0x1540>

   190c0:	000c8a9b          	sext.w	s5,s9

   190c4:	01dcd463          	bge	s9,t4,190cc <_svfprintf_r+0x2d0>

   190c8:	000e8a9b          	sext.w	s5,t4

   190cc:	0df14783          	lbu	a5,223(sp)

   190d0:	02013023          	sd	zero,32(sp)

   190d4:	04013c23          	sd	zero,88(sp)

   190d8:	06013423          	sd	zero,104(sp)

   190dc:	06013023          	sd	zero,96(sp)

   190e0:	36078063          	beqz	a5,19440 <_svfprintf_r+0x644>

   190e4:	001a8a9b          	addiw	s5,s5,1

   190e8:	3580006f          	j	19440 <_svfprintf_r+0x644>

   190ec:	00000a13          	li	s4,0

   190f0:	00190913          	addi	s2,s2,1

   190f4:	fff94683          	lbu	a3,-1(s2)

   190f8:	002a179b          	slliw	a5,s4,0x2

   190fc:	01478a3b          	addw	s4,a5,s4

   19100:	fd04849b          	addiw	s1,s1,-48

   19104:	001a1a1b          	slliw	s4,s4,0x1

   19108:	fd06879b          	addiw	a5,a3,-48

   1910c:	01448a3b          	addw	s4,s1,s4

   19110:	0006849b          	sext.w	s1,a3

   19114:	fcfafee3          	bgeu	s5,a5,190f0 <_svfprintf_r+0x2f4>

   19118:	fe04879b          	addiw	a5,s1,-32

   1911c:	0007869b          	sext.w	a3,a5

   19120:	e4d676e3          	bgeu	a2,a3,18f6c <_svfprintf_r+0x170>

   19124:	44048463          	beqz	s1,1956c <_svfprintf_r+0x770>

   19128:	12910423          	sb	s1,296(sp)

   1912c:	0c010fa3          	sb	zero,223(sp)

   19130:	00100a93          	li	s5,1

   19134:	00100c93          	li	s9,1

   19138:	12810d13          	addi	s10,sp,296

   1913c:	2f00006f          	j	1942c <_svfprintf_r+0x630>

   19140:	01013703          	ld	a4,16(sp)

   19144:	00009797          	auipc	a5,0x9

   19148:	d0478793          	addi	a5,a5,-764 # 21e48 <zeroes.4541+0x78>

   1914c:	02f13823          	sd	a5,48(sp)

   19150:	02047793          	andi	a5,s0,32

   19154:	00870693          	addi	a3,a4,8

   19158:	f00790e3          	bnez	a5,19058 <_svfprintf_r+0x25c>

   1915c:	01047793          	andi	a5,s0,16

   19160:	00078463          	beqz	a5,19168 <_svfprintf_r+0x36c>

   19164:	2200106f          	j	1a384 <_svfprintf_r+0x1588>

   19168:	01013783          	ld	a5,16(sp)

   1916c:	04047713          	andi	a4,s0,64

   19170:	0007a783          	lw	a5,0(a5)

   19174:	00071463          	bnez	a4,1917c <_svfprintf_r+0x380>

   19178:	0610106f          	j	1a9d8 <_svfprintf_r+0x1bdc>

   1917c:	03079a93          	slli	s5,a5,0x30

   19180:	030ada93          	srli	s5,s5,0x30

   19184:	ed9ff06f          	j	1905c <_svfprintf_r+0x260>

   19188:	00094483          	lbu	s1,0(s2)

   1918c:	00446413          	ori	s0,s0,4

   19190:	0004041b          	sext.w	s0,s0

   19194:	dc1ff06f          	j	18f54 <_svfprintf_r+0x158>

   19198:	00094483          	lbu	s1,0(s2)

   1919c:	00190793          	addi	a5,s2,1

   191a0:	01949463          	bne	s1,s9,191a8 <_svfprintf_r+0x3ac>

   191a4:	2d80206f          	j	1b47c <_svfprintf_r+0x2680>

   191a8:	fd04869b          	addiw	a3,s1,-48

   191ac:	00078913          	mv	s2,a5

   191b0:	00000e93          	li	t4,0

   191b4:	dadae6e3          	bltu	s5,a3,18f60 <_svfprintf_r+0x164>

   191b8:	00190913          	addi	s2,s2,1

   191bc:	002e979b          	slliw	a5,t4,0x2

   191c0:	fff94483          	lbu	s1,-1(s2)

   191c4:	01d78ebb          	addw	t4,a5,t4

   191c8:	001e9e9b          	slliw	t4,t4,0x1

   191cc:	00de8ebb          	addw	t4,t4,a3

   191d0:	fd04869b          	addiw	a3,s1,-48

   191d4:	fedaf2e3          	bgeu	s5,a3,191b8 <_svfprintf_r+0x3bc>

   191d8:	d89ff06f          	j	18f60 <_svfprintf_r+0x164>

   191dc:	08046413          	ori	s0,s0,128

   191e0:	0004041b          	sext.w	s0,s0

   191e4:	00094483          	lbu	s1,0(s2)

   191e8:	d6dff06f          	j	18f54 <_svfprintf_r+0x158>

   191ec:	01013783          	ld	a5,16(sp)

   191f0:	01046813          	ori	a6,s0,16

   191f4:	0008081b          	sext.w	a6,a6

   191f8:	00878693          	addi	a3,a5,8

   191fc:	01013783          	ld	a5,16(sp)

   19200:	00100713          	li	a4,1

   19204:	0007ba83          	ld	s5,0(a5)

   19208:	00d13823          	sd	a3,16(sp)

   1920c:	e81ff06f          	j	1908c <_svfprintf_r+0x290>

   19210:	01013783          	ld	a5,16(sp)

   19214:	0c010fa3          	sb	zero,223(sp)

   19218:	0007bd03          	ld	s10,0(a5)

   1921c:	00878693          	addi	a3,a5,8

   19220:	000d1463          	bnez	s10,19228 <_svfprintf_r+0x42c>

   19224:	1ec0106f          	j	1a410 <_svfprintf_r+0x1614>

   19228:	fff00793          	li	a5,-1

   1922c:	00fe9463          	bne	t4,a5,19234 <_svfprintf_r+0x438>

   19230:	6900106f          	j	1a8c0 <_svfprintf_r+0x1ac4>

   19234:	000e8613          	mv	a2,t4

   19238:	00000593          	li	a1,0

   1923c:	000d0513          	mv	a0,s10

   19240:	02d13c23          	sd	a3,56(sp)

   19244:	00613c23          	sd	t1,24(sp)

   19248:	01d13823          	sd	t4,16(sp)

   1924c:	a3cfe0ef          	jal	ra,17488 <memchr>

   19250:	02a13023          	sd	a0,32(sp)

   19254:	01013e83          	ld	t4,16(sp)

   19258:	01813303          	ld	t1,24(sp)

   1925c:	03813683          	ld	a3,56(sp)

   19260:	00051463          	bnez	a0,19268 <_svfprintf_r+0x46c>

   19264:	3a10106f          	j	1ae04 <_svfprintf_r+0x2008>

   19268:	02013783          	ld	a5,32(sp)

   1926c:	00d13823          	sd	a3,16(sp)

   19270:	02013023          	sd	zero,32(sp)

   19274:	41a78cbb          	subw	s9,a5,s10

   19278:	fffcca93          	not	s5,s9

   1927c:	0df14783          	lbu	a5,223(sp)

   19280:	43fada93          	srai	s5,s5,0x3f

   19284:	015cfab3          	and	s5,s9,s5

   19288:	04013c23          	sd	zero,88(sp)

   1928c:	06013423          	sd	zero,104(sp)

   19290:	06013023          	sd	zero,96(sp)

   19294:	000a8a9b          	sext.w	s5,s5

   19298:	00000e93          	li	t4,0

   1929c:	e40794e3          	bnez	a5,190e4 <_svfprintf_r+0x2e8>

   192a0:	1a00006f          	j	19440 <_svfprintf_r+0x644>

   192a4:	01013703          	ld	a4,16(sp)

   192a8:	01046813          	ori	a6,s0,16

   192ac:	0008041b          	sext.w	s0,a6

   192b0:	00870713          	addi	a4,a4,8

   192b4:	01013783          	ld	a5,16(sp)

   192b8:	0007ba83          	ld	s5,0(a5)

   192bc:	00e13823          	sd	a4,16(sp)

   192c0:	bff47813          	andi	a6,s0,-1025

   192c4:	0008081b          	sext.w	a6,a6

   192c8:	00000713          	li	a4,0

   192cc:	dc1ff06f          	j	1908c <_svfprintf_r+0x290>

   192d0:	00094483          	lbu	s1,0(s2)

   192d4:	06800793          	li	a5,104

   192d8:	00f49463          	bne	s1,a5,192e0 <_svfprintf_r+0x4e4>

   192dc:	0e40106f          	j	1a3c0 <_svfprintf_r+0x15c4>

   192e0:	04046413          	ori	s0,s0,64

   192e4:	0004041b          	sext.w	s0,s0

   192e8:	c6dff06f          	j	18f54 <_svfprintf_r+0x158>

   192ec:	01013703          	ld	a4,16(sp)

   192f0:	02047793          	andi	a5,s0,32

   192f4:	00870693          	addi	a3,a4,8

   192f8:	00078463          	beqz	a5,19300 <_svfprintf_r+0x504>

   192fc:	0500106f          	j	1a34c <_svfprintf_r+0x1550>

   19300:	01047793          	andi	a5,s0,16

   19304:	00078463          	beqz	a5,1930c <_svfprintf_r+0x510>

   19308:	0440106f          	j	1a34c <_svfprintf_r+0x1550>

   1930c:	04047793          	andi	a5,s0,64

   19310:	00079463          	bnez	a5,19318 <_svfprintf_r+0x51c>

   19314:	7100106f          	j	1aa24 <_svfprintf_r+0x1c28>

   19318:	01013783          	ld	a5,16(sp)

   1931c:	00040813          	mv	a6,s0

   19320:	00d13823          	sd	a3,16(sp)

   19324:	00079a83          	lh	s5,0(a5)

   19328:	000a8713          	mv	a4,s5

   1932c:	06074263          	bltz	a4,19390 <_svfprintf_r+0x594>

   19330:	fff00713          	li	a4,-1

   19334:	0aee80e3          	beq	t4,a4,19bd4 <_svfprintf_r+0xdd8>

   19338:	f7f87813          	andi	a6,a6,-129

   1933c:	0008041b          	sext.w	s0,a6

   19340:	080a98e3          	bnez	s5,19bd0 <_svfprintf_r+0xdd4>

   19344:	000e8463          	beqz	t4,1934c <_svfprintf_r+0x550>

   19348:	0bd0106f          	j	1ac04 <_svfprintf_r+0x1e08>

   1934c:	00000e93          	li	t4,0

   19350:	00000c93          	li	s9,0

   19354:	18c10d13          	addi	s10,sp,396

   19358:	d69ff06f          	j	190c0 <_svfprintf_r+0x2c4>

   1935c:	00846413          	ori	s0,s0,8

   19360:	0004041b          	sext.w	s0,s0

   19364:	00094483          	lbu	s1,0(s2)

   19368:	bedff06f          	j	18f54 <_svfprintf_r+0x158>

   1936c:	01013783          	ld	a5,16(sp)

   19370:	01046813          	ori	a6,s0,16

   19374:	0008081b          	sext.w	a6,a6

   19378:	00878693          	addi	a3,a5,8

   1937c:	01013783          	ld	a5,16(sp)

   19380:	0007b703          	ld	a4,0(a5)

   19384:	00d13823          	sd	a3,16(sp)

   19388:	00070a93          	mv	s5,a4

   1938c:	fa0752e3          	bgez	a4,19330 <_svfprintf_r+0x534>

   19390:	02d00713          	li	a4,45

   19394:	0ce10fa3          	sb	a4,223(sp)

   19398:	fff00693          	li	a3,-1

   1939c:	41500ab3          	neg	s5,s5

   193a0:	00100713          	li	a4,1

   193a4:	cede9ae3          	bne	t4,a3,19098 <_svfprintf_r+0x29c>

   193a8:	00100693          	li	a3,1

   193ac:	02d704e3          	beq	a4,a3,19bd4 <_svfprintf_r+0xdd8>

   193b0:	00200693          	li	a3,2

   193b4:	4ed70ae3          	beq	a4,a3,1a0a8 <_svfprintf_r+0x12ac>

   193b8:	18c10c93          	addi	s9,sp,396

   193bc:	000c8613          	mv	a2,s9

   193c0:	0080006f          	j	193c8 <_svfprintf_r+0x5cc>

   193c4:	000d0613          	mv	a2,s10

   193c8:	007af693          	andi	a3,s5,7

   193cc:	03068693          	addi	a3,a3,48

   193d0:	fed60fa3          	sb	a3,-1(a2)

   193d4:	003ada93          	srli	s5,s5,0x3

   193d8:	fff60d13          	addi	s10,a2,-1

   193dc:	fe0a94e3          	bnez	s5,193c4 <_svfprintf_r+0x5c8>

   193e0:	00187793          	andi	a5,a6,1

   193e4:	020780e3          	beqz	a5,19c04 <_svfprintf_r+0xe08>

   193e8:	03000793          	li	a5,48

   193ec:	00f68ce3          	beq	a3,a5,19c04 <_svfprintf_r+0xe08>

   193f0:	ffe60613          	addi	a2,a2,-2

   193f4:	fefd0fa3          	sb	a5,-1(s10)

   193f8:	40cc8cbb          	subw	s9,s9,a2

   193fc:	00080413          	mv	s0,a6

   19400:	00060d13          	mv	s10,a2

   19404:	cbdff06f          	j	190c0 <_svfprintf_r+0x2c4>

   19408:	01013703          	ld	a4,16(sp)

   1940c:	0c010fa3          	sb	zero,223(sp)

   19410:	00100a93          	li	s5,1

   19414:	00072783          	lw	a5,0(a4)

   19418:	00870713          	addi	a4,a4,8

   1941c:	00e13823          	sd	a4,16(sp)

   19420:	12f10423          	sb	a5,296(sp)

   19424:	00100c93          	li	s9,1

   19428:	12810d13          	addi	s10,sp,296

   1942c:	02013023          	sd	zero,32(sp)

   19430:	00000e93          	li	t4,0

   19434:	04013c23          	sd	zero,88(sp)

   19438:	06013423          	sd	zero,104(sp)

   1943c:	06013023          	sd	zero,96(sp)

   19440:	00247f13          	andi	t5,s0,2

   19444:	000f0f1b          	sext.w	t5,t5

   19448:	000f0463          	beqz	t5,19450 <_svfprintf_r+0x654>

   1944c:	002a8a9b          	addiw	s5,s5,2

   19450:	08447f93          	andi	t6,s0,132

   19454:	12013783          	ld	a5,288(sp)

   19458:	000f9663          	bnez	t6,19464 <_svfprintf_r+0x668>

   1945c:	415a083b          	subw	a6,s4,s5

   19460:	25004ce3          	bgtz	a6,19eb8 <_svfprintf_r+0x10bc>

   19464:	0df14683          	lbu	a3,223(sp)

   19468:	02068c63          	beqz	a3,194a0 <_svfprintf_r+0x6a4>

   1946c:	11812683          	lw	a3,280(sp)

   19470:	0df10613          	addi	a2,sp,223

   19474:	00c33023          	sd	a2,0(t1)

   19478:	0016869b          	addiw	a3,a3,1

   1947c:	00100613          	li	a2,1

   19480:	00178793          	addi	a5,a5,1

   19484:	00c33423          	sd	a2,8(t1)

   19488:	10d12c23          	sw	a3,280(sp)

   1948c:	0006861b          	sext.w	a2,a3

   19490:	12f13023          	sd	a5,288(sp)

   19494:	00700693          	li	a3,7

   19498:	01030313          	addi	t1,t1,16

   1949c:	0ec6c863          	blt	a3,a2,1958c <_svfprintf_r+0x790>

   194a0:	020f0c63          	beqz	t5,194d8 <_svfprintf_r+0x6dc>

   194a4:	11812683          	lw	a3,280(sp)

   194a8:	0e010613          	addi	a2,sp,224

   194ac:	00c33023          	sd	a2,0(t1)

   194b0:	0016869b          	addiw	a3,a3,1

   194b4:	00200613          	li	a2,2

   194b8:	00278793          	addi	a5,a5,2

   194bc:	00c33423          	sd	a2,8(t1)

   194c0:	10d12c23          	sw	a3,280(sp)

   194c4:	0006861b          	sext.w	a2,a3

   194c8:	12f13023          	sd	a5,288(sp)

   194cc:	00700693          	li	a3,7

   194d0:	01030313          	addi	t1,t1,16

   194d4:	2cc6cce3          	blt	a3,a2,19fac <_svfprintf_r+0x11b0>

   194d8:	08000693          	li	a3,128

   194dc:	04df8ce3          	beq	t6,a3,19d34 <_svfprintf_r+0xf38>

   194e0:	419e8ebb          	subw	t4,t4,s9

   194e4:	11d04ee3          	bgtz	t4,19e00 <_svfprintf_r+0x1004>

   194e8:	10047693          	andi	a3,s0,256

   194ec:	72069263          	bnez	a3,19c10 <_svfprintf_r+0xe14>

   194f0:	11812703          	lw	a4,280(sp)

   194f4:	019787b3          	add	a5,a5,s9

   194f8:	01a33023          	sd	s10,0(t1)

   194fc:	0017069b          	addiw	a3,a4,1

   19500:	01933423          	sd	s9,8(t1)

   19504:	12f13023          	sd	a5,288(sp)

   19508:	10d12c23          	sw	a3,280(sp)

   1950c:	00700713          	li	a4,7

   19510:	1cd74663          	blt	a4,a3,196dc <_svfprintf_r+0x8e0>

   19514:	01030313          	addi	t1,t1,16

   19518:	00447413          	andi	s0,s0,4

   1951c:	00040663          	beqz	s0,19528 <_svfprintf_r+0x72c>

   19520:	415a043b          	subw	s0,s4,s5

   19524:	2a804ee3          	bgtz	s0,19fe0 <_svfprintf_r+0x11e4>

   19528:	000a0713          	mv	a4,s4

   1952c:	015a5463          	bge	s4,s5,19534 <_svfprintf_r+0x738>

   19530:	000a8713          	mv	a4,s5

   19534:	00813683          	ld	a3,8(sp)

   19538:	00d7073b          	addw	a4,a4,a3

   1953c:	00e13423          	sd	a4,8(sp)

   19540:	a80792e3          	bnez	a5,18fc4 <_svfprintf_r+0x1c8>

   19544:	02013783          	ld	a5,32(sp)

   19548:	10012c23          	sw	zero,280(sp)

   1954c:	00078863          	beqz	a5,1955c <_svfprintf_r+0x760>

   19550:	02013583          	ld	a1,32(sp)

   19554:	000b0513          	mv	a0,s6

   19558:	b14fa0ef          	jal	ra,1386c <_free_r>

   1955c:	000b8313          	mv	t1,s7

   19560:	00090d13          	mv	s10,s2

   19564:	000d4783          	lbu	a5,0(s10)

   19568:	94079ce3          	bnez	a5,18ec0 <_svfprintf_r+0xc4>

   1956c:	12013783          	ld	a5,288(sp)

   19570:	a6078ee3          	beqz	a5,18fec <_svfprintf_r+0x1f0>

   19574:	11010613          	addi	a2,sp,272

   19578:	000c0593          	mv	a1,s8

   1957c:	000b0513          	mv	a0,s6

   19580:	6f0040ef          	jal	ra,1dc70 <__ssprint_r>

   19584:	010c5783          	lhu	a5,16(s8)

   19588:	a69ff06f          	j	18ff0 <_svfprintf_r+0x1f4>

   1958c:	11010613          	addi	a2,sp,272

   19590:	000c0593          	mv	a1,s8

   19594:	000b0513          	mv	a0,s6

   19598:	05d13023          	sd	t4,64(sp)

   1959c:	03f13c23          	sd	t6,56(sp)

   195a0:	01e13c23          	sd	t5,24(sp)

   195a4:	6cc040ef          	jal	ra,1dc70 <__ssprint_r>

   195a8:	a20518e3          	bnez	a0,18fd8 <_svfprintf_r+0x1dc>

   195ac:	12013783          	ld	a5,288(sp)

   195b0:	000b8313          	mv	t1,s7

   195b4:	04013e83          	ld	t4,64(sp)

   195b8:	03813f83          	ld	t6,56(sp)

   195bc:	01813f03          	ld	t5,24(sp)

   195c0:	ee1ff06f          	j	194a0 <_svfprintf_r+0x6a4>

   195c4:	11812e83          	lw	t4,280(sp)

   195c8:	02813703          	ld	a4,40(sp)

   195cc:	00178c93          	addi	s9,a5,1

   195d0:	00100613          	li	a2,1

   195d4:	001e879b          	addiw	a5,t4,1

   195d8:	01a33023          	sd	s10,0(t1)

   195dc:	00078693          	mv	a3,a5

   195e0:	01030493          	addi	s1,t1,16

   195e4:	46e654e3          	bge	a2,a4,1a24c <_svfprintf_r+0x1450>

   195e8:	00100613          	li	a2,1

   195ec:	10d12c23          	sw	a3,280(sp)

   195f0:	00c33423          	sd	a2,8(t1)

   195f4:	13913023          	sd	s9,288(sp)

   195f8:	00700693          	li	a3,7

   195fc:	4ef6c8e3          	blt	a3,a5,1a2ec <_svfprintf_r+0x14f0>

   19600:	0017869b          	addiw	a3,a5,1

   19604:	07813783          	ld	a5,120(sp)

   19608:	08013703          	ld	a4,128(sp)

   1960c:	10d12c23          	sw	a3,280(sp)

   19610:	00fc8cb3          	add	s9,s9,a5

   19614:	00f4b423          	sd	a5,8(s1)

   19618:	00e4b023          	sd	a4,0(s1)

   1961c:	0006879b          	sext.w	a5,a3

   19620:	13913023          	sd	s9,288(sp)

   19624:	00700693          	li	a3,7

   19628:	01048493          	addi	s1,s1,16

   1962c:	4ef6c4e3          	blt	a3,a5,1a314 <_svfprintf_r+0x1518>

   19630:	0017889b          	addiw	a7,a5,1

   19634:	04f13823          	sd	a5,80(sp)

   19638:	02813783          	ld	a5,40(sp)

   1963c:	10013503          	ld	a0,256(sp)

   19640:	10813583          	ld	a1,264(sp)

   19644:	00088e9b          	sext.w	t4,a7

   19648:	01048313          	addi	t1,s1,16

   1964c:	fff7881b          	addiw	a6,a5,-1

   19650:	00000613          	li	a2,0

   19654:	00000693          	li	a3,0

   19658:	05113423          	sd	a7,72(sp)

   1965c:	05d13023          	sd	t4,64(sp)

   19660:	02613c23          	sd	t1,56(sp)

   19664:	01013c23          	sd	a6,24(sp)

   19668:	001060ef          	jal	ra,1fe68 <__eqtf2>

   1966c:	01813803          	ld	a6,24(sp)

   19670:	03813303          	ld	t1,56(sp)

   19674:	04013e83          	ld	t4,64(sp)

   19678:	04813883          	ld	a7,72(sp)

   1967c:	3e050ce3          	beqz	a0,1a274 <_svfprintf_r+0x1478>

   19680:	001d0713          	addi	a4,s10,1

   19684:	010c8cb3          	add	s9,s9,a6

   19688:	00e4b023          	sd	a4,0(s1)

   1968c:	0104b423          	sd	a6,8(s1)

   19690:	13913023          	sd	s9,288(sp)

   19694:	11112c23          	sw	a7,280(sp)

   19698:	00700713          	li	a4,7

   1969c:	01d75463          	bge	a4,t4,196a4 <_svfprintf_r+0x8a8>

   196a0:	7a10006f          	j	1a640 <_svfprintf_r+0x1844>

   196a4:	05013783          	ld	a5,80(sp)

   196a8:	02048713          	addi	a4,s1,32

   196ac:	00030493          	mv	s1,t1

   196b0:	00278e9b          	addiw	t4,a5,2

   196b4:	00070313          	mv	t1,a4

   196b8:	09013683          	ld	a3,144(sp)

   196bc:	0f010713          	addi	a4,sp,240

   196c0:	00e4b023          	sd	a4,0(s1)

   196c4:	019687b3          	add	a5,a3,s9

   196c8:	00d4b423          	sd	a3,8(s1)

   196cc:	12f13023          	sd	a5,288(sp)

   196d0:	11d12c23          	sw	t4,280(sp)

   196d4:	00700713          	li	a4,7

   196d8:	e5d750e3          	bge	a4,t4,19518 <_svfprintf_r+0x71c>

   196dc:	11010613          	addi	a2,sp,272

   196e0:	000c0593          	mv	a1,s8

   196e4:	000b0513          	mv	a0,s6

   196e8:	588040ef          	jal	ra,1dc70 <__ssprint_r>

   196ec:	8e0516e3          	bnez	a0,18fd8 <_svfprintf_r+0x1dc>

   196f0:	12013783          	ld	a5,288(sp)

   196f4:	000b8313          	mv	t1,s7

   196f8:	e21ff06f          	j	19518 <_svfprintf_r+0x71c>

   196fc:	02b00793          	li	a5,43

   19700:	0cf10fa3          	sb	a5,223(sp)

   19704:	00094483          	lbu	s1,0(s2)

   19708:	84dff06f          	j	18f54 <_svfprintf_r+0x158>

   1970c:	01013783          	ld	a5,16(sp)

   19710:	00094483          	lbu	s1,0(s2)

   19714:	0007aa03          	lw	s4,0(a5)

   19718:	00878793          	addi	a5,a5,8

   1971c:	00f13823          	sd	a5,16(sp)

   19720:	820a5ae3          	bgez	s4,18f54 <_svfprintf_r+0x158>

   19724:	41400a3b          	negw	s4,s4

   19728:	a65ff06f          	j	1918c <_svfprintf_r+0x390>

   1972c:	000b0513          	mv	a0,s6

   19730:	02613023          	sd	t1,32(sp)

   19734:	01d13c23          	sd	t4,24(sp)

   19738:	9ecfd0ef          	jal	ra,16924 <_localeconv_r>

   1973c:	00853783          	ld	a5,8(a0)

   19740:	00078513          	mv	a0,a5

   19744:	08f13c23          	sd	a5,152(sp)

   19748:	d14ff0ef          	jal	ra,18c5c <strlen>

   1974c:	00050493          	mv	s1,a0

   19750:	08a13423          	sd	a0,136(sp)

   19754:	000b0513          	mv	a0,s6

   19758:	9ccfd0ef          	jal	ra,16924 <_localeconv_r>

   1975c:	01053703          	ld	a4,16(a0)

   19760:	00048793          	mv	a5,s1

   19764:	01813e83          	ld	t4,24(sp)

   19768:	06e13823          	sd	a4,112(sp)

   1976c:	02013303          	ld	t1,32(sp)

   19770:	00094483          	lbu	s1,0(s2)

   19774:	fe078063          	beqz	a5,18f54 <_svfprintf_r+0x158>

   19778:	fc070e63          	beqz	a4,18f54 <_svfprintf_r+0x158>

   1977c:	00074783          	lbu	a5,0(a4)

   19780:	fc078a63          	beqz	a5,18f54 <_svfprintf_r+0x158>

   19784:	40046413          	ori	s0,s0,1024

   19788:	0004041b          	sext.w	s0,s0

   1978c:	fc8ff06f          	j	18f54 <_svfprintf_r+0x158>

   19790:	00146413          	ori	s0,s0,1

   19794:	0004041b          	sext.w	s0,s0

   19798:	00094483          	lbu	s1,0(s2)

   1979c:	fb8ff06f          	j	18f54 <_svfprintf_r+0x158>

   197a0:	0df14783          	lbu	a5,223(sp)

   197a4:	00094483          	lbu	s1,0(s2)

   197a8:	fa079663          	bnez	a5,18f54 <_svfprintf_r+0x158>

   197ac:	02000793          	li	a5,32

   197b0:	0cf10fa3          	sb	a5,223(sp)

   197b4:	fa0ff06f          	j	18f54 <_svfprintf_r+0x158>

   197b8:	01013703          	ld	a4,16(sp)

   197bc:	02047793          	andi	a5,s0,32

   197c0:	00870693          	addi	a3,a4,8

   197c4:	3a079ce3          	bnez	a5,1a37c <_svfprintf_r+0x1580>

   197c8:	01047793          	andi	a5,s0,16

   197cc:	3a0798e3          	bnez	a5,1a37c <_svfprintf_r+0x1580>

   197d0:	01013783          	ld	a5,16(sp)

   197d4:	04047713          	andi	a4,s0,64

   197d8:	0007a783          	lw	a5,0(a5)

   197dc:	00071463          	bnez	a4,197e4 <_svfprintf_r+0x9e8>

   197e0:	2280106f          	j	1aa08 <_svfprintf_r+0x1c0c>

   197e4:	03079a93          	slli	s5,a5,0x30

   197e8:	030ada93          	srli	s5,s5,0x30

   197ec:	00d13823          	sd	a3,16(sp)

   197f0:	00040813          	mv	a6,s0

   197f4:	00100713          	li	a4,1

   197f8:	895ff06f          	j	1908c <_svfprintf_r+0x290>

   197fc:	02046413          	ori	s0,s0,32

   19800:	0004041b          	sext.w	s0,s0

   19804:	00094483          	lbu	s1,0(s2)

   19808:	f4cff06f          	j	18f54 <_svfprintf_r+0x158>

   1980c:	01013783          	ld	a5,16(sp)

   19810:	ffff8737          	lui	a4,0xffff8

   19814:	83074713          	xori	a4,a4,-2000

   19818:	0007ba83          	ld	s5,0(a5)

   1981c:	00878793          	addi	a5,a5,8

   19820:	00246813          	ori	a6,s0,2

   19824:	00f13823          	sd	a5,16(sp)

   19828:	00008797          	auipc	a5,0x8

   1982c:	60878793          	addi	a5,a5,1544 # 21e30 <zeroes.4541+0x60>

   19830:	0ee11023          	sh	a4,224(sp)

   19834:	0008081b          	sext.w	a6,a6

   19838:	02f13823          	sd	a5,48(sp)

   1983c:	00200713          	li	a4,2

   19840:	07800493          	li	s1,120

   19844:	849ff06f          	j	1908c <_svfprintf_r+0x290>

   19848:	01013703          	ld	a4,16(sp)

   1984c:	02047793          	andi	a5,s0,32

   19850:	00870713          	addi	a4,a4,8 # ffffffffffff8008 <__BSS_END__+0xfffffffffffd3548>

   19854:	a60790e3          	bnez	a5,192b4 <_svfprintf_r+0x4b8>

   19858:	01047793          	andi	a5,s0,16

   1985c:	a4079ce3          	bnez	a5,192b4 <_svfprintf_r+0x4b8>

   19860:	01013783          	ld	a5,16(sp)

   19864:	04047693          	andi	a3,s0,64

   19868:	0007a783          	lw	a5,0(a5)

   1986c:	00069463          	bnez	a3,19874 <_svfprintf_r+0xa78>

   19870:	1840106f          	j	1a9f4 <_svfprintf_r+0x1bf8>

   19874:	03079a93          	slli	s5,a5,0x30

   19878:	030ada93          	srli	s5,s5,0x30

   1987c:	00e13823          	sd	a4,16(sp)

   19880:	a41ff06f          	j	192c0 <_svfprintf_r+0x4c4>

   19884:	01013683          	ld	a3,16(sp)

   19888:	02047793          	andi	a5,s0,32

   1988c:	0006b703          	ld	a4,0(a3)

   19890:	00868693          	addi	a3,a3,8

   19894:	00d13823          	sd	a3,16(sp)

   19898:	32079463          	bnez	a5,19bc0 <_svfprintf_r+0xdc4>

   1989c:	01047793          	andi	a5,s0,16

   198a0:	32079063          	bnez	a5,19bc0 <_svfprintf_r+0xdc4>

   198a4:	04047793          	andi	a5,s0,64

   198a8:	00078463          	beqz	a5,198b0 <_svfprintf_r+0xab4>

   198ac:	2c80106f          	j	1ab74 <_svfprintf_r+0x1d78>

   198b0:	20047413          	andi	s0,s0,512

   198b4:	00813783          	ld	a5,8(sp)

   198b8:	00041463          	bnez	s0,198c0 <_svfprintf_r+0xac4>

   198bc:	1f10106f          	j	1b2ac <_svfprintf_r+0x24b0>

   198c0:	00f70023          	sb	a5,0(a4)

   198c4:	00090d13          	mv	s10,s2

   198c8:	c9dff06f          	j	19564 <_svfprintf_r+0x768>

   198cc:	00094483          	lbu	s1,0(s2)

   198d0:	06c00793          	li	a5,108

   198d4:	30f480e3          	beq	s1,a5,1a3d4 <_svfprintf_r+0x15d8>

   198d8:	01046413          	ori	s0,s0,16

   198dc:	0004041b          	sext.w	s0,s0

   198e0:	e74ff06f          	j	18f54 <_svfprintf_r+0x158>

   198e4:	00847793          	andi	a5,s0,8

   198e8:	260796e3          	bnez	a5,1a354 <_svfprintf_r+0x1558>

   198ec:	01013783          	ld	a5,16(sp)

   198f0:	02613023          	sd	t1,32(sp)

   198f4:	01d13c23          	sd	t4,24(sp)

   198f8:	0007b503          	ld	a0,0(a5)

   198fc:	00878793          	addi	a5,a5,8

   19900:	00f13823          	sd	a5,16(sp)

   19904:	4f9070ef          	jal	ra,215fc <__extenddftf2>

   19908:	02013303          	ld	t1,32(sp)

   1990c:	01813e83          	ld	t4,24(sp)

   19910:	10a13023          	sd	a0,256(sp)

   19914:	10b13423          	sd	a1,264(sp)

   19918:	10010513          	addi	a0,sp,256

   1991c:	02613023          	sd	t1,32(sp)

   19920:	01d13c23          	sd	t4,24(sp)

   19924:	fa5fc0ef          	jal	ra,168c8 <_ldcheck>

   19928:	0ea12423          	sw	a0,232(sp)

   1992c:	00200793          	li	a5,2

   19930:	01813e83          	ld	t4,24(sp)

   19934:	02013303          	ld	t1,32(sp)

   19938:	72f502e3          	beq	a0,a5,1a85c <_svfprintf_r+0x1a60>

   1993c:	00100793          	li	a5,1

   19940:	00f51463          	bne	a0,a5,19948 <_svfprintf_r+0xb4c>

   19944:	1000106f          	j	1aa44 <_svfprintf_r+0x1c48>

   19948:	06100793          	li	a5,97

   1994c:	00f49463          	bne	s1,a5,19954 <_svfprintf_r+0xb58>

   19950:	13d0106f          	j	1b28c <_svfprintf_r+0x2490>

   19954:	04100793          	li	a5,65

   19958:	00f49463          	bne	s1,a5,19960 <_svfprintf_r+0xb64>

   1995c:	5800106f          	j	1aedc <_svfprintf_r+0x20e0>

   19960:	fdf4f713          	andi	a4,s1,-33

   19964:	fff00793          	li	a5,-1

   19968:	0ae13423          	sd	a4,168(sp)

   1996c:	00fe9463          	bne	t4,a5,19974 <_svfprintf_r+0xb78>

   19970:	28c0106f          	j	1abfc <_svfprintf_r+0x1e00>

   19974:	04700793          	li	a5,71

   19978:	00f71463          	bne	a4,a5,19980 <_svfprintf_r+0xb84>

   1997c:	1210106f          	j	1b29c <_svfprintf_r+0x24a0>

   19980:	10813c83          	ld	s9,264(sp)

   19984:	10046793          	ori	a5,s0,256

   19988:	0a813823          	sd	s0,176(sp)

   1998c:	0007879b          	sext.w	a5,a5

   19990:	10013f03          	ld	t5,256(sp)

   19994:	000cd463          	bgez	s9,1999c <_svfprintf_r+0xba0>

   19998:	7b80106f          	j	1b150 <_svfprintf_r+0x2354>

   1999c:	0c013423          	sd	zero,200(sp)

   199a0:	00078413          	mv	s0,a5

   199a4:	02013023          	sd	zero,32(sp)

   199a8:	0a813703          	ld	a4,168(sp)

   199ac:	04600793          	li	a5,70

   199b0:	00f71463          	bne	a4,a5,199b8 <_svfprintf_r+0xbbc>

   199b4:	2f80106f          	j	1acac <_svfprintf_r+0x1eb0>

   199b8:	04500793          	li	a5,69

   199bc:	02613c23          	sd	t1,56(sp)

   199c0:	00f71463          	bne	a4,a5,199c8 <_svfprintf_r+0xbcc>

   199c4:	0390106f          	j	1b1fc <_svfprintf_r+0x2400>

   199c8:	000e8713          	mv	a4,t4

   199cc:	0e810793          	addi	a5,sp,232

   199d0:	000f0593          	mv	a1,t5

   199d4:	0f810893          	addi	a7,sp,248

   199d8:	0ec10813          	addi	a6,sp,236

   199dc:	00200693          	li	a3,2

   199e0:	000c8613          	mv	a2,s9

   199e4:	000b0513          	mv	a0,s6

   199e8:	03d13423          	sd	t4,40(sp)

   199ec:	01e13c23          	sd	t5,24(sp)

   199f0:	bc1fb0ef          	jal	ra,155b0 <_ldtoa_r>

   199f4:	0a813703          	ld	a4,168(sp)

   199f8:	04700793          	li	a5,71

   199fc:	00050d13          	mv	s10,a0

   19a00:	01813f03          	ld	t5,24(sp)

   19a04:	02813e83          	ld	t4,40(sp)

   19a08:	03813303          	ld	t1,56(sp)

   19a0c:	00f70463          	beq	a4,a5,19a14 <_svfprintf_r+0xc18>

   19a10:	29d0106f          	j	1b4ac <_svfprintf_r+0x26b0>

   19a14:	0b013783          	ld	a5,176(sp)

   19a18:	01d50ab3          	add	s5,a0,t4

   19a1c:	0017f793          	andi	a5,a5,1

   19a20:	00078463          	beqz	a5,19a28 <_svfprintf_r+0xc2c>

   19a24:	2e00106f          	j	1ad04 <_svfprintf_r+0x1f08>

   19a28:	0f813783          	ld	a5,248(sp)

   19a2c:	41a787bb          	subw	a5,a5,s10

   19a30:	02f13423          	sd	a5,40(sp)

   19a34:	0e812703          	lw	a4,232(sp)

   19a38:	04700793          	li	a5,71

   19a3c:	06e13023          	sd	a4,96(sp)

   19a40:	0a813703          	ld	a4,168(sp)

   19a44:	00f71463          	bne	a4,a5,19a4c <_svfprintf_r+0xc50>

   19a48:	1d80106f          	j	1ac20 <_svfprintf_r+0x1e24>

   19a4c:	0a813703          	ld	a4,168(sp)

   19a50:	04600793          	li	a5,70

   19a54:	00f71463          	bne	a4,a5,19a5c <_svfprintf_r+0xc60>

   19a58:	4080106f          	j	1ae60 <_svfprintf_r+0x2064>

   19a5c:	06013783          	ld	a5,96(sp)

   19a60:	0a813703          	ld	a4,168(sp)

   19a64:	04100693          	li	a3,65

   19a68:	fff78a9b          	addiw	s5,a5,-1

   19a6c:	0f512423          	sw	s5,232(sp)

   19a70:	0ff4f793          	andi	a5,s1,255

   19a74:	00000613          	li	a2,0

   19a78:	00d71863          	bne	a4,a3,19a88 <_svfprintf_r+0xc8c>

   19a7c:	00f7879b          	addiw	a5,a5,15

   19a80:	0ff7f793          	andi	a5,a5,255

   19a84:	00100613          	li	a2,1

   19a88:	0ef10823          	sb	a5,240(sp)

   19a8c:	02b00793          	li	a5,43

   19a90:	000ada63          	bgez	s5,19aa4 <_svfprintf_r+0xca8>

   19a94:	06013703          	ld	a4,96(sp)

   19a98:	00100793          	li	a5,1

   19a9c:	40e78abb          	subw	s5,a5,a4

   19aa0:	02d00793          	li	a5,45

   19aa4:	0ef108a3          	sb	a5,241(sp)

   19aa8:	00900793          	li	a5,9

   19aac:	0157c463          	blt	a5,s5,19ab4 <_svfprintf_r+0xcb8>

   19ab0:	01d0106f          	j	1b2cc <_svfprintf_r+0x24d0>

   19ab4:	0ff10413          	addi	s0,sp,255

   19ab8:	00040c93          	mv	s9,s0

   19abc:	00c0006f          	j	19ac8 <_svfprintf_r+0xccc>

   19ac0:	00060c93          	mv	s9,a2

   19ac4:	00050a93          	mv	s5,a0

   19ac8:	00a00593          	li	a1,10

   19acc:	000a8513          	mv	a0,s5

   19ad0:	00613c23          	sd	t1,24(sp)

   19ad4:	028080ef          	jal	ra,21afc <__moddi3>

   19ad8:	0305051b          	addiw	a0,a0,48

   19adc:	feac8fa3          	sb	a0,-1(s9)

   19ae0:	00a00593          	li	a1,10

   19ae4:	000a8513          	mv	a0,s5

   19ae8:	791070ef          	jal	ra,21a78 <__divdi3>

   19aec:	06300793          	li	a5,99

   19af0:	fffc8613          	addi	a2,s9,-1

   19af4:	0005051b          	sext.w	a0,a0

   19af8:	01813303          	ld	t1,24(sp)

   19afc:	fd57c2e3          	blt	a5,s5,19ac0 <_svfprintf_r+0xcc4>

   19b00:	0305079b          	addiw	a5,a0,48

   19b04:	0ff7f793          	andi	a5,a5,255

   19b08:	ffec8693          	addi	a3,s9,-2

   19b0c:	fef60fa3          	sb	a5,-1(a2)

   19b10:	0086e463          	bltu	a3,s0,19b18 <_svfprintf_r+0xd1c>

   19b14:	18d0106f          	j	1b4a0 <_svfprintf_r+0x26a4>

   19b18:	0f210613          	addi	a2,sp,242

   19b1c:	0080006f          	j	19b24 <_svfprintf_r+0xd28>

   19b20:	0006c783          	lbu	a5,0(a3)

   19b24:	00160613          	addi	a2,a2,1

   19b28:	00168693          	addi	a3,a3,1

   19b2c:	fef60fa3          	sb	a5,-1(a2)

   19b30:	fe8698e3          	bne	a3,s0,19b20 <_svfprintf_r+0xd24>

   19b34:	10110793          	addi	a5,sp,257

   19b38:	419787b3          	sub	a5,a5,s9

   19b3c:	0f210713          	addi	a4,sp,242

   19b40:	00f707b3          	add	a5,a4,a5

   19b44:	0f010693          	addi	a3,sp,240

   19b48:	40d787bb          	subw	a5,a5,a3

   19b4c:	08f13823          	sd	a5,144(sp)

   19b50:	09013783          	ld	a5,144(sp)

   19b54:	02813703          	ld	a4,40(sp)

   19b58:	00100693          	li	a3,1

   19b5c:	00f70cbb          	addw	s9,a4,a5

   19b60:	000c8793          	mv	a5,s9

   19b64:	00e6c463          	blt	a3,a4,19b6c <_svfprintf_r+0xd70>

   19b68:	0bd0106f          	j	1b424 <_svfprintf_r+0x2628>

   19b6c:	07813703          	ld	a4,120(sp)

   19b70:	00e78cbb          	addw	s9,a5,a4

   19b74:	0b013783          	ld	a5,176(sp)

   19b78:	fffcca93          	not	s5,s9

   19b7c:	43fada93          	srai	s5,s5,0x3f

   19b80:	bff7f413          	andi	s0,a5,-1025

   19b84:	0004041b          	sext.w	s0,s0

   19b88:	015cfab3          	and	s5,s9,s5

   19b8c:	10046413          	ori	s0,s0,256

   19b90:	000a8a9b          	sext.w	s5,s5

   19b94:	04013c23          	sd	zero,88(sp)

   19b98:	06013423          	sd	zero,104(sp)

   19b9c:	06013023          	sd	zero,96(sp)

   19ba0:	0c813783          	ld	a5,200(sp)

   19ba4:	00079463          	bnez	a5,19bac <_svfprintf_r+0xdb0>

   19ba8:	0f00106f          	j	1ac98 <_svfprintf_r+0x1e9c>

   19bac:	02d00793          	li	a5,45

   19bb0:	0cf10fa3          	sb	a5,223(sp)

   19bb4:	00000e93          	li	t4,0

   19bb8:	001a8a9b          	addiw	s5,s5,1

   19bbc:	885ff06f          	j	19440 <_svfprintf_r+0x644>

   19bc0:	00813783          	ld	a5,8(sp)

   19bc4:	00090d13          	mv	s10,s2

   19bc8:	00f73023          	sd	a5,0(a4)

   19bcc:	999ff06f          	j	19564 <_svfprintf_r+0x768>

   19bd0:	00040813          	mv	a6,s0

   19bd4:	00900713          	li	a4,9

   19bd8:	375766e3          	bltu	a4,s5,1a744 <_svfprintf_r+0x1948>

   19bdc:	030a879b          	addiw	a5,s5,48

   19be0:	18f105a3          	sb	a5,395(sp)

   19be4:	00080413          	mv	s0,a6

   19be8:	00100c93          	li	s9,1

   19bec:	18b10d13          	addi	s10,sp,395

   19bf0:	cd0ff06f          	j	190c0 <_svfprintf_r+0x2c4>

   19bf4:	0ff00793          	li	a5,255

   19bf8:	3af686e3          	beq	a3,a5,1a7a4 <_svfprintf_r+0x19a8>

   19bfc:	00900793          	li	a5,9

   19c00:	6f57e4e3          	bltu	a5,s5,1aae8 <_svfprintf_r+0x1cec>

   19c04:	41ac8cbb          	subw	s9,s9,s10

   19c08:	00080413          	mv	s0,a6

   19c0c:	cb4ff06f          	j	190c0 <_svfprintf_r+0x2c4>

   19c10:	06500693          	li	a3,101

   19c14:	9a96d8e3          	bge	a3,s1,195c4 <_svfprintf_r+0x7c8>

   19c18:	10013503          	ld	a0,256(sp)

   19c1c:	10813583          	ld	a1,264(sp)

   19c20:	00000613          	li	a2,0

   19c24:	00000693          	li	a3,0

   19c28:	02613c23          	sd	t1,56(sp)

   19c2c:	00f13c23          	sd	a5,24(sp)

   19c30:	238060ef          	jal	ra,1fe68 <__eqtf2>

   19c34:	01813783          	ld	a5,24(sp)

   19c38:	03813303          	ld	t1,56(sp)

   19c3c:	4a051063          	bnez	a0,1a0dc <_svfprintf_r+0x12e0>

   19c40:	11812703          	lw	a4,280(sp)

   19c44:	00008697          	auipc	a3,0x8

   19c48:	22468693          	addi	a3,a3,548 # 21e68 <zeroes.4541+0x98>

   19c4c:	00178793          	addi	a5,a5,1

   19c50:	0017071b          	addiw	a4,a4,1

   19c54:	00d33023          	sd	a3,0(t1)

   19c58:	00100693          	li	a3,1

   19c5c:	00d33423          	sd	a3,8(t1)

   19c60:	12f13023          	sd	a5,288(sp)

   19c64:	0007069b          	sext.w	a3,a4

   19c68:	10e12c23          	sw	a4,280(sp)

   19c6c:	00700793          	li	a5,7

   19c70:	01030313          	addi	t1,t1,16

   19c74:	36d7c2e3          	blt	a5,a3,1a7d8 <_svfprintf_r+0x19dc>

   19c78:	0e812783          	lw	a5,232(sp)

   19c7c:	02813703          	ld	a4,40(sp)

   19c80:	00e7ca63          	blt	a5,a4,19c94 <_svfprintf_r+0xe98>

   19c84:	00147793          	andi	a5,s0,1

   19c88:	00079663          	bnez	a5,19c94 <_svfprintf_r+0xe98>

   19c8c:	12013783          	ld	a5,288(sp)

   19c90:	889ff06f          	j	19518 <_svfprintf_r+0x71c>

   19c94:	08013783          	ld	a5,128(sp)

   19c98:	07813683          	ld	a3,120(sp)

   19c9c:	11812703          	lw	a4,280(sp)

   19ca0:	00f33023          	sd	a5,0(t1)

   19ca4:	12013783          	ld	a5,288(sp)

   19ca8:	0017071b          	addiw	a4,a4,1

   19cac:	00d33423          	sd	a3,8(t1)

   19cb0:	00f687b3          	add	a5,a3,a5

   19cb4:	10e12c23          	sw	a4,280(sp)

   19cb8:	0007069b          	sext.w	a3,a4

   19cbc:	12f13023          	sd	a5,288(sp)

   19cc0:	00700713          	li	a4,7

   19cc4:	01030313          	addi	t1,t1,16

   19cc8:	6cd74a63          	blt	a4,a3,1a39c <_svfprintf_r+0x15a0>

   19ccc:	02813703          	ld	a4,40(sp)

   19cd0:	fff7049b          	addiw	s1,a4,-1

   19cd4:	849052e3          	blez	s1,19518 <_svfprintf_r+0x71c>

   19cd8:	11812703          	lw	a4,280(sp)

   19cdc:	309ddee3          	bge	s11,s1,1a7f8 <_svfprintf_r+0x19fc>

   19ce0:	00700c93          	li	s9,7

   19ce4:	00c0006f          	j	19cf0 <_svfprintf_r+0xef4>

   19ce8:	ff04849b          	addiw	s1,s1,-16

   19cec:	309dd6e3          	bge	s11,s1,1a7f8 <_svfprintf_r+0x19fc>

   19cf0:	0017071b          	addiw	a4,a4,1

   19cf4:	01078793          	addi	a5,a5,16

   19cf8:	01333023          	sd	s3,0(t1)

   19cfc:	01b33423          	sd	s11,8(t1)

   19d00:	12f13023          	sd	a5,288(sp)

   19d04:	10e12c23          	sw	a4,280(sp)

   19d08:	01030313          	addi	t1,t1,16

   19d0c:	fcecdee3          	bge	s9,a4,19ce8 <_svfprintf_r+0xeec>

   19d10:	11010613          	addi	a2,sp,272

   19d14:	000c0593          	mv	a1,s8

   19d18:	000b0513          	mv	a0,s6

   19d1c:	755030ef          	jal	ra,1dc70 <__ssprint_r>

   19d20:	aa051c63          	bnez	a0,18fd8 <_svfprintf_r+0x1dc>

   19d24:	12013783          	ld	a5,288(sp)

   19d28:	11812703          	lw	a4,280(sp)

   19d2c:	000b8313          	mv	t1,s7

   19d30:	fb9ff06f          	j	19ce8 <_svfprintf_r+0xeec>

   19d34:	415a083b          	subw	a6,s4,s5

   19d38:	fb005463          	blez	a6,194e0 <_svfprintf_r+0x6e4>

   19d3c:	11812683          	lw	a3,280(sp)

   19d40:	070dd863          	bge	s11,a6,19db0 <_svfprintf_r+0xfb4>

   19d44:	00700893          	li	a7,7

   19d48:	00c0006f          	j	19d54 <_svfprintf_r+0xf58>

   19d4c:	ff08081b          	addiw	a6,a6,-16

   19d50:	070dd063          	bge	s11,a6,19db0 <_svfprintf_r+0xfb4>

   19d54:	0016869b          	addiw	a3,a3,1

   19d58:	01078793          	addi	a5,a5,16

   19d5c:	01333023          	sd	s3,0(t1)

   19d60:	01b33423          	sd	s11,8(t1)

   19d64:	12f13023          	sd	a5,288(sp)

   19d68:	10d12c23          	sw	a3,280(sp)

   19d6c:	01030313          	addi	t1,t1,16

   19d70:	fcd8dee3          	bge	a7,a3,19d4c <_svfprintf_r+0xf50>

   19d74:	11010613          	addi	a2,sp,272

   19d78:	000c0593          	mv	a1,s8

   19d7c:	000b0513          	mv	a0,s6

   19d80:	03013c23          	sd	a6,56(sp)

   19d84:	01d13c23          	sd	t4,24(sp)

   19d88:	6e9030ef          	jal	ra,1dc70 <__ssprint_r>

   19d8c:	a4051663          	bnez	a0,18fd8 <_svfprintf_r+0x1dc>

   19d90:	03813803          	ld	a6,56(sp)

   19d94:	12013783          	ld	a5,288(sp)

   19d98:	11812683          	lw	a3,280(sp)

   19d9c:	ff08081b          	addiw	a6,a6,-16

   19da0:	000b8313          	mv	t1,s7

   19da4:	00700893          	li	a7,7

   19da8:	01813e83          	ld	t4,24(sp)

   19dac:	fb0dc4e3          	blt	s11,a6,19d54 <_svfprintf_r+0xf58>

   19db0:	0016861b          	addiw	a2,a3,1

   19db4:	010787b3          	add	a5,a5,a6

   19db8:	01333023          	sd	s3,0(t1)

   19dbc:	01033423          	sd	a6,8(t1)

   19dc0:	12f13023          	sd	a5,288(sp)

   19dc4:	10c12c23          	sw	a2,280(sp)

   19dc8:	00700693          	li	a3,7

   19dcc:	01030313          	addi	t1,t1,16

   19dd0:	f0c6d863          	bge	a3,a2,194e0 <_svfprintf_r+0x6e4>

   19dd4:	11010613          	addi	a2,sp,272

   19dd8:	000c0593          	mv	a1,s8

   19ddc:	000b0513          	mv	a0,s6

   19de0:	01d13c23          	sd	t4,24(sp)

   19de4:	68d030ef          	jal	ra,1dc70 <__ssprint_r>

   19de8:	9e051863          	bnez	a0,18fd8 <_svfprintf_r+0x1dc>

   19dec:	01813e83          	ld	t4,24(sp)

   19df0:	12013783          	ld	a5,288(sp)

   19df4:	000b8313          	mv	t1,s7

   19df8:	419e8ebb          	subw	t4,t4,s9

   19dfc:	efd05663          	blez	t4,194e8 <_svfprintf_r+0x6ec>

   19e00:	11812683          	lw	a3,280(sp)

   19e04:	07ddd463          	bge	s11,t4,19e6c <_svfprintf_r+0x1070>

   19e08:	00700813          	li	a6,7

   19e0c:	00c0006f          	j	19e18 <_svfprintf_r+0x101c>

   19e10:	ff0e8e9b          	addiw	t4,t4,-16

   19e14:	05dddc63          	bge	s11,t4,19e6c <_svfprintf_r+0x1070>

   19e18:	0016869b          	addiw	a3,a3,1

   19e1c:	01078793          	addi	a5,a5,16

   19e20:	01333023          	sd	s3,0(t1)

   19e24:	01b33423          	sd	s11,8(t1)

   19e28:	12f13023          	sd	a5,288(sp)

   19e2c:	10d12c23          	sw	a3,280(sp)

   19e30:	01030313          	addi	t1,t1,16

   19e34:	fcd85ee3          	bge	a6,a3,19e10 <_svfprintf_r+0x1014>

   19e38:	11010613          	addi	a2,sp,272

   19e3c:	000c0593          	mv	a1,s8

   19e40:	000b0513          	mv	a0,s6

   19e44:	01d13c23          	sd	t4,24(sp)

   19e48:	629030ef          	jal	ra,1dc70 <__ssprint_r>

   19e4c:	98051663          	bnez	a0,18fd8 <_svfprintf_r+0x1dc>

   19e50:	01813e83          	ld	t4,24(sp)

   19e54:	12013783          	ld	a5,288(sp)

   19e58:	11812683          	lw	a3,280(sp)

   19e5c:	ff0e8e9b          	addiw	t4,t4,-16

   19e60:	000b8313          	mv	t1,s7

   19e64:	00700813          	li	a6,7

   19e68:	fbddc8e3          	blt	s11,t4,19e18 <_svfprintf_r+0x101c>

   19e6c:	0016861b          	addiw	a2,a3,1

   19e70:	01d787b3          	add	a5,a5,t4

   19e74:	01333023          	sd	s3,0(t1)

   19e78:	01d33423          	sd	t4,8(t1)

   19e7c:	12f13023          	sd	a5,288(sp)

   19e80:	10c12c23          	sw	a2,280(sp)

   19e84:	00700693          	li	a3,7

   19e88:	01030313          	addi	t1,t1,16

   19e8c:	e4c6de63          	bge	a3,a2,194e8 <_svfprintf_r+0x6ec>

   19e90:	11010613          	addi	a2,sp,272

   19e94:	000c0593          	mv	a1,s8

   19e98:	000b0513          	mv	a0,s6

   19e9c:	5d5030ef          	jal	ra,1dc70 <__ssprint_r>

   19ea0:	92051c63          	bnez	a0,18fd8 <_svfprintf_r+0x1dc>

   19ea4:	12013783          	ld	a5,288(sp)

   19ea8:	000b8313          	mv	t1,s7

   19eac:	e3cff06f          	j	194e8 <_svfprintf_r+0x6ec>

   19eb0:	00040813          	mv	a6,s0

   19eb4:	cf4ff06f          	j	193a8 <_svfprintf_r+0x5ac>

   19eb8:	11812683          	lw	a3,280(sp)

   19ebc:	00008897          	auipc	a7,0x8

   19ec0:	50488893          	addi	a7,a7,1284 # 223c0 <blanks.4525>

   19ec4:	00700293          	li	t0,7

   19ec8:	010dc863          	blt	s11,a6,19ed8 <_svfprintf_r+0x10dc>

   19ecc:	0800006f          	j	19f4c <_svfprintf_r+0x1150>

   19ed0:	ff08081b          	addiw	a6,a6,-16

   19ed4:	070ddc63          	bge	s11,a6,19f4c <_svfprintf_r+0x1150>

   19ed8:	0016869b          	addiw	a3,a3,1

   19edc:	01078793          	addi	a5,a5,16

   19ee0:	01133023          	sd	a7,0(t1)

   19ee4:	01b33423          	sd	s11,8(t1)

   19ee8:	12f13023          	sd	a5,288(sp)

   19eec:	10d12c23          	sw	a3,280(sp)

   19ef0:	01030313          	addi	t1,t1,16

   19ef4:	fcd2dee3          	bge	t0,a3,19ed0 <_svfprintf_r+0x10d4>

   19ef8:	11010613          	addi	a2,sp,272

   19efc:	000c0593          	mv	a1,s8

   19f00:	000b0513          	mv	a0,s6

   19f04:	05113823          	sd	a7,80(sp)

   19f08:	05013423          	sd	a6,72(sp)

   19f0c:	05d13023          	sd	t4,64(sp)

   19f10:	03f13c23          	sd	t6,56(sp)

   19f14:	01e13c23          	sd	t5,24(sp)

   19f18:	559030ef          	jal	ra,1dc70 <__ssprint_r>

   19f1c:	8a051e63          	bnez	a0,18fd8 <_svfprintf_r+0x1dc>

   19f20:	04813803          	ld	a6,72(sp)

   19f24:	12013783          	ld	a5,288(sp)

   19f28:	11812683          	lw	a3,280(sp)

   19f2c:	ff08081b          	addiw	a6,a6,-16

   19f30:	000b8313          	mv	t1,s7

   19f34:	05013883          	ld	a7,80(sp)

   19f38:	00700293          	li	t0,7

   19f3c:	04013e83          	ld	t4,64(sp)

   19f40:	03813f83          	ld	t6,56(sp)

   19f44:	01813f03          	ld	t5,24(sp)

   19f48:	f90dc8e3          	blt	s11,a6,19ed8 <_svfprintf_r+0x10dc>

   19f4c:	0016861b          	addiw	a2,a3,1

   19f50:	010787b3          	add	a5,a5,a6

   19f54:	01133023          	sd	a7,0(t1)

   19f58:	01033423          	sd	a6,8(t1)

   19f5c:	12f13023          	sd	a5,288(sp)

   19f60:	10c12c23          	sw	a2,280(sp)

   19f64:	00700693          	li	a3,7

   19f68:	01030313          	addi	t1,t1,16

   19f6c:	cec6dc63          	bge	a3,a2,19464 <_svfprintf_r+0x668>

   19f70:	11010613          	addi	a2,sp,272

   19f74:	000c0593          	mv	a1,s8

   19f78:	000b0513          	mv	a0,s6

   19f7c:	05d13023          	sd	t4,64(sp)

   19f80:	03f13c23          	sd	t6,56(sp)

   19f84:	01e13c23          	sd	t5,24(sp)

   19f88:	4e9030ef          	jal	ra,1dc70 <__ssprint_r>

   19f8c:	00050463          	beqz	a0,19f94 <_svfprintf_r+0x1198>

   19f90:	848ff06f          	j	18fd8 <_svfprintf_r+0x1dc>

   19f94:	12013783          	ld	a5,288(sp)

   19f98:	000b8313          	mv	t1,s7

   19f9c:	04013e83          	ld	t4,64(sp)

   19fa0:	03813f83          	ld	t6,56(sp)

   19fa4:	01813f03          	ld	t5,24(sp)

   19fa8:	cbcff06f          	j	19464 <_svfprintf_r+0x668>

   19fac:	11010613          	addi	a2,sp,272

   19fb0:	000c0593          	mv	a1,s8

   19fb4:	000b0513          	mv	a0,s6

   19fb8:	03d13c23          	sd	t4,56(sp)

   19fbc:	01f13c23          	sd	t6,24(sp)

   19fc0:	4b1030ef          	jal	ra,1dc70 <__ssprint_r>

   19fc4:	00050463          	beqz	a0,19fcc <_svfprintf_r+0x11d0>

   19fc8:	810ff06f          	j	18fd8 <_svfprintf_r+0x1dc>

   19fcc:	12013783          	ld	a5,288(sp)

   19fd0:	000b8313          	mv	t1,s7

   19fd4:	03813e83          	ld	t4,56(sp)

   19fd8:	01813f83          	ld	t6,24(sp)

   19fdc:	cfcff06f          	j	194d8 <_svfprintf_r+0x6dc>

   19fe0:	11812703          	lw	a4,280(sp)

   19fe4:	00008897          	auipc	a7,0x8

   19fe8:	3dc88893          	addi	a7,a7,988 # 223c0 <blanks.4525>

   19fec:	00700493          	li	s1,7

   19ff0:	008dc863          	blt	s11,s0,1a000 <_svfprintf_r+0x1204>

   19ff4:	0600006f          	j	1a054 <_svfprintf_r+0x1258>

   19ff8:	ff04041b          	addiw	s0,s0,-16

   19ffc:	048ddc63          	bge	s11,s0,1a054 <_svfprintf_r+0x1258>

   1a000:	0017071b          	addiw	a4,a4,1

   1a004:	01078793          	addi	a5,a5,16

   1a008:	01133023          	sd	a7,0(t1)

   1a00c:	01b33423          	sd	s11,8(t1)

   1a010:	12f13023          	sd	a5,288(sp)

   1a014:	10e12c23          	sw	a4,280(sp)

   1a018:	01030313          	addi	t1,t1,16

   1a01c:	fce4dee3          	bge	s1,a4,19ff8 <_svfprintf_r+0x11fc>

   1a020:	11010613          	addi	a2,sp,272

   1a024:	000c0593          	mv	a1,s8

   1a028:	000b0513          	mv	a0,s6

   1a02c:	01113c23          	sd	a7,24(sp)

   1a030:	441030ef          	jal	ra,1dc70 <__ssprint_r>

   1a034:	00050463          	beqz	a0,1a03c <_svfprintf_r+0x1240>

   1a038:	fa1fe06f          	j	18fd8 <_svfprintf_r+0x1dc>

   1a03c:	ff04041b          	addiw	s0,s0,-16

   1a040:	12013783          	ld	a5,288(sp)

   1a044:	11812703          	lw	a4,280(sp)

   1a048:	000b8313          	mv	t1,s7

   1a04c:	01813883          	ld	a7,24(sp)

   1a050:	fa8dc8e3          	blt	s11,s0,1a000 <_svfprintf_r+0x1204>

   1a054:	0017069b          	addiw	a3,a4,1

   1a058:	008787b3          	add	a5,a5,s0

   1a05c:	01133023          	sd	a7,0(t1)

   1a060:	00833423          	sd	s0,8(t1)

   1a064:	12f13023          	sd	a5,288(sp)

   1a068:	10d12c23          	sw	a3,280(sp)

   1a06c:	00700713          	li	a4,7

   1a070:	cad75c63          	bge	a4,a3,19528 <_svfprintf_r+0x72c>

   1a074:	11010613          	addi	a2,sp,272

   1a078:	000c0593          	mv	a1,s8

   1a07c:	000b0513          	mv	a0,s6

   1a080:	3f1030ef          	jal	ra,1dc70 <__ssprint_r>

   1a084:	00050463          	beqz	a0,1a08c <_svfprintf_r+0x1290>

   1a088:	f51fe06f          	j	18fd8 <_svfprintf_r+0x1dc>

   1a08c:	12013783          	ld	a5,288(sp)

   1a090:	c98ff06f          	j	19528 <_svfprintf_r+0x72c>

   1a094:	00100693          	li	a3,1

   1a098:	36d706e3          	beq	a4,a3,1ac04 <_svfprintf_r+0x1e08>

   1a09c:	00200693          	li	a3,2

   1a0a0:	00040813          	mv	a6,s0

   1a0a4:	b0d71a63          	bne	a4,a3,193b8 <_svfprintf_r+0x5bc>

   1a0a8:	18c10c93          	addi	s9,sp,396

   1a0ac:	000c8d13          	mv	s10,s9

   1a0b0:	03013783          	ld	a5,48(sp)

   1a0b4:	00faf693          	andi	a3,s5,15

   1a0b8:	fffd0d13          	addi	s10,s10,-1

   1a0bc:	00d786b3          	add	a3,a5,a3

   1a0c0:	0006c683          	lbu	a3,0(a3)

   1a0c4:	004ada93          	srli	s5,s5,0x4

   1a0c8:	00dd0023          	sb	a3,0(s10)

   1a0cc:	fe0a92e3          	bnez	s5,1a0b0 <_svfprintf_r+0x12b4>

   1a0d0:	41ac8cbb          	subw	s9,s9,s10

   1a0d4:	00080413          	mv	s0,a6

   1a0d8:	fe9fe06f          	j	190c0 <_svfprintf_r+0x2c4>

   1a0dc:	0e812583          	lw	a1,232(sp)

   1a0e0:	58b05863          	blez	a1,1a670 <_svfprintf_r+0x1874>

   1a0e4:	02813703          	ld	a4,40(sp)

   1a0e8:	06013683          	ld	a3,96(sp)

   1a0ec:	0007049b          	sext.w	s1,a4

   1a0f0:	2ae6c063          	blt	a3,a4,1a390 <_svfprintf_r+0x1594>

   1a0f4:	02905663          	blez	s1,1a120 <_svfprintf_r+0x1324>

   1a0f8:	11812683          	lw	a3,280(sp)

   1a0fc:	009787b3          	add	a5,a5,s1

   1a100:	01a33023          	sd	s10,0(t1)

   1a104:	0016861b          	addiw	a2,a3,1

   1a108:	00933423          	sd	s1,8(t1)

   1a10c:	12f13023          	sd	a5,288(sp)

   1a110:	10c12c23          	sw	a2,280(sp)

   1a114:	00700693          	li	a3,7

   1a118:	01030313          	addi	t1,t1,16

   1a11c:	1ac6c4e3          	blt	a3,a2,1aac4 <_svfprintf_r+0x1cc8>

   1a120:	fff4c693          	not	a3,s1

   1a124:	06013703          	ld	a4,96(sp)

   1a128:	43f6d693          	srai	a3,a3,0x3f

   1a12c:	00d4f4b3          	and	s1,s1,a3

   1a130:	409704bb          	subw	s1,a4,s1

   1a134:	30904063          	bgtz	s1,1a434 <_svfprintf_r+0x1638>

   1a138:	06013703          	ld	a4,96(sp)

   1a13c:	40047693          	andi	a3,s0,1024

   1a140:	00ed04b3          	add	s1,s10,a4

   1a144:	34069863          	bnez	a3,1a494 <_svfprintf_r+0x1698>

   1a148:	0e812683          	lw	a3,232(sp)

   1a14c:	02813703          	ld	a4,40(sp)

   1a150:	00e6c663          	blt	a3,a4,1a15c <_svfprintf_r+0x1360>

   1a154:	00147613          	andi	a2,s0,1

   1a158:	1e060ae3          	beqz	a2,1ab4c <_svfprintf_r+0x1d50>

   1a15c:	08013603          	ld	a2,128(sp)

   1a160:	07813703          	ld	a4,120(sp)

   1a164:	01030313          	addi	t1,t1,16

   1a168:	fec33823          	sd	a2,-16(t1)

   1a16c:	11812603          	lw	a2,280(sp)

   1a170:	00e787b3          	add	a5,a5,a4

   1a174:	fee33c23          	sd	a4,-8(t1)

   1a178:	0016059b          	addiw	a1,a2,1

   1a17c:	12f13023          	sd	a5,288(sp)

   1a180:	10b12c23          	sw	a1,280(sp)

   1a184:	00700613          	li	a2,7

   1a188:	40b64ae3          	blt	a2,a1,1ad9c <_svfprintf_r+0x1fa0>

   1a18c:	02813703          	ld	a4,40(sp)

   1a190:	40d706bb          	subw	a3,a4,a3

   1a194:	00ed0733          	add	a4,s10,a4

   1a198:	4097063b          	subw	a2,a4,s1

   1a19c:	0006871b          	sext.w	a4,a3

   1a1a0:	00e65463          	bge	a2,a4,1a1a8 <_svfprintf_r+0x13ac>

   1a1a4:	00060693          	mv	a3,a2

   1a1a8:	00068c9b          	sext.w	s9,a3

   1a1ac:	03905663          	blez	s9,1a1d8 <_svfprintf_r+0x13dc>

   1a1b0:	11812683          	lw	a3,280(sp)

   1a1b4:	019787b3          	add	a5,a5,s9

   1a1b8:	00933023          	sd	s1,0(t1)

   1a1bc:	0016861b          	addiw	a2,a3,1

   1a1c0:	01933423          	sd	s9,8(t1)

   1a1c4:	12f13023          	sd	a5,288(sp)

   1a1c8:	10c12c23          	sw	a2,280(sp)

   1a1cc:	00700693          	li	a3,7

   1a1d0:	01030313          	addi	t1,t1,16

   1a1d4:	44c6cee3          	blt	a3,a2,1ae30 <_svfprintf_r+0x2034>

   1a1d8:	fffcc493          	not	s1,s9

   1a1dc:	43f4d493          	srai	s1,s1,0x3f

   1a1e0:	009cf4b3          	and	s1,s9,s1

   1a1e4:	409704bb          	subw	s1,a4,s1

   1a1e8:	b2905863          	blez	s1,19518 <_svfprintf_r+0x71c>

   1a1ec:	11812703          	lw	a4,280(sp)

   1a1f0:	609dd463          	bge	s11,s1,1a7f8 <_svfprintf_r+0x19fc>

   1a1f4:	00700c93          	li	s9,7

   1a1f8:	00c0006f          	j	1a204 <_svfprintf_r+0x1408>

   1a1fc:	ff04849b          	addiw	s1,s1,-16

   1a200:	5e9ddc63          	bge	s11,s1,1a7f8 <_svfprintf_r+0x19fc>

   1a204:	0017071b          	addiw	a4,a4,1

   1a208:	01078793          	addi	a5,a5,16

   1a20c:	01333023          	sd	s3,0(t1)

   1a210:	01b33423          	sd	s11,8(t1)

   1a214:	12f13023          	sd	a5,288(sp)

   1a218:	10e12c23          	sw	a4,280(sp)

   1a21c:	01030313          	addi	t1,t1,16

   1a220:	fcecdee3          	bge	s9,a4,1a1fc <_svfprintf_r+0x1400>

   1a224:	11010613          	addi	a2,sp,272

   1a228:	000c0593          	mv	a1,s8

   1a22c:	000b0513          	mv	a0,s6

   1a230:	241030ef          	jal	ra,1dc70 <__ssprint_r>

   1a234:	00050463          	beqz	a0,1a23c <_svfprintf_r+0x1440>

   1a238:	da1fe06f          	j	18fd8 <_svfprintf_r+0x1dc>

   1a23c:	12013783          	ld	a5,288(sp)

   1a240:	11812703          	lw	a4,280(sp)

   1a244:	000b8313          	mv	t1,s7

   1a248:	fb5ff06f          	j	1a1fc <_svfprintf_r+0x1400>

   1a24c:	00147593          	andi	a1,s0,1

   1a250:	b8059c63          	bnez	a1,195e8 <_svfprintf_r+0x7ec>

   1a254:	00c33423          	sd	a2,8(t1)

   1a258:	13913023          	sd	s9,288(sp)

   1a25c:	10f12c23          	sw	a5,280(sp)

   1a260:	00700713          	li	a4,7

   1a264:	3cf74e63          	blt	a4,a5,1a640 <_svfprintf_r+0x1844>

   1a268:	002e8e9b          	addiw	t4,t4,2

   1a26c:	02030313          	addi	t1,t1,32

   1a270:	c48ff06f          	j	196b8 <_svfprintf_r+0x8bc>

   1a274:	c5005263          	blez	a6,196b8 <_svfprintf_r+0x8bc>

   1a278:	010dc463          	blt	s11,a6,1a280 <_svfprintf_r+0x1484>

   1a27c:	1f80106f          	j	1b474 <_svfprintf_r+0x2678>

   1a280:	00700d13          	li	s10,7

   1a284:	0100006f          	j	1a294 <_svfprintf_r+0x1498>

   1a288:	ff08081b          	addiw	a6,a6,-16

   1a28c:	710ddc63          	bge	s11,a6,1a9a4 <_svfprintf_r+0x1ba8>

   1a290:	0017889b          	addiw	a7,a5,1

   1a294:	010c8c93          	addi	s9,s9,16

   1a298:	0134b023          	sd	s3,0(s1)

   1a29c:	01b4b423          	sd	s11,8(s1)

   1a2a0:	13913023          	sd	s9,288(sp)

   1a2a4:	0008879b          	sext.w	a5,a7

   1a2a8:	11112c23          	sw	a7,280(sp)

   1a2ac:	01048493          	addi	s1,s1,16

   1a2b0:	fcfd5ce3          	bge	s10,a5,1a288 <_svfprintf_r+0x148c>

   1a2b4:	11010613          	addi	a2,sp,272

   1a2b8:	000c0593          	mv	a1,s8

   1a2bc:	000b0513          	mv	a0,s6

   1a2c0:	01013c23          	sd	a6,24(sp)

   1a2c4:	1ad030ef          	jal	ra,1dc70 <__ssprint_r>

   1a2c8:	00050463          	beqz	a0,1a2d0 <_svfprintf_r+0x14d4>

   1a2cc:	d0dfe06f          	j	18fd8 <_svfprintf_r+0x1dc>

   1a2d0:	12013c83          	ld	s9,288(sp)

   1a2d4:	11812783          	lw	a5,280(sp)

   1a2d8:	000b8493          	mv	s1,s7

   1a2dc:	01813803          	ld	a6,24(sp)

   1a2e0:	fa9ff06f          	j	1a288 <_svfprintf_r+0x148c>

   1a2e4:	000d0493          	mv	s1,s10

   1a2e8:	c4dfe06f          	j	18f34 <_svfprintf_r+0x138>

   1a2ec:	11010613          	addi	a2,sp,272

   1a2f0:	000c0593          	mv	a1,s8

   1a2f4:	000b0513          	mv	a0,s6

   1a2f8:	179030ef          	jal	ra,1dc70 <__ssprint_r>

   1a2fc:	00050463          	beqz	a0,1a304 <_svfprintf_r+0x1508>

   1a300:	cd9fe06f          	j	18fd8 <_svfprintf_r+0x1dc>

   1a304:	12013c83          	ld	s9,288(sp)

   1a308:	11812783          	lw	a5,280(sp)

   1a30c:	000b8493          	mv	s1,s7

   1a310:	af0ff06f          	j	19600 <_svfprintf_r+0x804>

   1a314:	11010613          	addi	a2,sp,272

   1a318:	000c0593          	mv	a1,s8

   1a31c:	000b0513          	mv	a0,s6

   1a320:	151030ef          	jal	ra,1dc70 <__ssprint_r>

   1a324:	00050463          	beqz	a0,1a32c <_svfprintf_r+0x1530>

   1a328:	cb1fe06f          	j	18fd8 <_svfprintf_r+0x1dc>

   1a32c:	12013c83          	ld	s9,288(sp)

   1a330:	11812783          	lw	a5,280(sp)

   1a334:	000b8493          	mv	s1,s7

   1a338:	af8ff06f          	j	19630 <_svfprintf_r+0x834>

   1a33c:	03000793          	li	a5,48

   1a340:	18f105a3          	sb	a5,395(sp)

   1a344:	18b10d13          	addi	s10,sp,395

   1a348:	d79fe06f          	j	190c0 <_svfprintf_r+0x2c4>

   1a34c:	00040813          	mv	a6,s0

   1a350:	82cff06f          	j	1937c <_svfprintf_r+0x580>

   1a354:	01013783          	ld	a5,16(sp)

   1a358:	00f78793          	addi	a5,a5,15

   1a35c:	ff07f793          	andi	a5,a5,-16

   1a360:	0007b603          	ld	a2,0(a5)

   1a364:	0087b683          	ld	a3,8(a5)

   1a368:	01078793          	addi	a5,a5,16

   1a36c:	00f13823          	sd	a5,16(sp)

   1a370:	10c13023          	sd	a2,256(sp)

   1a374:	10d13423          	sd	a3,264(sp)

   1a378:	da0ff06f          	j	19918 <_svfprintf_r+0xb1c>

   1a37c:	00040813          	mv	a6,s0

   1a380:	e7dfe06f          	j	191fc <_svfprintf_r+0x400>

   1a384:	01013783          	ld	a5,16(sp)

   1a388:	0007ba83          	ld	s5,0(a5)

   1a38c:	cd1fe06f          	j	1905c <_svfprintf_r+0x260>

   1a390:	0006849b          	sext.w	s1,a3

   1a394:	d69042e3          	bgtz	s1,1a0f8 <_svfprintf_r+0x12fc>

   1a398:	d89ff06f          	j	1a120 <_svfprintf_r+0x1324>

   1a39c:	11010613          	addi	a2,sp,272

   1a3a0:	000c0593          	mv	a1,s8

   1a3a4:	000b0513          	mv	a0,s6

   1a3a8:	0c9030ef          	jal	ra,1dc70 <__ssprint_r>

   1a3ac:	00050463          	beqz	a0,1a3b4 <_svfprintf_r+0x15b8>

   1a3b0:	c29fe06f          	j	18fd8 <_svfprintf_r+0x1dc>

   1a3b4:	12013783          	ld	a5,288(sp)

   1a3b8:	000b8313          	mv	t1,s7

   1a3bc:	911ff06f          	j	19ccc <_svfprintf_r+0xed0>

   1a3c0:	20046413          	ori	s0,s0,512

   1a3c4:	00194483          	lbu	s1,1(s2)

   1a3c8:	0004041b          	sext.w	s0,s0

   1a3cc:	00190913          	addi	s2,s2,1

   1a3d0:	b85fe06f          	j	18f54 <_svfprintf_r+0x158>

   1a3d4:	02046413          	ori	s0,s0,32

   1a3d8:	00194483          	lbu	s1,1(s2)

   1a3dc:	0004041b          	sext.w	s0,s0

   1a3e0:	00190913          	addi	s2,s2,1

   1a3e4:	b71fe06f          	j	18f54 <_svfprintf_r+0x158>

   1a3e8:	04000593          	li	a1,64

   1a3ec:	000b0513          	mv	a0,s6

   1a3f0:	fccfc0ef          	jal	ra,16bbc <_malloc_r>

   1a3f4:	00ac3023          	sd	a0,0(s8)

   1a3f8:	00ac3c23          	sd	a0,24(s8)

   1a3fc:	00051463          	bnez	a0,1a404 <_svfprintf_r+0x1608>

   1a400:	0cc0106f          	j	1b4cc <_svfprintf_r+0x26d0>

   1a404:	04000793          	li	a5,64

   1a408:	02fc2023          	sw	a5,32(s8)

   1a40c:	a71fe06f          	j	18e7c <_svfprintf_r+0x80>

   1a410:	000e871b          	sext.w	a4,t4

   1a414:	00600793          	li	a5,6

   1a418:	72e7e663          	bltu	a5,a4,1ab44 <_svfprintf_r+0x1d48>

   1a41c:	000e8c9b          	sext.w	s9,t4

   1a420:	000c8a93          	mv	s5,s9

   1a424:	00d13823          	sd	a3,16(sp)

   1a428:	00008d17          	auipc	s10,0x8

   1a42c:	a38d0d13          	addi	s10,s10,-1480 # 21e60 <zeroes.4541+0x90>

   1a430:	ffdfe06f          	j	1942c <_svfprintf_r+0x630>

   1a434:	11812683          	lw	a3,280(sp)

   1a438:	629ddc63          	bge	s11,s1,1aa70 <_svfprintf_r+0x1c74>

   1a43c:	00700c93          	li	s9,7

   1a440:	00c0006f          	j	1a44c <_svfprintf_r+0x1650>

   1a444:	ff04849b          	addiw	s1,s1,-16

   1a448:	629dd463          	bge	s11,s1,1aa70 <_svfprintf_r+0x1c74>

   1a44c:	0016869b          	addiw	a3,a3,1

   1a450:	01078793          	addi	a5,a5,16

   1a454:	01333023          	sd	s3,0(t1)

   1a458:	01b33423          	sd	s11,8(t1)

   1a45c:	12f13023          	sd	a5,288(sp)

   1a460:	10d12c23          	sw	a3,280(sp)

   1a464:	01030313          	addi	t1,t1,16

   1a468:	fcdcdee3          	bge	s9,a3,1a444 <_svfprintf_r+0x1648>

   1a46c:	11010613          	addi	a2,sp,272

   1a470:	000c0593          	mv	a1,s8

   1a474:	000b0513          	mv	a0,s6

   1a478:	7f8030ef          	jal	ra,1dc70 <__ssprint_r>

   1a47c:	00050463          	beqz	a0,1a484 <_svfprintf_r+0x1688>

   1a480:	b59fe06f          	j	18fd8 <_svfprintf_r+0x1dc>

   1a484:	12013783          	ld	a5,288(sp)

   1a488:	11812683          	lw	a3,280(sp)

   1a48c:	000b8313          	mv	t1,s7

   1a490:	fb5ff06f          	j	1a444 <_svfprintf_r+0x1648>

   1a494:	02813703          	ld	a4,40(sp)

   1a498:	00700813          	li	a6,7

   1a49c:	00ed0733          	add	a4,s10,a4

   1a4a0:	00e13c23          	sd	a4,24(sp)

   1a4a4:	06813703          	ld	a4,104(sp)

   1a4a8:	0c070263          	beqz	a4,1a56c <_svfprintf_r+0x1770>

   1a4ac:	05813703          	ld	a4,88(sp)

   1a4b0:	0c071263          	bnez	a4,1a574 <_svfprintf_r+0x1778>

   1a4b4:	07013703          	ld	a4,112(sp)

   1a4b8:	fff70713          	addi	a4,a4,-1

   1a4bc:	06e13823          	sd	a4,112(sp)

   1a4c0:	06813703          	ld	a4,104(sp)

   1a4c4:	fff7071b          	addiw	a4,a4,-1

   1a4c8:	06e13423          	sd	a4,104(sp)

   1a4cc:	09813683          	ld	a3,152(sp)

   1a4d0:	08813703          	ld	a4,136(sp)

   1a4d4:	01030313          	addi	t1,t1,16

   1a4d8:	fed33823          	sd	a3,-16(t1)

   1a4dc:	11812683          	lw	a3,280(sp)

   1a4e0:	00e787b3          	add	a5,a5,a4

   1a4e4:	fee33c23          	sd	a4,-8(t1)

   1a4e8:	0016861b          	addiw	a2,a3,1

   1a4ec:	12f13023          	sd	a5,288(sp)

   1a4f0:	10c12c23          	sw	a2,280(sp)

   1a4f4:	12c84263          	blt	a6,a2,1a618 <_svfprintf_r+0x181c>

   1a4f8:	07013703          	ld	a4,112(sp)

   1a4fc:	00074603          	lbu	a2,0(a4)

   1a500:	01813703          	ld	a4,24(sp)

   1a504:	00060c9b          	sext.w	s9,a2

   1a508:	409705bb          	subw	a1,a4,s1

   1a50c:	000c869b          	sext.w	a3,s9

   1a510:	0195d463          	bge	a1,s9,1a518 <_svfprintf_r+0x171c>

   1a514:	0005869b          	sext.w	a3,a1

   1a518:	02d05a63          	blez	a3,1a54c <_svfprintf_r+0x1750>

   1a51c:	11812603          	lw	a2,280(sp)

   1a520:	00d787b3          	add	a5,a5,a3

   1a524:	00933023          	sd	s1,0(t1)

   1a528:	0016059b          	addiw	a1,a2,1

   1a52c:	00d33423          	sd	a3,8(t1)

   1a530:	12f13023          	sd	a5,288(sp)

   1a534:	10b12c23          	sw	a1,280(sp)

   1a538:	2eb84463          	blt	a6,a1,1a820 <_svfprintf_r+0x1a24>

   1a53c:	07013703          	ld	a4,112(sp)

   1a540:	01030313          	addi	t1,t1,16

   1a544:	00074603          	lbu	a2,0(a4)

   1a548:	00060c9b          	sext.w	s9,a2

   1a54c:	fff6c593          	not	a1,a3

   1a550:	43f5d593          	srai	a1,a1,0x3f

   1a554:	00b6f6b3          	and	a3,a3,a1

   1a558:	40dc8cbb          	subw	s9,s9,a3

   1a55c:	03904463          	bgtz	s9,1a584 <_svfprintf_r+0x1788>

   1a560:	00c484b3          	add	s1,s1,a2

   1a564:	06813703          	ld	a4,104(sp)

   1a568:	f40712e3          	bnez	a4,1a4ac <_svfprintf_r+0x16b0>

   1a56c:	05813703          	ld	a4,88(sp)

   1a570:	68070e63          	beqz	a4,1ac0c <_svfprintf_r+0x1e10>

   1a574:	05813703          	ld	a4,88(sp)

   1a578:	fff7071b          	addiw	a4,a4,-1

   1a57c:	04e13c23          	sd	a4,88(sp)

   1a580:	f4dff06f          	j	1a4cc <_svfprintf_r+0x16d0>

   1a584:	11812683          	lw	a3,280(sp)

   1a588:	019dc863          	blt	s11,s9,1a598 <_svfprintf_r+0x179c>

   1a58c:	05c0006f          	j	1a5e8 <_svfprintf_r+0x17ec>

   1a590:	ff0c8c9b          	addiw	s9,s9,-16

   1a594:	059dda63          	bge	s11,s9,1a5e8 <_svfprintf_r+0x17ec>

   1a598:	0016869b          	addiw	a3,a3,1

   1a59c:	01078793          	addi	a5,a5,16

   1a5a0:	01333023          	sd	s3,0(t1)

   1a5a4:	01b33423          	sd	s11,8(t1)

   1a5a8:	12f13023          	sd	a5,288(sp)

   1a5ac:	10d12c23          	sw	a3,280(sp)

   1a5b0:	01030313          	addi	t1,t1,16

   1a5b4:	fcd85ee3          	bge	a6,a3,1a590 <_svfprintf_r+0x1794>

   1a5b8:	11010613          	addi	a2,sp,272

   1a5bc:	000c0593          	mv	a1,s8

   1a5c0:	000b0513          	mv	a0,s6

   1a5c4:	6ac030ef          	jal	ra,1dc70 <__ssprint_r>

   1a5c8:	00050463          	beqz	a0,1a5d0 <_svfprintf_r+0x17d4>

   1a5cc:	a0dfe06f          	j	18fd8 <_svfprintf_r+0x1dc>

   1a5d0:	ff0c8c9b          	addiw	s9,s9,-16

   1a5d4:	12013783          	ld	a5,288(sp)

   1a5d8:	11812683          	lw	a3,280(sp)

   1a5dc:	000b8313          	mv	t1,s7

   1a5e0:	00700813          	li	a6,7

   1a5e4:	fb9dcae3          	blt	s11,s9,1a598 <_svfprintf_r+0x179c>

   1a5e8:	0016861b          	addiw	a2,a3,1

   1a5ec:	019787b3          	add	a5,a5,s9

   1a5f0:	01333023          	sd	s3,0(t1)

   1a5f4:	01933423          	sd	s9,8(t1)

   1a5f8:	12f13023          	sd	a5,288(sp)

   1a5fc:	10c12c23          	sw	a2,280(sp)

   1a600:	74c84e63          	blt	a6,a2,1ad5c <_svfprintf_r+0x1f60>

   1a604:	07013703          	ld	a4,112(sp)

   1a608:	01030313          	addi	t1,t1,16

   1a60c:	00074603          	lbu	a2,0(a4)

   1a610:	00c484b3          	add	s1,s1,a2

   1a614:	f51ff06f          	j	1a564 <_svfprintf_r+0x1768>

   1a618:	11010613          	addi	a2,sp,272

   1a61c:	000c0593          	mv	a1,s8

   1a620:	000b0513          	mv	a0,s6

   1a624:	64c030ef          	jal	ra,1dc70 <__ssprint_r>

   1a628:	00050463          	beqz	a0,1a630 <_svfprintf_r+0x1834>

   1a62c:	9adfe06f          	j	18fd8 <_svfprintf_r+0x1dc>

   1a630:	12013783          	ld	a5,288(sp)

   1a634:	000b8313          	mv	t1,s7

   1a638:	00700813          	li	a6,7

   1a63c:	ebdff06f          	j	1a4f8 <_svfprintf_r+0x16fc>

   1a640:	11010613          	addi	a2,sp,272

   1a644:	000c0593          	mv	a1,s8

   1a648:	000b0513          	mv	a0,s6

   1a64c:	624030ef          	jal	ra,1dc70 <__ssprint_r>

   1a650:	00050463          	beqz	a0,1a658 <_svfprintf_r+0x185c>

   1a654:	985fe06f          	j	18fd8 <_svfprintf_r+0x1dc>

   1a658:	11812e83          	lw	t4,280(sp)

   1a65c:	12013c83          	ld	s9,288(sp)

   1a660:	1a010313          	addi	t1,sp,416

   1a664:	001e8e9b          	addiw	t4,t4,1

   1a668:	000b8493          	mv	s1,s7

   1a66c:	84cff06f          	j	196b8 <_svfprintf_r+0x8bc>

   1a670:	11812683          	lw	a3,280(sp)

   1a674:	00007617          	auipc	a2,0x7

   1a678:	7f460613          	addi	a2,a2,2036 # 21e68 <zeroes.4541+0x98>

   1a67c:	00c33023          	sd	a2,0(t1)

   1a680:	0016869b          	addiw	a3,a3,1

   1a684:	00100613          	li	a2,1

   1a688:	00178793          	addi	a5,a5,1

   1a68c:	00c33423          	sd	a2,8(t1)

   1a690:	10d12c23          	sw	a3,280(sp)

   1a694:	0006861b          	sext.w	a2,a3

   1a698:	12f13023          	sd	a5,288(sp)

   1a69c:	00700693          	li	a3,7

   1a6a0:	01030313          	addi	t1,t1,16

   1a6a4:	06c6cc63          	blt	a3,a2,1a71c <_svfprintf_r+0x1920>

   1a6a8:	26059263          	bnez	a1,1a90c <_svfprintf_r+0x1b10>

   1a6ac:	02813703          	ld	a4,40(sp)

   1a6b0:	00147693          	andi	a3,s0,1

   1a6b4:	00d766b3          	or	a3,a4,a3

   1a6b8:	00069463          	bnez	a3,1a6c0 <_svfprintf_r+0x18c4>

   1a6bc:	e5dfe06f          	j	19518 <_svfprintf_r+0x71c>

   1a6c0:	11812603          	lw	a2,280(sp)

   1a6c4:	07813703          	ld	a4,120(sp)

   1a6c8:	08013683          	ld	a3,128(sp)

   1a6cc:	00e787b3          	add	a5,a5,a4

   1a6d0:	00d33023          	sd	a3,0(t1)

   1a6d4:	0016069b          	addiw	a3,a2,1

   1a6d8:	00e33423          	sd	a4,8(t1)

   1a6dc:	12f13023          	sd	a5,288(sp)

   1a6e0:	10d12c23          	sw	a3,280(sp)

   1a6e4:	00700613          	li	a2,7

   1a6e8:	4ed64263          	blt	a2,a3,1abcc <_svfprintf_r+0x1dd0>

   1a6ec:	01030313          	addi	t1,t1,16

   1a6f0:	02813703          	ld	a4,40(sp)

   1a6f4:	0016861b          	addiw	a2,a3,1

   1a6f8:	01a33023          	sd	s10,0(t1)

   1a6fc:	00f707b3          	add	a5,a4,a5

   1a700:	00e33423          	sd	a4,8(t1)

   1a704:	12f13023          	sd	a5,288(sp)

   1a708:	10c12c23          	sw	a2,280(sp)

   1a70c:	00700713          	li	a4,7

   1a710:	00c74463          	blt	a4,a2,1a718 <_svfprintf_r+0x191c>

   1a714:	e01fe06f          	j	19514 <_svfprintf_r+0x718>

   1a718:	fc5fe06f          	j	196dc <_svfprintf_r+0x8e0>

   1a71c:	11010613          	addi	a2,sp,272

   1a720:	000c0593          	mv	a1,s8

   1a724:	000b0513          	mv	a0,s6

   1a728:	548030ef          	jal	ra,1dc70 <__ssprint_r>

   1a72c:	00050463          	beqz	a0,1a734 <_svfprintf_r+0x1938>

   1a730:	8a9fe06f          	j	18fd8 <_svfprintf_r+0x1dc>

   1a734:	0e812583          	lw	a1,232(sp)

   1a738:	12013783          	ld	a5,288(sp)

   1a73c:	000b8313          	mv	t1,s7

   1a740:	f69ff06f          	j	1a6a8 <_svfprintf_r+0x18ac>

   1a744:	40087413          	andi	s0,a6,1024

   1a748:	18c10c93          	addi	s9,sp,396

   1a74c:	0004041b          	sext.w	s0,s0

   1a750:	02013423          	sd	zero,40(sp)

   1a754:	000c8d13          	mv	s10,s9

   1a758:	00a00593          	li	a1,10

   1a75c:	000a8513          	mv	a0,s5

   1a760:	02613c23          	sd	t1,56(sp)

   1a764:	03d13023          	sd	t4,32(sp)

   1a768:	01013c23          	sd	a6,24(sp)

   1a76c:	35c070ef          	jal	ra,21ac8 <__umoddi3>

   1a770:	02813783          	ld	a5,40(sp)

   1a774:	0305051b          	addiw	a0,a0,48

   1a778:	fead0fa3          	sb	a0,-1(s10)

   1a77c:	0017879b          	addiw	a5,a5,1

   1a780:	02f13423          	sd	a5,40(sp)

   1a784:	fffd0d13          	addi	s10,s10,-1

   1a788:	01813803          	ld	a6,24(sp)

   1a78c:	02013e83          	ld	t4,32(sp)

   1a790:	03813303          	ld	t1,56(sp)

   1a794:	00040863          	beqz	s0,1a7a4 <_svfprintf_r+0x19a8>

   1a798:	07013703          	ld	a4,112(sp)

   1a79c:	00074683          	lbu	a3,0(a4)

   1a7a0:	c4d78a63          	beq	a5,a3,19bf4 <_svfprintf_r+0xdf8>

   1a7a4:	00a00593          	li	a1,10

   1a7a8:	000a8513          	mv	a0,s5

   1a7ac:	02613c23          	sd	t1,56(sp)

   1a7b0:	03d13023          	sd	t4,32(sp)

   1a7b4:	01013c23          	sd	a6,24(sp)

   1a7b8:	2c8070ef          	jal	ra,21a80 <__udivdi3>

   1a7bc:	00900793          	li	a5,9

   1a7c0:	01813803          	ld	a6,24(sp)

   1a7c4:	02013e83          	ld	t4,32(sp)

   1a7c8:	03813303          	ld	t1,56(sp)

   1a7cc:	c357fc63          	bgeu	a5,s5,19c04 <_svfprintf_r+0xe08>

   1a7d0:	00050a93          	mv	s5,a0

   1a7d4:	f85ff06f          	j	1a758 <_svfprintf_r+0x195c>

   1a7d8:	11010613          	addi	a2,sp,272

   1a7dc:	000c0593          	mv	a1,s8

   1a7e0:	000b0513          	mv	a0,s6

   1a7e4:	48c030ef          	jal	ra,1dc70 <__ssprint_r>

   1a7e8:	00050463          	beqz	a0,1a7f0 <_svfprintf_r+0x19f4>

   1a7ec:	fecfe06f          	j	18fd8 <_svfprintf_r+0x1dc>

   1a7f0:	000b8313          	mv	t1,s7

   1a7f4:	c84ff06f          	j	19c78 <_svfprintf_r+0xe7c>

   1a7f8:	0017069b          	addiw	a3,a4,1

   1a7fc:	01333023          	sd	s3,0(t1)

   1a800:	00933423          	sd	s1,8(t1)

   1a804:	009787b3          	add	a5,a5,s1

   1a808:	12f13023          	sd	a5,288(sp)

   1a80c:	10d12c23          	sw	a3,280(sp)

   1a810:	00700713          	li	a4,7

   1a814:	00d74463          	blt	a4,a3,1a81c <_svfprintf_r+0x1a20>

   1a818:	cfdfe06f          	j	19514 <_svfprintf_r+0x718>

   1a81c:	ec1fe06f          	j	196dc <_svfprintf_r+0x8e0>

   1a820:	11010613          	addi	a2,sp,272

   1a824:	000c0593          	mv	a1,s8

   1a828:	000b0513          	mv	a0,s6

   1a82c:	02d13c23          	sd	a3,56(sp)

   1a830:	440030ef          	jal	ra,1dc70 <__ssprint_r>

   1a834:	00050463          	beqz	a0,1a83c <_svfprintf_r+0x1a40>

   1a838:	fa0fe06f          	j	18fd8 <_svfprintf_r+0x1dc>

   1a83c:	07013783          	ld	a5,112(sp)

   1a840:	000b8313          	mv	t1,s7

   1a844:	00700813          	li	a6,7

   1a848:	0007c603          	lbu	a2,0(a5)

   1a84c:	03813683          	ld	a3,56(sp)

   1a850:	12013783          	ld	a5,288(sp)

   1a854:	00060c9b          	sext.w	s9,a2

   1a858:	cf5ff06f          	j	1a54c <_svfprintf_r+0x1750>

   1a85c:	10013503          	ld	a0,256(sp)

   1a860:	10813583          	ld	a1,264(sp)

   1a864:	00000613          	li	a2,0

   1a868:	00000693          	li	a3,0

   1a86c:	00613c23          	sd	t1,24(sp)

   1a870:	7b8050ef          	jal	ra,20028 <__letf2>

   1a874:	01813303          	ld	t1,24(sp)

   1a878:	50054c63          	bltz	a0,1ad90 <_svfprintf_r+0x1f94>

   1a87c:	0df14783          	lbu	a5,223(sp)

   1a880:	04700693          	li	a3,71

   1a884:	00007d17          	auipc	s10,0x7

   1a888:	58cd0d13          	addi	s10,s10,1420 # 21e10 <zeroes.4541+0x40>

   1a88c:	2296c663          	blt	a3,s1,1aab8 <_svfprintf_r+0x1cbc>

   1a890:	f7f47413          	andi	s0,s0,-129

   1a894:	02013023          	sd	zero,32(sp)

   1a898:	04013c23          	sd	zero,88(sp)

   1a89c:	06013423          	sd	zero,104(sp)

   1a8a0:	06013023          	sd	zero,96(sp)

   1a8a4:	0004041b          	sext.w	s0,s0

   1a8a8:	00300a93          	li	s5,3

   1a8ac:	00300c93          	li	s9,3

   1a8b0:	00000e93          	li	t4,0

   1a8b4:	00078463          	beqz	a5,1a8bc <_svfprintf_r+0x1ac0>

   1a8b8:	82dfe06f          	j	190e4 <_svfprintf_r+0x2e8>

   1a8bc:	b85fe06f          	j	19440 <_svfprintf_r+0x644>

   1a8c0:	000d0513          	mv	a0,s10

   1a8c4:	00613c23          	sd	t1,24(sp)

   1a8c8:	00d13823          	sd	a3,16(sp)

   1a8cc:	b90fe0ef          	jal	ra,18c5c <strlen>

   1a8d0:	00050c9b          	sext.w	s9,a0

   1a8d4:	fffcca93          	not	s5,s9

   1a8d8:	0df14783          	lbu	a5,223(sp)

   1a8dc:	43fada93          	srai	s5,s5,0x3f

   1a8e0:	015cfab3          	and	s5,s9,s5

   1a8e4:	02013023          	sd	zero,32(sp)

   1a8e8:	04013c23          	sd	zero,88(sp)

   1a8ec:	06013423          	sd	zero,104(sp)

   1a8f0:	06013023          	sd	zero,96(sp)

   1a8f4:	000a8a9b          	sext.w	s5,s5

   1a8f8:	00000e93          	li	t4,0

   1a8fc:	01813303          	ld	t1,24(sp)

   1a900:	00078463          	beqz	a5,1a908 <_svfprintf_r+0x1b0c>

   1a904:	fe0fe06f          	j	190e4 <_svfprintf_r+0x2e8>

   1a908:	b39fe06f          	j	19440 <_svfprintf_r+0x644>

   1a90c:	11812603          	lw	a2,280(sp)

   1a910:	07813703          	ld	a4,120(sp)

   1a914:	08013683          	ld	a3,128(sp)

   1a918:	01030313          	addi	t1,t1,16

   1a91c:	00e787b3          	add	a5,a5,a4

   1a920:	fed33823          	sd	a3,-16(t1)

   1a924:	0016069b          	addiw	a3,a2,1

   1a928:	fee33c23          	sd	a4,-8(t1)

   1a92c:	12f13023          	sd	a5,288(sp)

   1a930:	10d12c23          	sw	a3,280(sp)

   1a934:	00700613          	li	a2,7

   1a938:	28d64a63          	blt	a2,a3,1abcc <_svfprintf_r+0x1dd0>

   1a93c:	da05dae3          	bgez	a1,1a6f0 <_svfprintf_r+0x18f4>

   1a940:	ff000613          	li	a2,-16

   1a944:	40b004bb          	negw	s1,a1

   1a948:	0ec5dee3          	bge	a1,a2,1b244 <_svfprintf_r+0x2448>

   1a94c:	00700c93          	li	s9,7

   1a950:	00c0006f          	j	1a95c <_svfprintf_r+0x1b60>

   1a954:	ff04849b          	addiw	s1,s1,-16

   1a958:	0e9dd6e3          	bge	s11,s1,1b244 <_svfprintf_r+0x2448>

   1a95c:	0016869b          	addiw	a3,a3,1

   1a960:	01078793          	addi	a5,a5,16

   1a964:	01333023          	sd	s3,0(t1)

   1a968:	01b33423          	sd	s11,8(t1)

   1a96c:	12f13023          	sd	a5,288(sp)

   1a970:	10d12c23          	sw	a3,280(sp)

   1a974:	01030313          	addi	t1,t1,16

   1a978:	fcdcdee3          	bge	s9,a3,1a954 <_svfprintf_r+0x1b58>

   1a97c:	11010613          	addi	a2,sp,272

   1a980:	000c0593          	mv	a1,s8

   1a984:	000b0513          	mv	a0,s6

   1a988:	2e8030ef          	jal	ra,1dc70 <__ssprint_r>

   1a98c:	00050463          	beqz	a0,1a994 <_svfprintf_r+0x1b98>

   1a990:	e48fe06f          	j	18fd8 <_svfprintf_r+0x1dc>

   1a994:	12013783          	ld	a5,288(sp)

   1a998:	11812683          	lw	a3,280(sp)

   1a99c:	000b8313          	mv	t1,s7

   1a9a0:	fb5ff06f          	j	1a954 <_svfprintf_r+0x1b58>

   1a9a4:	00178e9b          	addiw	t4,a5,1

   1a9a8:	01048793          	addi	a5,s1,16

   1a9ac:	010c8cb3          	add	s9,s9,a6

   1a9b0:	0134b023          	sd	s3,0(s1)

   1a9b4:	0104b423          	sd	a6,8(s1)

   1a9b8:	13913023          	sd	s9,288(sp)

   1a9bc:	11d12c23          	sw	t4,280(sp)

   1a9c0:	00700713          	li	a4,7

   1a9c4:	c7d74ee3          	blt	a4,t4,1a640 <_svfprintf_r+0x1844>

   1a9c8:	001e8e9b          	addiw	t4,t4,1

   1a9cc:	01078313          	addi	t1,a5,16

   1a9d0:	00078493          	mv	s1,a5

   1a9d4:	ce5fe06f          	j	196b8 <_svfprintf_r+0x8bc>

   1a9d8:	20047713          	andi	a4,s0,512

   1a9dc:	0ff7fa93          	andi	s5,a5,255

   1a9e0:	00070463          	beqz	a4,1a9e8 <_svfprintf_r+0x1bec>

   1a9e4:	e78fe06f          	j	1905c <_svfprintf_r+0x260>

   1a9e8:	02079a93          	slli	s5,a5,0x20

   1a9ec:	020ada93          	srli	s5,s5,0x20

   1a9f0:	e6cfe06f          	j	1905c <_svfprintf_r+0x260>

   1a9f4:	20047693          	andi	a3,s0,512

   1a9f8:	1a068e63          	beqz	a3,1abb4 <_svfprintf_r+0x1db8>

   1a9fc:	0ff7fa93          	andi	s5,a5,255

   1aa00:	00e13823          	sd	a4,16(sp)

   1aa04:	8bdfe06f          	j	192c0 <_svfprintf_r+0x4c4>

   1aa08:	20047713          	andi	a4,s0,512

   1aa0c:	18070863          	beqz	a4,1ab9c <_svfprintf_r+0x1da0>

   1aa10:	0ff7fa93          	andi	s5,a5,255

   1aa14:	00d13823          	sd	a3,16(sp)

   1aa18:	00040813          	mv	a6,s0

   1aa1c:	00100713          	li	a4,1

   1aa20:	e6cfe06f          	j	1908c <_svfprintf_r+0x290>

   1aa24:	20047793          	andi	a5,s0,512

   1aa28:	14078e63          	beqz	a5,1ab84 <_svfprintf_r+0x1d88>

   1aa2c:	01013783          	ld	a5,16(sp)

   1aa30:	00040813          	mv	a6,s0

   1aa34:	00d13823          	sd	a3,16(sp)

   1aa38:	00078a83          	lb	s5,0(a5)

   1aa3c:	000a8713          	mv	a4,s5

   1aa40:	8edfe06f          	j	1932c <_svfprintf_r+0x530>

   1aa44:	10813783          	ld	a5,264(sp)

   1aa48:	1607de63          	bgez	a5,1abc4 <_svfprintf_r+0x1dc8>

   1aa4c:	02d00793          	li	a5,45

   1aa50:	0cf10fa3          	sb	a5,223(sp)

   1aa54:	04700693          	li	a3,71

   1aa58:	00007d17          	auipc	s10,0x7

   1aa5c:	3c8d0d13          	addi	s10,s10,968 # 21e20 <zeroes.4541+0x50>

   1aa60:	e296d8e3          	bge	a3,s1,1a890 <_svfprintf_r+0x1a94>

   1aa64:	00007d17          	auipc	s10,0x7

   1aa68:	3c4d0d13          	addi	s10,s10,964 # 21e28 <zeroes.4541+0x58>

   1aa6c:	e25ff06f          	j	1a890 <_svfprintf_r+0x1a94>

   1aa70:	0016861b          	addiw	a2,a3,1

   1aa74:	009787b3          	add	a5,a5,s1

   1aa78:	01333023          	sd	s3,0(t1)

   1aa7c:	00933423          	sd	s1,8(t1)

   1aa80:	12f13023          	sd	a5,288(sp)

   1aa84:	10c12c23          	sw	a2,280(sp)

   1aa88:	00700693          	li	a3,7

   1aa8c:	01030313          	addi	t1,t1,16

   1aa90:	eac6d463          	bge	a3,a2,1a138 <_svfprintf_r+0x133c>

   1aa94:	11010613          	addi	a2,sp,272

   1aa98:	000c0593          	mv	a1,s8

   1aa9c:	000b0513          	mv	a0,s6

   1aaa0:	1d0030ef          	jal	ra,1dc70 <__ssprint_r>

   1aaa4:	00050463          	beqz	a0,1aaac <_svfprintf_r+0x1cb0>

   1aaa8:	d30fe06f          	j	18fd8 <_svfprintf_r+0x1dc>

   1aaac:	12013783          	ld	a5,288(sp)

   1aab0:	000b8313          	mv	t1,s7

   1aab4:	e84ff06f          	j	1a138 <_svfprintf_r+0x133c>

   1aab8:	00007d17          	auipc	s10,0x7

   1aabc:	360d0d13          	addi	s10,s10,864 # 21e18 <zeroes.4541+0x48>

   1aac0:	dd1ff06f          	j	1a890 <_svfprintf_r+0x1a94>

   1aac4:	11010613          	addi	a2,sp,272

   1aac8:	000c0593          	mv	a1,s8

   1aacc:	000b0513          	mv	a0,s6

   1aad0:	1a0030ef          	jal	ra,1dc70 <__ssprint_r>

   1aad4:	00050463          	beqz	a0,1aadc <_svfprintf_r+0x1ce0>

   1aad8:	d00fe06f          	j	18fd8 <_svfprintf_r+0x1dc>

   1aadc:	12013783          	ld	a5,288(sp)

   1aae0:	000b8313          	mv	t1,s7

   1aae4:	e3cff06f          	j	1a120 <_svfprintf_r+0x1324>

   1aae8:	08813783          	ld	a5,136(sp)

   1aaec:	09813583          	ld	a1,152(sp)

   1aaf0:	02613c23          	sd	t1,56(sp)

   1aaf4:	40fd0d33          	sub	s10,s10,a5

   1aaf8:	00078613          	mv	a2,a5

   1aafc:	000d0513          	mv	a0,s10

   1ab00:	03d13023          	sd	t4,32(sp)

   1ab04:	01013c23          	sd	a6,24(sp)

   1ab08:	a24fe0ef          	jal	ra,18d2c <strncpy>

   1ab0c:	07013703          	ld	a4,112(sp)

   1ab10:	000a8513          	mv	a0,s5

   1ab14:	00a00593          	li	a1,10

   1ab18:	00174683          	lbu	a3,1(a4)

   1ab1c:	02013423          	sd	zero,40(sp)

   1ab20:	00d037b3          	snez	a5,a3

   1ab24:	00f707b3          	add	a5,a4,a5

   1ab28:	06f13823          	sd	a5,112(sp)

   1ab2c:	755060ef          	jal	ra,21a80 <__udivdi3>

   1ab30:	01813803          	ld	a6,24(sp)

   1ab34:	02013e83          	ld	t4,32(sp)

   1ab38:	03813303          	ld	t1,56(sp)

   1ab3c:	00050a93          	mv	s5,a0

   1ab40:	c19ff06f          	j	1a758 <_svfprintf_r+0x195c>

   1ab44:	00600e93          	li	t4,6

   1ab48:	8d5ff06f          	j	1a41c <_svfprintf_r+0x1620>

   1ab4c:	02813703          	ld	a4,40(sp)

   1ab50:	40d706bb          	subw	a3,a4,a3

   1ab54:	00ed0733          	add	a4,s10,a4

   1ab58:	409708bb          	subw	a7,a4,s1

   1ab5c:	0006871b          	sext.w	a4,a3

   1ab60:	00068493          	mv	s1,a3

   1ab64:	00e8d463          	bge	a7,a4,1ab6c <_svfprintf_r+0x1d70>

   1ab68:	00088493          	mv	s1,a7

   1ab6c:	00048c9b          	sext.w	s9,s1

   1ab70:	e68ff06f          	j	1a1d8 <_svfprintf_r+0x13dc>

   1ab74:	00813783          	ld	a5,8(sp)

   1ab78:	00090d13          	mv	s10,s2

   1ab7c:	00f71023          	sh	a5,0(a4)

   1ab80:	9e5fe06f          	j	19564 <_svfprintf_r+0x768>

   1ab84:	01013783          	ld	a5,16(sp)

   1ab88:	00040813          	mv	a6,s0

   1ab8c:	00d13823          	sd	a3,16(sp)

   1ab90:	0007aa83          	lw	s5,0(a5)

   1ab94:	000a8713          	mv	a4,s5

   1ab98:	f94fe06f          	j	1932c <_svfprintf_r+0x530>

   1ab9c:	02079a93          	slli	s5,a5,0x20

   1aba0:	020ada93          	srli	s5,s5,0x20

   1aba4:	00d13823          	sd	a3,16(sp)

   1aba8:	00040813          	mv	a6,s0

   1abac:	00100713          	li	a4,1

   1abb0:	cdcfe06f          	j	1908c <_svfprintf_r+0x290>

   1abb4:	02079a93          	slli	s5,a5,0x20

   1abb8:	020ada93          	srli	s5,s5,0x20

   1abbc:	00e13823          	sd	a4,16(sp)

   1abc0:	f00fe06f          	j	192c0 <_svfprintf_r+0x4c4>

   1abc4:	0df14783          	lbu	a5,223(sp)

   1abc8:	e8dff06f          	j	1aa54 <_svfprintf_r+0x1c58>

   1abcc:	11010613          	addi	a2,sp,272

   1abd0:	000c0593          	mv	a1,s8

   1abd4:	000b0513          	mv	a0,s6

   1abd8:	098030ef          	jal	ra,1dc70 <__ssprint_r>

   1abdc:	00050463          	beqz	a0,1abe4 <_svfprintf_r+0x1de8>

   1abe0:	bf8fe06f          	j	18fd8 <_svfprintf_r+0x1dc>

   1abe4:	0e812583          	lw	a1,232(sp)

   1abe8:	12013783          	ld	a5,288(sp)

   1abec:	11812683          	lw	a3,280(sp)

   1abf0:	000b8313          	mv	t1,s7

   1abf4:	ae05dee3          	bgez	a1,1a6f0 <_svfprintf_r+0x18f4>

   1abf8:	d49ff06f          	j	1a940 <_svfprintf_r+0x1b44>

   1abfc:	00600e93          	li	t4,6

   1ac00:	d81fe06f          	j	19980 <_svfprintf_r+0xb84>

   1ac04:	00040813          	mv	a6,s0

   1ac08:	fd5fe06f          	j	19bdc <_svfprintf_r+0xde0>

   1ac0c:	02813703          	ld	a4,40(sp)

   1ac10:	00ed06b3          	add	a3,s10,a4

   1ac14:	d296fa63          	bgeu	a3,s1,1a148 <_svfprintf_r+0x134c>

   1ac18:	00068493          	mv	s1,a3

   1ac1c:	d2cff06f          	j	1a148 <_svfprintf_r+0x134c>

   1ac20:	06013703          	ld	a4,96(sp)

   1ac24:	ffd00793          	li	a5,-3

   1ac28:	00f74463          	blt	a4,a5,1ac30 <_svfprintf_r+0x1e34>

   1ac2c:	00eeda63          	bge	t4,a4,1ac40 <_svfprintf_r+0x1e44>

   1ac30:	ffe4849b          	addiw	s1,s1,-2

   1ac34:	fdf4f793          	andi	a5,s1,-33

   1ac38:	0af13423          	sd	a5,168(sp)

   1ac3c:	e21fe06f          	j	19a5c <_svfprintf_r+0xc60>

   1ac40:	02813783          	ld	a5,40(sp)

   1ac44:	06013703          	ld	a4,96(sp)

   1ac48:	24f74e63          	blt	a4,a5,1aea4 <_svfprintf_r+0x20a8>

   1ac4c:	0b013783          	ld	a5,176(sp)

   1ac50:	00070c93          	mv	s9,a4

   1ac54:	0017f793          	andi	a5,a5,1

   1ac58:	00078663          	beqz	a5,1ac64 <_svfprintf_r+0x1e68>

   1ac5c:	07813783          	ld	a5,120(sp)

   1ac60:	00e78cbb          	addw	s9,a5,a4

   1ac64:	0b013783          	ld	a5,176(sp)

   1ac68:	4007f793          	andi	a5,a5,1024

   1ac6c:	00078663          	beqz	a5,1ac78 <_svfprintf_r+0x1e7c>

   1ac70:	06013783          	ld	a5,96(sp)

   1ac74:	6ef04e63          	bgtz	a5,1b370 <_svfprintf_r+0x2574>

   1ac78:	fffcca93          	not	s5,s9

   1ac7c:	43fada93          	srai	s5,s5,0x3f

   1ac80:	015cfab3          	and	s5,s9,s5

   1ac84:	000a8a9b          	sext.w	s5,s5

   1ac88:	06700493          	li	s1,103

   1ac8c:	04013c23          	sd	zero,88(sp)

   1ac90:	06013423          	sd	zero,104(sp)

   1ac94:	f0dfe06f          	j	19ba0 <_svfprintf_r+0xda4>

   1ac98:	0df14783          	lbu	a5,223(sp)

   1ac9c:	00000e93          	li	t4,0

   1aca0:	00078463          	beqz	a5,1aca8 <_svfprintf_r+0x1eac>

   1aca4:	c40fe06f          	j	190e4 <_svfprintf_r+0x2e8>

   1aca8:	f98fe06f          	j	19440 <_svfprintf_r+0x644>

   1acac:	0e810793          	addi	a5,sp,232

   1acb0:	000e8713          	mv	a4,t4

   1acb4:	00300693          	li	a3,3

   1acb8:	000f0593          	mv	a1,t5

   1acbc:	0f810893          	addi	a7,sp,248

   1acc0:	0ec10813          	addi	a6,sp,236

   1acc4:	000c8613          	mv	a2,s9

   1acc8:	000b0513          	mv	a0,s6

   1accc:	02613c23          	sd	t1,56(sp)

   1acd0:	03d13423          	sd	t4,40(sp)

   1acd4:	01e13c23          	sd	t5,24(sp)

   1acd8:	8d9fa0ef          	jal	ra,155b0 <_ldtoa_r>

   1acdc:	00054683          	lbu	a3,0(a0)

   1ace0:	03000793          	li	a5,48

   1ace4:	00050d13          	mv	s10,a0

   1ace8:	01813f03          	ld	t5,24(sp)

   1acec:	02813e83          	ld	t4,40(sp)

   1acf0:	03813303          	ld	t1,56(sp)

   1acf4:	0cf68863          	beq	a3,a5,1adc4 <_svfprintf_r+0x1fc8>

   1acf8:	0e812783          	lw	a5,232(sp)

   1acfc:	01d787b3          	add	a5,a5,t4

   1ad00:	00fd0ab3          	add	s5,s10,a5

   1ad04:	00000613          	li	a2,0

   1ad08:	00000693          	li	a3,0

   1ad0c:	000f0513          	mv	a0,t5

   1ad10:	000c8593          	mv	a1,s9

   1ad14:	02613423          	sd	t1,40(sp)

   1ad18:	01d13c23          	sd	t4,24(sp)

   1ad1c:	14c050ef          	jal	ra,1fe68 <__eqtf2>

   1ad20:	000a8793          	mv	a5,s5

   1ad24:	01813e83          	ld	t4,24(sp)

   1ad28:	02813303          	ld	t1,40(sp)

   1ad2c:	00051463          	bnez	a0,1ad34 <_svfprintf_r+0x1f38>

   1ad30:	cfdfe06f          	j	19a2c <_svfprintf_r+0xc30>

   1ad34:	0f813783          	ld	a5,248(sp)

   1ad38:	03000613          	li	a2,48

   1ad3c:	0157e463          	bltu	a5,s5,1ad44 <_svfprintf_r+0x1f48>

   1ad40:	cedfe06f          	j	19a2c <_svfprintf_r+0xc30>

   1ad44:	00178693          	addi	a3,a5,1

   1ad48:	0ed13c23          	sd	a3,248(sp)

   1ad4c:	00c78023          	sb	a2,0(a5)

   1ad50:	0f813783          	ld	a5,248(sp)

   1ad54:	ff57e8e3          	bltu	a5,s5,1ad44 <_svfprintf_r+0x1f48>

   1ad58:	cd5fe06f          	j	19a2c <_svfprintf_r+0xc30>

   1ad5c:	11010613          	addi	a2,sp,272

   1ad60:	000c0593          	mv	a1,s8

   1ad64:	000b0513          	mv	a0,s6

   1ad68:	709020ef          	jal	ra,1dc70 <__ssprint_r>

   1ad6c:	00050463          	beqz	a0,1ad74 <_svfprintf_r+0x1f78>

   1ad70:	a68fe06f          	j	18fd8 <_svfprintf_r+0x1dc>

   1ad74:	07013783          	ld	a5,112(sp)

   1ad78:	000b8313          	mv	t1,s7

   1ad7c:	00700813          	li	a6,7

   1ad80:	0007c603          	lbu	a2,0(a5)

   1ad84:	12013783          	ld	a5,288(sp)

   1ad88:	00c484b3          	add	s1,s1,a2

   1ad8c:	fd8ff06f          	j	1a564 <_svfprintf_r+0x1768>

   1ad90:	02d00793          	li	a5,45

   1ad94:	0cf10fa3          	sb	a5,223(sp)

   1ad98:	ae9ff06f          	j	1a880 <_svfprintf_r+0x1a84>

   1ad9c:	11010613          	addi	a2,sp,272

   1ada0:	000c0593          	mv	a1,s8

   1ada4:	000b0513          	mv	a0,s6

   1ada8:	6c9020ef          	jal	ra,1dc70 <__ssprint_r>

   1adac:	00050463          	beqz	a0,1adb4 <_svfprintf_r+0x1fb8>

   1adb0:	a28fe06f          	j	18fd8 <_svfprintf_r+0x1dc>

   1adb4:	0e812683          	lw	a3,232(sp)

   1adb8:	12013783          	ld	a5,288(sp)

   1adbc:	000b8313          	mv	t1,s7

   1adc0:	bccff06f          	j	1a18c <_svfprintf_r+0x1390>

   1adc4:	000f0513          	mv	a0,t5

   1adc8:	00000613          	li	a2,0

   1adcc:	00000693          	li	a3,0

   1add0:	000c8593          	mv	a1,s9

   1add4:	02613c23          	sd	t1,56(sp)

   1add8:	03d13423          	sd	t4,40(sp)

   1addc:	01e13c23          	sd	t5,24(sp)

   1ade0:	088050ef          	jal	ra,1fe68 <__eqtf2>

   1ade4:	01813f03          	ld	t5,24(sp)

   1ade8:	02813e83          	ld	t4,40(sp)

   1adec:	03813303          	ld	t1,56(sp)

   1adf0:	f00504e3          	beqz	a0,1acf8 <_svfprintf_r+0x1efc>

   1adf4:	00100693          	li	a3,1

   1adf8:	41d687bb          	subw	a5,a3,t4

   1adfc:	0ef12423          	sw	a5,232(sp)

   1ae00:	efdff06f          	j	1acfc <_svfprintf_r+0x1f00>

   1ae04:	0df14783          	lbu	a5,223(sp)

   1ae08:	00d13823          	sd	a3,16(sp)

   1ae0c:	04013c23          	sd	zero,88(sp)

   1ae10:	06013423          	sd	zero,104(sp)

   1ae14:	06013023          	sd	zero,96(sp)

   1ae18:	000e8a93          	mv	s5,t4

   1ae1c:	000e8c93          	mv	s9,t4

   1ae20:	00000e93          	li	t4,0

   1ae24:	00078463          	beqz	a5,1ae2c <_svfprintf_r+0x2030>

   1ae28:	abcfe06f          	j	190e4 <_svfprintf_r+0x2e8>

   1ae2c:	e14fe06f          	j	19440 <_svfprintf_r+0x644>

   1ae30:	11010613          	addi	a2,sp,272

   1ae34:	000c0593          	mv	a1,s8

   1ae38:	000b0513          	mv	a0,s6

   1ae3c:	635020ef          	jal	ra,1dc70 <__ssprint_r>

   1ae40:	00050463          	beqz	a0,1ae48 <_svfprintf_r+0x204c>

   1ae44:	994fe06f          	j	18fd8 <_svfprintf_r+0x1dc>

   1ae48:	0e812703          	lw	a4,232(sp)

   1ae4c:	02813683          	ld	a3,40(sp)

   1ae50:	12013783          	ld	a5,288(sp)

   1ae54:	000b8313          	mv	t1,s7

   1ae58:	40e6873b          	subw	a4,a3,a4

   1ae5c:	b7cff06f          	j	1a1d8 <_svfprintf_r+0x13dc>

   1ae60:	0b013783          	ld	a5,176(sp)

   1ae64:	06013703          	ld	a4,96(sp)

   1ae68:	0017f793          	andi	a5,a5,1

   1ae6c:	00fee7b3          	or	a5,t4,a5

   1ae70:	0007879b          	sext.w	a5,a5

   1ae74:	5ce05263          	blez	a4,1b438 <_svfprintf_r+0x263c>

   1ae78:	58079c63          	bnez	a5,1b410 <_svfprintf_r+0x2614>

   1ae7c:	06013c83          	ld	s9,96(sp)

   1ae80:	06600493          	li	s1,102

   1ae84:	0b013783          	ld	a5,176(sp)

   1ae88:	4007f793          	andi	a5,a5,1024

   1ae8c:	4e079463          	bnez	a5,1b374 <_svfprintf_r+0x2578>

   1ae90:	fffcca93          	not	s5,s9

   1ae94:	43fada93          	srai	s5,s5,0x3f

   1ae98:	015cfab3          	and	s5,s9,s5

   1ae9c:	000a8a9b          	sext.w	s5,s5

   1aea0:	dedff06f          	j	1ac8c <_svfprintf_r+0x1e90>

   1aea4:	02813703          	ld	a4,40(sp)

   1aea8:	07813783          	ld	a5,120(sp)

   1aeac:	06700493          	li	s1,103

   1aeb0:	00e78cbb          	addw	s9,a5,a4

   1aeb4:	06013703          	ld	a4,96(sp)

   1aeb8:	fce046e3          	bgtz	a4,1ae84 <_svfprintf_r+0x2088>

   1aebc:	40ec87bb          	subw	a5,s9,a4

   1aec0:	0017879b          	addiw	a5,a5,1

   1aec4:	00078c9b          	sext.w	s9,a5

   1aec8:	fffcca93          	not	s5,s9

   1aecc:	43fada93          	srai	s5,s5,0x3f

   1aed0:	0157f7b3          	and	a5,a5,s5

   1aed4:	00078a9b          	sext.w	s5,a5

   1aed8:	db5ff06f          	j	1ac8c <_svfprintf_r+0x1e90>

   1aedc:	03000793          	li	a5,48

   1aee0:	0ef10023          	sb	a5,224(sp)

   1aee4:	05800713          	li	a4,88

   1aee8:	00246793          	ori	a5,s0,2

   1aeec:	0007879b          	sext.w	a5,a5

   1aef0:	0ee100a3          	sb	a4,225(sp)

   1aef4:	06300693          	li	a3,99

   1aef8:	0af13823          	sd	a5,176(sp)

   1aefc:	02013023          	sd	zero,32(sp)

   1af00:	12810d13          	addi	s10,sp,296

   1af04:	2dd6c663          	blt	a3,t4,1b1d0 <_svfprintf_r+0x23d4>

   1af08:	10813c83          	ld	s9,264(sp)

   1af0c:	fdf4f793          	andi	a5,s1,-33

   1af10:	10246413          	ori	s0,s0,258

   1af14:	0af13423          	sd	a5,168(sp)

   1af18:	0c013423          	sd	zero,200(sp)

   1af1c:	0004041b          	sext.w	s0,s0

   1af20:	10013f03          	ld	t5,256(sp)

   1af24:	220cca63          	bltz	s9,1b158 <_svfprintf_r+0x235c>

   1af28:	06100793          	li	a5,97

   1af2c:	3cf48863          	beq	s1,a5,1b2fc <_svfprintf_r+0x2500>

   1af30:	04100793          	li	a5,65

   1af34:	00f48463          	beq	s1,a5,1af3c <_svfprintf_r+0x2140>

   1af38:	a71fe06f          	j	199a8 <_svfprintf_r+0xbac>

   1af3c:	000f0513          	mv	a0,t5

   1af40:	000c8593          	mv	a1,s9

   1af44:	04613023          	sd	t1,64(sp)

   1af48:	03d13c23          	sd	t4,56(sp)

   1af4c:	7d0060ef          	jal	ra,2171c <__trunctfdf2>

   1af50:	0e810593          	addi	a1,sp,232

   1af54:	ff0fd0ef          	jal	ra,18744 <frexp>

   1af58:	6a4060ef          	jal	ra,215fc <__extenddftf2>

   1af5c:	00007797          	auipc	a5,0x7

   1af60:	ea478793          	addi	a5,a5,-348 # 21e00 <zeroes.4541+0x30>

   1af64:	0087b683          	ld	a3,8(a5)

   1af68:	00000613          	li	a2,0

   1af6c:	1a4050ef          	jal	ra,20110 <__multf3>

   1af70:	00000613          	li	a2,0

   1af74:	00000693          	li	a3,0

   1af78:	02a13423          	sd	a0,40(sp)

   1af7c:	00b13c23          	sd	a1,24(sp)

   1af80:	6e9040ef          	jal	ra,1fe68 <__eqtf2>

   1af84:	01813f83          	ld	t6,24(sp)

   1af88:	02813f03          	ld	t5,40(sp)

   1af8c:	03813e83          	ld	t4,56(sp)

   1af90:	04013303          	ld	t1,64(sp)

   1af94:	00051663          	bnez	a0,1afa0 <_svfprintf_r+0x21a4>

   1af98:	00100793          	li	a5,1

   1af9c:	0ef12423          	sw	a5,232(sp)

   1afa0:	00007797          	auipc	a5,0x7

   1afa4:	ea878793          	addi	a5,a5,-344 # 21e48 <zeroes.4541+0x78>

   1afa8:	06f13423          	sd	a5,104(sp)

   1afac:	000e879b          	sext.w	a5,t4

   1afb0:	02079c93          	slli	s9,a5,0x20

   1afb4:	00fd07bb          	addw	a5,s10,a5

   1afb8:	0af12e23          	sw	a5,188(sp)

   1afbc:	00007797          	auipc	a5,0x7

   1afc0:	e2478793          	addi	a5,a5,-476 # 21de0 <zeroes.4541+0x10>

   1afc4:	0087b783          	ld	a5,8(a5)

   1afc8:	020cdc93          	srli	s9,s9,0x20

   1afcc:	001c8c93          	addi	s9,s9,1

   1afd0:	019d0cb3          	add	s9,s10,s9

   1afd4:	01a13c23          	sd	s10,24(sp)

   1afd8:	0cf13023          	sd	a5,192(sp)

   1afdc:	03c0006f          	j	1b018 <_svfprintf_r+0x221c>

   1afe0:	00000613          	li	a2,0

   1afe4:	00000693          	li	a3,0

   1afe8:	06b13023          	sd	a1,96(sp)

   1afec:	04a13c23          	sd	a0,88(sp)

   1aff0:	679040ef          	jal	ra,1fe68 <__eqtf2>

   1aff4:	04013e83          	ld	t4,64(sp)

   1aff8:	04813303          	ld	t1,72(sp)

   1affc:	05813883          	ld	a7,88(sp)

   1b000:	06013803          	ld	a6,96(sp)

   1b004:	02813783          	ld	a5,40(sp)

   1b008:	03813f83          	ld	t6,56(sp)

   1b00c:	05013f03          	ld	t5,80(sp)

   1b010:	2a050463          	beqz	a0,1b2b8 <_svfprintf_r+0x24bc>

   1b014:	00f13c23          	sd	a5,24(sp)

   1b018:	0c013683          	ld	a3,192(sp)

   1b01c:	00000613          	li	a2,0

   1b020:	000f0513          	mv	a0,t5

   1b024:	000f8593          	mv	a1,t6

   1b028:	04613423          	sd	t1,72(sp)

   1b02c:	05d13023          	sd	t4,64(sp)

   1b030:	0e0050ef          	jal	ra,20110 <__multf3>

   1b034:	02b13423          	sd	a1,40(sp)

   1b038:	02a13c23          	sd	a0,56(sp)

   1b03c:	45c060ef          	jal	ra,21498 <__fixtfsi>

   1b040:	00050a9b          	sext.w	s5,a0

   1b044:	000a8513          	mv	a0,s5

   1b048:	524060ef          	jal	ra,2156c <__floatsitf>

   1b04c:	03813803          	ld	a6,56(sp)

   1b050:	02813783          	ld	a5,40(sp)

   1b054:	00058693          	mv	a3,a1

   1b058:	00050613          	mv	a2,a0

   1b05c:	00078593          	mv	a1,a5

   1b060:	00080513          	mv	a0,a6

   1b064:	19d050ef          	jal	ra,20a00 <__subtf3>

   1b068:	06813783          	ld	a5,104(sp)

   1b06c:	0bc12703          	lw	a4,188(sp)

   1b070:	04a13823          	sd	a0,80(sp)

   1b074:	015787b3          	add	a5,a5,s5

   1b078:	0007c683          	lbu	a3,0(a5)

   1b07c:	01813783          	ld	a5,24(sp)

   1b080:	02b13c23          	sd	a1,56(sp)

   1b084:	00050893          	mv	a7,a0

   1b088:	00d78023          	sb	a3,0(a5)

   1b08c:	00178793          	addi	a5,a5,1

   1b090:	40f7073b          	subw	a4,a4,a5

   1b094:	0ae13023          	sd	a4,160(sp)

   1b098:	02f13423          	sd	a5,40(sp)

   1b09c:	00058813          	mv	a6,a1

   1b0a0:	04013e83          	ld	t4,64(sp)

   1b0a4:	04813303          	ld	t1,72(sp)

   1b0a8:	f2fc9ce3          	bne	s9,a5,1afe0 <_svfprintf_r+0x21e4>

   1b0ac:	fff00793          	li	a5,-1

   1b0b0:	0af13023          	sd	a5,160(sp)

   1b0b4:	00007797          	auipc	a5,0x7

   1b0b8:	d3c78793          	addi	a5,a5,-708 # 21df0 <zeroes.4541+0x20>

   1b0bc:	0087b783          	ld	a5,8(a5)

   1b0c0:	00000613          	li	a2,0

   1b0c4:	00088513          	mv	a0,a7

   1b0c8:	00078693          	mv	a3,a5

   1b0cc:	00080593          	mv	a1,a6

   1b0d0:	04613023          	sd	t1,64(sp)

   1b0d4:	03d13c23          	sd	t4,56(sp)

   1b0d8:	02f13423          	sd	a5,40(sp)

   1b0dc:	05113823          	sd	a7,80(sp)

   1b0e0:	05013423          	sd	a6,72(sp)

   1b0e4:	65d040ef          	jal	ra,1ff40 <__getf2>

   1b0e8:	03813e83          	ld	t4,56(sp)

   1b0ec:	04013303          	ld	t1,64(sp)

   1b0f0:	08a04063          	bgtz	a0,1b170 <_svfprintf_r+0x2374>

   1b0f4:	05013883          	ld	a7,80(sp)

   1b0f8:	04813803          	ld	a6,72(sp)

   1b0fc:	02813683          	ld	a3,40(sp)

   1b100:	00000613          	li	a2,0

   1b104:	00088513          	mv	a0,a7

   1b108:	00080593          	mv	a1,a6

   1b10c:	55d040ef          	jal	ra,1fe68 <__eqtf2>

   1b110:	03813e83          	ld	t4,56(sp)

   1b114:	04013303          	ld	t1,64(sp)

   1b118:	00051663          	bnez	a0,1b124 <_svfprintf_r+0x2328>

   1b11c:	001afa93          	andi	s5,s5,1

   1b120:	040a9863          	bnez	s5,1b170 <_svfprintf_r+0x2374>

   1b124:	0a013703          	ld	a4,160(sp)

   1b128:	03000693          	li	a3,48

   1b12c:	00170793          	addi	a5,a4,1

   1b130:	00fc87b3          	add	a5,s9,a5

   1b134:	00074863          	bltz	a4,1b144 <_svfprintf_r+0x2348>

   1b138:	001c8c93          	addi	s9,s9,1

   1b13c:	fedc8fa3          	sb	a3,-1(s9)

   1b140:	ff979ce3          	bne	a5,s9,1b138 <_svfprintf_r+0x233c>

   1b144:	41ac87bb          	subw	a5,s9,s10

   1b148:	02f13423          	sd	a5,40(sp)

   1b14c:	8e9fe06f          	j	19a34 <_svfprintf_r+0xc38>

   1b150:	02013023          	sd	zero,32(sp)

   1b154:	00078413          	mv	s0,a5

   1b158:	fff00793          	li	a5,-1

   1b15c:	03f79793          	slli	a5,a5,0x3f

   1b160:	00fcccb3          	xor	s9,s9,a5

   1b164:	02d00793          	li	a5,45

   1b168:	0cf13423          	sd	a5,200(sp)

   1b16c:	dbdff06f          	j	1af28 <_svfprintf_r+0x212c>

   1b170:	01813783          	ld	a5,24(sp)

   1b174:	0ef13c23          	sd	a5,248(sp)

   1b178:	06813783          	ld	a5,104(sp)

   1b17c:	fffcc683          	lbu	a3,-1(s9)

   1b180:	00f7c603          	lbu	a2,15(a5)

   1b184:	000c8793          	mv	a5,s9

   1b188:	02d61063          	bne	a2,a3,1b1a8 <_svfprintf_r+0x23ac>

   1b18c:	03000593          	li	a1,48

   1b190:	feb78fa3          	sb	a1,-1(a5)

   1b194:	0f813783          	ld	a5,248(sp)

   1b198:	fff78693          	addi	a3,a5,-1

   1b19c:	0ed13c23          	sd	a3,248(sp)

   1b1a0:	fff7c683          	lbu	a3,-1(a5)

   1b1a4:	fed606e3          	beq	a2,a3,1b190 <_svfprintf_r+0x2394>

   1b1a8:	0016861b          	addiw	a2,a3,1

   1b1ac:	03900593          	li	a1,57

   1b1b0:	0ff67613          	andi	a2,a2,255

   1b1b4:	00b68663          	beq	a3,a1,1b1c0 <_svfprintf_r+0x23c4>

   1b1b8:	fec78fa3          	sb	a2,-1(a5)

   1b1bc:	f89ff06f          	j	1b144 <_svfprintf_r+0x2348>

   1b1c0:	06813703          	ld	a4,104(sp)

   1b1c4:	00a74603          	lbu	a2,10(a4)

   1b1c8:	fec78fa3          	sb	a2,-1(a5)

   1b1cc:	f79ff06f          	j	1b144 <_svfprintf_r+0x2348>

   1b1d0:	001e859b          	addiw	a1,t4,1

   1b1d4:	000b0513          	mv	a0,s6

   1b1d8:	02613023          	sd	t1,32(sp)

   1b1dc:	01d13c23          	sd	t4,24(sp)

   1b1e0:	9ddfb0ef          	jal	ra,16bbc <_malloc_r>

   1b1e4:	00050d13          	mv	s10,a0

   1b1e8:	01813e83          	ld	t4,24(sp)

   1b1ec:	02013303          	ld	t1,32(sp)

   1b1f0:	2c050463          	beqz	a0,1b4b8 <_svfprintf_r+0x26bc>

   1b1f4:	02a13023          	sd	a0,32(sp)

   1b1f8:	d11ff06f          	j	1af08 <_svfprintf_r+0x210c>

   1b1fc:	001e8a9b          	addiw	s5,t4,1

   1b200:	000a8713          	mv	a4,s5

   1b204:	000f0593          	mv	a1,t5

   1b208:	0f810893          	addi	a7,sp,248

   1b20c:	0ec10813          	addi	a6,sp,236

   1b210:	0e810793          	addi	a5,sp,232

   1b214:	00200693          	li	a3,2

   1b218:	000c8613          	mv	a2,s9

   1b21c:	000b0513          	mv	a0,s6

   1b220:	03d13423          	sd	t4,40(sp)

   1b224:	01e13c23          	sd	t5,24(sp)

   1b228:	b88fa0ef          	jal	ra,155b0 <_ldtoa_r>

   1b22c:	00050d13          	mv	s10,a0

   1b230:	01813f03          	ld	t5,24(sp)

   1b234:	02813e83          	ld	t4,40(sp)

   1b238:	03813303          	ld	t1,56(sp)

   1b23c:	015d0ab3          	add	s5,s10,s5

   1b240:	ac5ff06f          	j	1ad04 <_svfprintf_r+0x1f08>

   1b244:	0016869b          	addiw	a3,a3,1

   1b248:	009787b3          	add	a5,a5,s1

   1b24c:	01333023          	sd	s3,0(t1)

   1b250:	00933423          	sd	s1,8(t1)

   1b254:	12f13023          	sd	a5,288(sp)

   1b258:	10d12c23          	sw	a3,280(sp)

   1b25c:	00700613          	li	a2,7

   1b260:	c8d65663          	bge	a2,a3,1a6ec <_svfprintf_r+0x18f0>

   1b264:	11010613          	addi	a2,sp,272

   1b268:	000c0593          	mv	a1,s8

   1b26c:	000b0513          	mv	a0,s6

   1b270:	201020ef          	jal	ra,1dc70 <__ssprint_r>

   1b274:	00050463          	beqz	a0,1b27c <_svfprintf_r+0x2480>

   1b278:	d61fd06f          	j	18fd8 <_svfprintf_r+0x1dc>

   1b27c:	12013783          	ld	a5,288(sp)

   1b280:	11812683          	lw	a3,280(sp)

   1b284:	000b8313          	mv	t1,s7

   1b288:	c68ff06f          	j	1a6f0 <_svfprintf_r+0x18f4>

   1b28c:	03000793          	li	a5,48

   1b290:	0ef10023          	sb	a5,224(sp)

   1b294:	07800713          	li	a4,120

   1b298:	c51ff06f          	j	1aee8 <_svfprintf_r+0x20ec>

   1b29c:	000e8463          	beqz	t4,1b2a4 <_svfprintf_r+0x24a8>

   1b2a0:	ee0fe06f          	j	19980 <_svfprintf_r+0xb84>

   1b2a4:	00100e93          	li	t4,1

   1b2a8:	ed8fe06f          	j	19980 <_svfprintf_r+0xb84>

   1b2ac:	00f72023          	sw	a5,0(a4)

   1b2b0:	00090d13          	mv	s10,s2

   1b2b4:	ab0fe06f          	j	19564 <_svfprintf_r+0x768>

   1b2b8:	00078c93          	mv	s9,a5

   1b2bc:	df9ff06f          	j	1b0b4 <_svfprintf_r+0x22b8>

   1b2c0:	fff00793          	li	a5,-1

   1b2c4:	00f13423          	sd	a5,8(sp)

   1b2c8:	d35fd06f          	j	18ffc <_svfprintf_r+0x200>

   1b2cc:	0f210693          	addi	a3,sp,242

   1b2d0:	00061863          	bnez	a2,1b2e0 <_svfprintf_r+0x24e4>

   1b2d4:	03000793          	li	a5,48

   1b2d8:	0ef10923          	sb	a5,242(sp)

   1b2dc:	0f310693          	addi	a3,sp,243

   1b2e0:	21010713          	addi	a4,sp,528

   1b2e4:	030a879b          	addiw	a5,s5,48

   1b2e8:	40e68633          	sub	a2,a3,a4

   1b2ec:	00f68023          	sb	a5,0(a3)

   1b2f0:	1216079b          	addiw	a5,a2,289

   1b2f4:	08f13823          	sd	a5,144(sp)

   1b2f8:	859fe06f          	j	19b50 <_svfprintf_r+0xd54>

   1b2fc:	000f0513          	mv	a0,t5

   1b300:	000c8593          	mv	a1,s9

   1b304:	04613023          	sd	t1,64(sp)

   1b308:	03d13c23          	sd	t4,56(sp)

   1b30c:	410060ef          	jal	ra,2171c <__trunctfdf2>

   1b310:	0e810593          	addi	a1,sp,232

   1b314:	c30fd0ef          	jal	ra,18744 <frexp>

   1b318:	2e4060ef          	jal	ra,215fc <__extenddftf2>

   1b31c:	00007797          	auipc	a5,0x7

   1b320:	ae478793          	addi	a5,a5,-1308 # 21e00 <zeroes.4541+0x30>

   1b324:	0087b683          	ld	a3,8(a5)

   1b328:	00000613          	li	a2,0

   1b32c:	5e5040ef          	jal	ra,20110 <__multf3>

   1b330:	00000613          	li	a2,0

   1b334:	00000693          	li	a3,0

   1b338:	02a13423          	sd	a0,40(sp)

   1b33c:	00b13c23          	sd	a1,24(sp)

   1b340:	329040ef          	jal	ra,1fe68 <__eqtf2>

   1b344:	01813f83          	ld	t6,24(sp)

   1b348:	02813f03          	ld	t5,40(sp)

   1b34c:	03813e83          	ld	t4,56(sp)

   1b350:	04013303          	ld	t1,64(sp)

   1b354:	00051663          	bnez	a0,1b360 <_svfprintf_r+0x2564>

   1b358:	00100793          	li	a5,1

   1b35c:	0ef12423          	sw	a5,232(sp)

   1b360:	00007797          	auipc	a5,0x7

   1b364:	ad078793          	addi	a5,a5,-1328 # 21e30 <zeroes.4541+0x60>

   1b368:	06f13423          	sd	a5,104(sp)

   1b36c:	c41ff06f          	j	1afac <_svfprintf_r+0x21b0>

   1b370:	06700493          	li	s1,103

   1b374:	07013783          	ld	a5,112(sp)

   1b378:	04013c23          	sd	zero,88(sp)

   1b37c:	06013423          	sd	zero,104(sp)

   1b380:	0007c783          	lbu	a5,0(a5)

   1b384:	0ff00593          	li	a1,255

   1b388:	04b78863          	beq	a5,a1,1b3d8 <_svfprintf_r+0x25dc>

   1b38c:	06013703          	ld	a4,96(sp)

   1b390:	0007869b          	sext.w	a3,a5

   1b394:	04e6d263          	bge	a3,a4,1b3d8 <_svfprintf_r+0x25dc>

   1b398:	07013503          	ld	a0,112(sp)

   1b39c:	40d7073b          	subw	a4,a4,a3

   1b3a0:	06e13023          	sd	a4,96(sp)

   1b3a4:	00154603          	lbu	a2,1(a0)

   1b3a8:	02060063          	beqz	a2,1b3c8 <_svfprintf_r+0x25cc>

   1b3ac:	06813783          	ld	a5,104(sp)

   1b3b0:	0017879b          	addiw	a5,a5,1

   1b3b4:	06f13423          	sd	a5,104(sp)

   1b3b8:	00150793          	addi	a5,a0,1

   1b3bc:	06f13823          	sd	a5,112(sp)

   1b3c0:	00060793          	mv	a5,a2

   1b3c4:	fc5ff06f          	j	1b388 <_svfprintf_r+0x258c>

   1b3c8:	05813703          	ld	a4,88(sp)

   1b3cc:	0017071b          	addiw	a4,a4,1

   1b3d0:	04e13c23          	sd	a4,88(sp)

   1b3d4:	fb5ff06f          	j	1b388 <_svfprintf_r+0x258c>

   1b3d8:	06813783          	ld	a5,104(sp)

   1b3dc:	05813703          	ld	a4,88(sp)

   1b3e0:	08813583          	ld	a1,136(sp)

   1b3e4:	00613c23          	sd	t1,24(sp)

   1b3e8:	00e7853b          	addw	a0,a5,a4

   1b3ec:	628060ef          	jal	ra,21a14 <__muldi3>

   1b3f0:	0195053b          	addw	a0,a0,s9

   1b3f4:	00050c9b          	sext.w	s9,a0

   1b3f8:	fffcca93          	not	s5,s9

   1b3fc:	43fada93          	srai	s5,s5,0x3f

   1b400:	01557533          	and	a0,a0,s5

   1b404:	00050a9b          	sext.w	s5,a0

   1b408:	01813303          	ld	t1,24(sp)

   1b40c:	f94fe06f          	j	19ba0 <_svfprintf_r+0xda4>

   1b410:	07813783          	ld	a5,120(sp)

   1b414:	06600493          	li	s1,102

   1b418:	00e78cbb          	addw	s9,a5,a4

   1b41c:	01dc8cbb          	addw	s9,s9,t4

   1b420:	a65ff06f          	j	1ae84 <_svfprintf_r+0x2088>

   1b424:	0b013703          	ld	a4,176(sp)

   1b428:	00177693          	andi	a3,a4,1

   1b42c:	00069463          	bnez	a3,1b434 <_svfprintf_r+0x2638>

   1b430:	f44fe06f          	j	19b74 <_svfprintf_r+0xd78>

   1b434:	f38fe06f          	j	19b6c <_svfprintf_r+0xd70>

   1b438:	00079a63          	bnez	a5,1b44c <_svfprintf_r+0x2650>

   1b43c:	00100a93          	li	s5,1

   1b440:	06600493          	li	s1,102

   1b444:	00100c93          	li	s9,1

   1b448:	845ff06f          	j	1ac8c <_svfprintf_r+0x1e90>

   1b44c:	07813783          	ld	a5,120(sp)

   1b450:	06600493          	li	s1,102

   1b454:	0017879b          	addiw	a5,a5,1

   1b458:	01d78ebb          	addw	t4,a5,t4

   1b45c:	000e8c9b          	sext.w	s9,t4

   1b460:	fffcca93          	not	s5,s9

   1b464:	43fada93          	srai	s5,s5,0x3f

   1b468:	015efeb3          	and	t4,t4,s5

   1b46c:	000e8a9b          	sext.w	s5,t4

   1b470:	81dff06f          	j	1ac8c <_svfprintf_r+0x1e90>

   1b474:	00030793          	mv	a5,t1

   1b478:	d34ff06f          	j	1a9ac <_svfprintf_r+0x1bb0>

   1b47c:	01013703          	ld	a4,16(sp)

   1b480:	00072e83          	lw	t4,0(a4)

   1b484:	00870693          	addi	a3,a4,8

   1b488:	000ed463          	bgez	t4,1b490 <_svfprintf_r+0x2694>

   1b48c:	fff00e93          	li	t4,-1

   1b490:	00194483          	lbu	s1,1(s2)

   1b494:	00d13823          	sd	a3,16(sp)

   1b498:	00078913          	mv	s2,a5

   1b49c:	ab9fd06f          	j	18f54 <_svfprintf_r+0x158>

   1b4a0:	00200793          	li	a5,2

   1b4a4:	08f13823          	sd	a5,144(sp)

   1b4a8:	ea8fe06f          	j	19b50 <_svfprintf_r+0xd54>

   1b4ac:	000e8a93          	mv	s5,t4

   1b4b0:	015d0ab3          	add	s5,s10,s5

   1b4b4:	851ff06f          	j	1ad04 <_svfprintf_r+0x1f08>

   1b4b8:	010c5783          	lhu	a5,16(s8)

   1b4bc:	0407e713          	ori	a4,a5,64

   1b4c0:	00070793          	mv	a5,a4

   1b4c4:	00ec1823          	sh	a4,16(s8)

   1b4c8:	b29fd06f          	j	18ff0 <_svfprintf_r+0x1f4>

   1b4cc:	00c00793          	li	a5,12

   1b4d0:	00fb2023          	sw	a5,0(s6)

   1b4d4:	fff00793          	li	a5,-1

   1b4d8:	00f13423          	sd	a5,8(sp)

   1b4dc:	b21fd06f          	j	18ffc <_svfprintf_r+0x200>



000000000001b4e0 <__sprint_r.part.0>:

   1b4e0:	0ac5a783          	lw	a5,172(a1)

   1b4e4:	fb010113          	addi	sp,sp,-80

   1b4e8:	01513c23          	sd	s5,24(sp)

   1b4ec:	04113423          	sd	ra,72(sp)

   1b4f0:	04813023          	sd	s0,64(sp)

   1b4f4:	02913c23          	sd	s1,56(sp)

   1b4f8:	03213823          	sd	s2,48(sp)

   1b4fc:	03313423          	sd	s3,40(sp)

   1b500:	03413023          	sd	s4,32(sp)

   1b504:	01613823          	sd	s6,16(sp)

   1b508:	01713423          	sd	s7,8(sp)

   1b50c:	03279713          	slli	a4,a5,0x32

   1b510:	00060a93          	mv	s5,a2

   1b514:	0c075063          	bgez	a4,1b5d4 <__sprint_r.part.0+0xf4>

   1b518:	01063703          	ld	a4,16(a2)

   1b51c:	00058913          	mv	s2,a1

   1b520:	00050993          	mv	s3,a0

   1b524:	00063b03          	ld	s6,0(a2)

   1b528:	fff00a13          	li	s4,-1

   1b52c:	0a070063          	beqz	a4,1b5cc <__sprint_r.part.0+0xec>

   1b530:	008b3783          	ld	a5,8(s6)

   1b534:	000b3403          	ld	s0,0(s6)

   1b538:	0027d793          	srli	a5,a5,0x2

   1b53c:	00078b9b          	sext.w	s7,a5

   1b540:	07705c63          	blez	s7,1b5b8 <__sprint_r.part.0+0xd8>

   1b544:	fff7849b          	addiw	s1,a5,-1

   1b548:	02049493          	slli	s1,s1,0x20

   1b54c:	01e4d493          	srli	s1,s1,0x1e

   1b550:	00440793          	addi	a5,s0,4

   1b554:	00f484b3          	add	s1,s1,a5

   1b558:	0080006f          	j	1b560 <__sprint_r.part.0+0x80>

   1b55c:	04848c63          	beq	s1,s0,1b5b4 <__sprint_r.part.0+0xd4>

   1b560:	00042583          	lw	a1,0(s0)

   1b564:	00090613          	mv	a2,s2

   1b568:	00098513          	mv	a0,s3

   1b56c:	6ec010ef          	jal	ra,1cc58 <_fputwc_r>

   1b570:	0005051b          	sext.w	a0,a0

   1b574:	00440413          	addi	s0,s0,4

   1b578:	ff4512e3          	bne	a0,s4,1b55c <__sprint_r.part.0+0x7c>

   1b57c:	fff00513          	li	a0,-1

   1b580:	04813083          	ld	ra,72(sp)

   1b584:	04013403          	ld	s0,64(sp)

   1b588:	000ab823          	sd	zero,16(s5)

   1b58c:	000aa423          	sw	zero,8(s5)

   1b590:	03813483          	ld	s1,56(sp)

   1b594:	03013903          	ld	s2,48(sp)

   1b598:	02813983          	ld	s3,40(sp)

   1b59c:	02013a03          	ld	s4,32(sp)

   1b5a0:	01813a83          	ld	s5,24(sp)

   1b5a4:	01013b03          	ld	s6,16(sp)

   1b5a8:	00813b83          	ld	s7,8(sp)

   1b5ac:	05010113          	addi	sp,sp,80

   1b5b0:	00008067          	ret

   1b5b4:	010ab703          	ld	a4,16(s5)

   1b5b8:	002b9b93          	slli	s7,s7,0x2

   1b5bc:	41770733          	sub	a4,a4,s7

   1b5c0:	00eab823          	sd	a4,16(s5)

   1b5c4:	010b0b13          	addi	s6,s6,16

   1b5c8:	f60714e3          	bnez	a4,1b530 <__sprint_r.part.0+0x50>

   1b5cc:	00000513          	li	a0,0

   1b5d0:	fb1ff06f          	j	1b580 <__sprint_r.part.0+0xa0>

   1b5d4:	798010ef          	jal	ra,1cd6c <__sfvwrite_r>

   1b5d8:	fa9ff06f          	j	1b580 <__sprint_r.part.0+0xa0>



000000000001b5dc <__sprint_r>:

   1b5dc:	01063703          	ld	a4,16(a2)

   1b5e0:	00070463          	beqz	a4,1b5e8 <__sprint_r+0xc>

   1b5e4:	efdff06f          	j	1b4e0 <__sprint_r.part.0>

   1b5e8:	00062423          	sw	zero,8(a2)

   1b5ec:	00000513          	li	a0,0

   1b5f0:	00008067          	ret



000000000001b5f4 <_vfiprintf_r>:

   1b5f4:	e2010113          	addi	sp,sp,-480

   1b5f8:	1d213023          	sd	s2,448(sp)

   1b5fc:	1b313c23          	sd	s3,440(sp)

   1b600:	19a13023          	sd	s10,384(sp)

   1b604:	1c113c23          	sd	ra,472(sp)

   1b608:	1c813823          	sd	s0,464(sp)

   1b60c:	1c913423          	sd	s1,456(sp)

   1b610:	1b413823          	sd	s4,432(sp)

   1b614:	1b513423          	sd	s5,424(sp)

   1b618:	1b613023          	sd	s6,416(sp)

   1b61c:	19713c23          	sd	s7,408(sp)

   1b620:	19813823          	sd	s8,400(sp)

   1b624:	19913423          	sd	s9,392(sp)

   1b628:	17b13c23          	sd	s11,376(sp)

   1b62c:	00d13823          	sd	a3,16(sp)

   1b630:	00050993          	mv	s3,a0

   1b634:	00058913          	mv	s2,a1

   1b638:	00060d13          	mv	s10,a2

   1b63c:	00050663          	beqz	a0,1b648 <_vfiprintf_r+0x54>

   1b640:	05052783          	lw	a5,80(a0)

   1b644:	0a078ce3          	beqz	a5,1befc <_vfiprintf_r+0x908>

   1b648:	01091703          	lh	a4,16(s2)

   1b64c:	03071793          	slli	a5,a4,0x30

   1b650:	0307d793          	srli	a5,a5,0x30

   1b654:	03279693          	slli	a3,a5,0x32

   1b658:	0206c663          	bltz	a3,1b684 <_vfiprintf_r+0x90>

   1b65c:	0ac92683          	lw	a3,172(s2)

   1b660:	000027b7          	lui	a5,0x2

   1b664:	00f767b3          	or	a5,a4,a5

   1b668:	ffffe737          	lui	a4,0xffffe

   1b66c:	fff70713          	addi	a4,a4,-1 # ffffffffffffdfff <__BSS_END__+0xfffffffffffd953f>

   1b670:	00e6f733          	and	a4,a3,a4

   1b674:	00f91823          	sh	a5,16(s2)

   1b678:	03079793          	slli	a5,a5,0x30

   1b67c:	0ae92623          	sw	a4,172(s2)

   1b680:	0307d793          	srli	a5,a5,0x30

   1b684:	0087f713          	andi	a4,a5,8

   1b688:	14070263          	beqz	a4,1b7cc <_vfiprintf_r+0x1d8>

   1b68c:	01893703          	ld	a4,24(s2)

   1b690:	12070e63          	beqz	a4,1b7cc <_vfiprintf_r+0x1d8>

   1b694:	01a7f793          	andi	a5,a5,26

   1b698:	00a00713          	li	a4,10

   1b69c:	14e78863          	beq	a5,a4,1b7ec <_vfiprintf_r+0x1f8>

   1b6a0:	ffff87b7          	lui	a5,0xffff8

   1b6a4:	0f010413          	addi	s0,sp,240

   1b6a8:	8307c793          	xori	a5,a5,-2000

   1b6ac:	06813823          	sd	s0,112(sp)

   1b6b0:	08013023          	sd	zero,128(sp)

   1b6b4:	06012c23          	sw	zero,120(sp)

   1b6b8:	00040d93          	mv	s11,s0

   1b6bc:	02013023          	sd	zero,32(sp)

   1b6c0:	04013023          	sd	zero,64(sp)

   1b6c4:	04013823          	sd	zero,80(sp)

   1b6c8:	04013423          	sd	zero,72(sp)

   1b6cc:	00013423          	sd	zero,8(sp)

   1b6d0:	00007a97          	auipc	s5,0x7

   1b6d4:	d10a8a93          	addi	s5,s5,-752 # 223e0 <zeroes.4526+0x10>

   1b6d8:	04f13c23          	sd	a5,88(sp)

   1b6dc:	000d4783          	lbu	a5,0(s10)

   1b6e0:	12078e63          	beqz	a5,1b81c <_vfiprintf_r+0x228>

   1b6e4:	02500693          	li	a3,37

   1b6e8:	52d782e3          	beq	a5,a3,1c40c <_vfiprintf_r+0xe18>

   1b6ec:	000d0493          	mv	s1,s10

   1b6f0:	00c0006f          	j	1b6fc <_vfiprintf_r+0x108>

   1b6f4:	10d78e63          	beq	a5,a3,1b810 <_vfiprintf_r+0x21c>

   1b6f8:	000a0493          	mv	s1,s4

   1b6fc:	0014c783          	lbu	a5,1(s1)

   1b700:	00148a13          	addi	s4,s1,1

   1b704:	fe0798e3          	bnez	a5,1b6f4 <_vfiprintf_r+0x100>

   1b708:	41aa0b3b          	subw	s6,s4,s10

   1b70c:	100b0863          	beqz	s6,1b81c <_vfiprintf_r+0x228>

   1b710:	07812783          	lw	a5,120(sp)

   1b714:	08013683          	ld	a3,128(sp)

   1b718:	01adb023          	sd	s10,0(s11)

   1b71c:	0017861b          	addiw	a2,a5,1

   1b720:	00db06b3          	add	a3,s6,a3

   1b724:	016db423          	sd	s6,8(s11)

   1b728:	08d13023          	sd	a3,128(sp)

   1b72c:	06c12c23          	sw	a2,120(sp)

   1b730:	00700793          	li	a5,7

   1b734:	010d8d93          	addi	s11,s11,16

   1b738:	02c7d063          	bge	a5,a2,1b758 <_vfiprintf_r+0x164>

   1b73c:	48068ee3          	beqz	a3,1c3d8 <_vfiprintf_r+0xde4>

   1b740:	07010613          	addi	a2,sp,112

   1b744:	00090593          	mv	a1,s2

   1b748:	00098513          	mv	a0,s3

   1b74c:	d95ff0ef          	jal	ra,1b4e0 <__sprint_r.part.0>

   1b750:	0e051263          	bnez	a0,1b834 <_vfiprintf_r+0x240>

   1b754:	00040d93          	mv	s11,s0

   1b758:	00813703          	ld	a4,8(sp)

   1b75c:	0014c783          	lbu	a5,1(s1)

   1b760:	0167073b          	addw	a4,a4,s6

   1b764:	00e13423          	sd	a4,8(sp)

   1b768:	0a078a63          	beqz	a5,1b81c <_vfiprintf_r+0x228>

   1b76c:	001a0d13          	addi	s10,s4,1

   1b770:	001a4603          	lbu	a2,1(s4)

   1b774:	060103a3          	sb	zero,103(sp)

   1b778:	fff00c13          	li	s8,-1

   1b77c:	00000493          	li	s1,0

   1b780:	00000c93          	li	s9,0

   1b784:	00900a13          	li	s4,9

   1b788:	02a00b13          	li	s6,42

   1b78c:	001d0d13          	addi	s10,s10,1

   1b790:	0006061b          	sext.w	a2,a2

   1b794:	05a00513          	li	a0,90

   1b798:	fe06079b          	addiw	a5,a2,-32

   1b79c:	0007859b          	sext.w	a1,a5

   1b7a0:	1ab56a63          	bltu	a0,a1,1b954 <_vfiprintf_r+0x360>

   1b7a4:	02079793          	slli	a5,a5,0x20

   1b7a8:	01e7d793          	srli	a5,a5,0x1e

   1b7ac:	015787b3          	add	a5,a5,s5

   1b7b0:	0007a783          	lw	a5,0(a5) # ffffffffffff8000 <__BSS_END__+0xfffffffffffd3540>

   1b7b4:	015787b3          	add	a5,a5,s5

   1b7b8:	00078067          	jr	a5

   1b7bc:	010ce893          	ori	a7,s9,16

   1b7c0:	00088c9b          	sext.w	s9,a7

   1b7c4:	000d4603          	lbu	a2,0(s10)

   1b7c8:	fc5ff06f          	j	1b78c <_vfiprintf_r+0x198>

   1b7cc:	00090593          	mv	a1,s2

   1b7d0:	00098513          	mv	a0,s3

   1b7d4:	ddcf70ef          	jal	ra,12db0 <__swsetup_r>

   1b7d8:	740510e3          	bnez	a0,1c718 <_vfiprintf_r+0x1124>

   1b7dc:	01095783          	lhu	a5,16(s2)

   1b7e0:	00a00713          	li	a4,10

   1b7e4:	01a7f793          	andi	a5,a5,26

   1b7e8:	eae79ce3          	bne	a5,a4,1b6a0 <_vfiprintf_r+0xac>

   1b7ec:	01291783          	lh	a5,18(s2)

   1b7f0:	ea07c8e3          	bltz	a5,1b6a0 <_vfiprintf_r+0xac>

   1b7f4:	01013683          	ld	a3,16(sp)

   1b7f8:	000d0613          	mv	a2,s10

   1b7fc:	00090593          	mv	a1,s2

   1b800:	00098513          	mv	a0,s3

   1b804:	77d000ef          	jal	ra,1c780 <__sbprintf>

   1b808:	00a13423          	sd	a0,8(sp)

   1b80c:	0340006f          	j	1b840 <_vfiprintf_r+0x24c>

   1b810:	41aa0b3b          	subw	s6,s4,s10

   1b814:	f40b0ce3          	beqz	s6,1b76c <_vfiprintf_r+0x178>

   1b818:	ef9ff06f          	j	1b710 <_vfiprintf_r+0x11c>

   1b81c:	08013783          	ld	a5,128(sp)

   1b820:	00078a63          	beqz	a5,1b834 <_vfiprintf_r+0x240>

   1b824:	07010613          	addi	a2,sp,112

   1b828:	00090593          	mv	a1,s2

   1b82c:	00098513          	mv	a0,s3

   1b830:	cb1ff0ef          	jal	ra,1b4e0 <__sprint_r.part.0>

   1b834:	01095783          	lhu	a5,16(s2)

   1b838:	0407f793          	andi	a5,a5,64

   1b83c:	6c079ee3          	bnez	a5,1c718 <_vfiprintf_r+0x1124>

   1b840:	1d813083          	ld	ra,472(sp)

   1b844:	1d013403          	ld	s0,464(sp)

   1b848:	00813503          	ld	a0,8(sp)

   1b84c:	1c813483          	ld	s1,456(sp)

   1b850:	1c013903          	ld	s2,448(sp)

   1b854:	1b813983          	ld	s3,440(sp)

   1b858:	1b013a03          	ld	s4,432(sp)

   1b85c:	1a813a83          	ld	s5,424(sp)

   1b860:	1a013b03          	ld	s6,416(sp)

   1b864:	19813b83          	ld	s7,408(sp)

   1b868:	19013c03          	ld	s8,400(sp)

   1b86c:	18813c83          	ld	s9,392(sp)

   1b870:	18013d03          	ld	s10,384(sp)

   1b874:	17813d83          	ld	s11,376(sp)

   1b878:	1e010113          	addi	sp,sp,480

   1b87c:	00008067          	ret

   1b880:	01013703          	ld	a4,16(sp)

   1b884:	00006797          	auipc	a5,0x6

   1b888:	5c478793          	addi	a5,a5,1476 # 21e48 <zeroes.4541+0x78>

   1b88c:	02f13023          	sd	a5,32(sp)

   1b890:	020cf793          	andi	a5,s9,32

   1b894:	00870593          	addi	a1,a4,8

   1b898:	64078063          	beqz	a5,1bed8 <_vfiprintf_r+0x8e4>

   1b89c:	00073b03          	ld	s6,0(a4)

   1b8a0:	001cf513          	andi	a0,s9,1

   1b8a4:	00050e63          	beqz	a0,1b8c0 <_vfiprintf_r+0x2cc>

   1b8a8:	000b0c63          	beqz	s6,1b8c0 <_vfiprintf_r+0x2cc>

   1b8ac:	002ce893          	ori	a7,s9,2

   1b8b0:	03000513          	li	a0,48

   1b8b4:	06a10423          	sb	a0,104(sp)

   1b8b8:	06c104a3          	sb	a2,105(sp)

   1b8bc:	00088c9b          	sext.w	s9,a7

   1b8c0:	bffcf893          	andi	a7,s9,-1025

   1b8c4:	00088a1b          	sext.w	s4,a7

   1b8c8:	00b13823          	sd	a1,16(sp)

   1b8cc:	00200613          	li	a2,2

   1b8d0:	060103a3          	sb	zero,103(sp)

   1b8d4:	fff00593          	li	a1,-1

   1b8d8:	58bc0263          	beq	s8,a1,1be5c <_vfiprintf_r+0x868>

   1b8dc:	f7fa7893          	andi	a7,s4,-129

   1b8e0:	00088c9b          	sext.w	s9,a7

   1b8e4:	0c0b18e3          	bnez	s6,1c1b4 <_vfiprintf_r+0xbc0>

   1b8e8:	620c1463          	bnez	s8,1bf10 <_vfiprintf_r+0x91c>

   1b8ec:	2e061ee3          	bnez	a2,1c3e8 <_vfiprintf_r+0xdf4>

   1b8f0:	001a7b13          	andi	s6,s4,1

   1b8f4:	0ec10b93          	addi	s7,sp,236

   1b8f8:	320b18e3          	bnez	s6,1c428 <_vfiprintf_r+0xe34>

   1b8fc:	000c0793          	mv	a5,s8

   1b900:	016c5463          	bge	s8,s6,1b908 <_vfiprintf_r+0x314>

   1b904:	000b0793          	mv	a5,s6

   1b908:	06714603          	lbu	a2,103(sp)

   1b90c:	00078a1b          	sext.w	s4,a5

   1b910:	06060063          	beqz	a2,1b970 <_vfiprintf_r+0x37c>

   1b914:	00178a1b          	addiw	s4,a5,1

   1b918:	0580006f          	j	1b970 <_vfiprintf_r+0x37c>

   1b91c:	00000493          	li	s1,0

   1b920:	001d0d13          	addi	s10,s10,1

   1b924:	fffd4583          	lbu	a1,-1(s10)

   1b928:	0024979b          	slliw	a5,s1,0x2

   1b92c:	009784bb          	addw	s1,a5,s1

   1b930:	fd06061b          	addiw	a2,a2,-48

   1b934:	0014949b          	slliw	s1,s1,0x1

   1b938:	fd05879b          	addiw	a5,a1,-48

   1b93c:	009604bb          	addw	s1,a2,s1

   1b940:	0005861b          	sext.w	a2,a1

   1b944:	fcfa7ee3          	bgeu	s4,a5,1b920 <_vfiprintf_r+0x32c>

   1b948:	fe06079b          	addiw	a5,a2,-32

   1b94c:	0007859b          	sext.w	a1,a5

   1b950:	e4b57ae3          	bgeu	a0,a1,1b7a4 <_vfiprintf_r+0x1b0>

   1b954:	ec0604e3          	beqz	a2,1b81c <_vfiprintf_r+0x228>

   1b958:	08c10423          	sb	a2,136(sp)

   1b95c:	060103a3          	sb	zero,103(sp)

   1b960:	00100a13          	li	s4,1

   1b964:	00100b13          	li	s6,1

   1b968:	08810b93          	addi	s7,sp,136

   1b96c:	00000c13          	li	s8,0

   1b970:	002cfe93          	andi	t4,s9,2

   1b974:	000e8e9b          	sext.w	t4,t4

   1b978:	000e8463          	beqz	t4,1b980 <_vfiprintf_r+0x38c>

   1b97c:	002a0a1b          	addiw	s4,s4,2

   1b980:	07812603          	lw	a2,120(sp)

   1b984:	084cf293          	andi	t0,s9,132

   1b988:	08013783          	ld	a5,128(sp)

   1b98c:	0016051b          	addiw	a0,a2,1

   1b990:	00050593          	mv	a1,a0

   1b994:	00029663          	bnez	t0,1b9a0 <_vfiprintf_r+0x3ac>

   1b998:	41448e3b          	subw	t3,s1,s4

   1b99c:	03c040e3          	bgtz	t3,1c1bc <_vfiprintf_r+0xbc8>

   1b9a0:	06714e03          	lbu	t3,103(sp)

   1b9a4:	010d8593          	addi	a1,s11,16

   1b9a8:	020e0c63          	beqz	t3,1b9e0 <_vfiprintf_r+0x3ec>

   1b9ac:	06710613          	addi	a2,sp,103

   1b9b0:	00178793          	addi	a5,a5,1

   1b9b4:	00cdb023          	sd	a2,0(s11)

   1b9b8:	00100613          	li	a2,1

   1b9bc:	00cdb423          	sd	a2,8(s11)

   1b9c0:	08f13023          	sd	a5,128(sp)

   1b9c4:	06a12c23          	sw	a0,120(sp)

   1b9c8:	00700713          	li	a4,7

   1b9cc:	76a74663          	blt	a4,a0,1c138 <_vfiprintf_r+0xb44>

   1b9d0:	00050613          	mv	a2,a0

   1b9d4:	00058d93          	mv	s11,a1

   1b9d8:	0015051b          	addiw	a0,a0,1

   1b9dc:	01058593          	addi	a1,a1,16

   1b9e0:	040e8e63          	beqz	t4,1ba3c <_vfiprintf_r+0x448>

   1b9e4:	06810613          	addi	a2,sp,104

   1b9e8:	00278793          	addi	a5,a5,2

   1b9ec:	00cdb023          	sd	a2,0(s11)

   1b9f0:	00200613          	li	a2,2

   1b9f4:	00cdb423          	sd	a2,8(s11)

   1b9f8:	08f13023          	sd	a5,128(sp)

   1b9fc:	06a12c23          	sw	a0,120(sp)

   1ba00:	00700713          	li	a4,7

   1ba04:	78a75e63          	bge	a4,a0,1c1a0 <_vfiprintf_r+0xbac>

   1ba08:	1e0788e3          	beqz	a5,1c3f8 <_vfiprintf_r+0xe04>

   1ba0c:	07010613          	addi	a2,sp,112

   1ba10:	00090593          	mv	a1,s2

   1ba14:	00098513          	mv	a0,s3

   1ba18:	00513c23          	sd	t0,24(sp)

   1ba1c:	ac5ff0ef          	jal	ra,1b4e0 <__sprint_r.part.0>

   1ba20:	e0051ae3          	bnez	a0,1b834 <_vfiprintf_r+0x240>

   1ba24:	07812603          	lw	a2,120(sp)

   1ba28:	08013783          	ld	a5,128(sp)

   1ba2c:	01813283          	ld	t0,24(sp)

   1ba30:	10010593          	addi	a1,sp,256

   1ba34:	0016051b          	addiw	a0,a2,1

   1ba38:	00040d93          	mv	s11,s0

   1ba3c:	08000e13          	li	t3,128

   1ba40:	51c28c63          	beq	t0,t3,1bf58 <_vfiprintf_r+0x964>

   1ba44:	416c0c3b          	subw	s8,s8,s6

   1ba48:	61804063          	bgtz	s8,1c048 <_vfiprintf_r+0xa54>

   1ba4c:	00fb07b3          	add	a5,s6,a5

   1ba50:	017db023          	sd	s7,0(s11)

   1ba54:	016db423          	sd	s6,8(s11)

   1ba58:	08f13023          	sd	a5,128(sp)

   1ba5c:	06a12c23          	sw	a0,120(sp)

   1ba60:	00700713          	li	a4,7

   1ba64:	02a75263          	bge	a4,a0,1ba88 <_vfiprintf_r+0x494>

   1ba68:	02078ce3          	beqz	a5,1c2a0 <_vfiprintf_r+0xcac>

   1ba6c:	07010613          	addi	a2,sp,112

   1ba70:	00090593          	mv	a1,s2

   1ba74:	00098513          	mv	a0,s3

   1ba78:	a69ff0ef          	jal	ra,1b4e0 <__sprint_r.part.0>

   1ba7c:	da051ce3          	bnez	a0,1b834 <_vfiprintf_r+0x240>

   1ba80:	08013783          	ld	a5,128(sp)

   1ba84:	00040593          	mv	a1,s0

   1ba88:	004cf893          	andi	a7,s9,4

   1ba8c:	00088663          	beqz	a7,1ba98 <_vfiprintf_r+0x4a4>

   1ba90:	41448b3b          	subw	s6,s1,s4

   1ba94:	036042e3          	bgtz	s6,1c2b8 <_vfiprintf_r+0xcc4>

   1ba98:	00048713          	mv	a4,s1

   1ba9c:	0144d463          	bge	s1,s4,1baa4 <_vfiprintf_r+0x4b0>

   1baa0:	000a0713          	mv	a4,s4

   1baa4:	00813683          	ld	a3,8(sp)

   1baa8:	00d7073b          	addw	a4,a4,a3

   1baac:	00e13423          	sd	a4,8(sp)

   1bab0:	66079063          	bnez	a5,1c110 <_vfiprintf_r+0xb1c>

   1bab4:	06012c23          	sw	zero,120(sp)

   1bab8:	00040d93          	mv	s11,s0

   1babc:	c21ff06f          	j	1b6dc <_vfiprintf_r+0xe8>

   1bac0:	01013703          	ld	a4,16(sp)

   1bac4:	060103a3          	sb	zero,103(sp)

   1bac8:	00100a13          	li	s4,1

   1bacc:	00072783          	lw	a5,0(a4)

   1bad0:	00870713          	addi	a4,a4,8

   1bad4:	00e13823          	sd	a4,16(sp)

   1bad8:	08f10423          	sb	a5,136(sp)

   1badc:	00100b13          	li	s6,1

   1bae0:	08810b93          	addi	s7,sp,136

   1bae4:	e89ff06f          	j	1b96c <_vfiprintf_r+0x378>

   1bae8:	01013703          	ld	a4,16(sp)

   1baec:	020cf793          	andi	a5,s9,32

   1baf0:	00870593          	addi	a1,a4,8

   1baf4:	18079ce3          	bnez	a5,1c48c <_vfiprintf_r+0xe98>

   1baf8:	010cf793          	andi	a5,s9,16

   1bafc:	180798e3          	bnez	a5,1c48c <_vfiprintf_r+0xe98>

   1bb00:	01013783          	ld	a5,16(sp)

   1bb04:	040cf613          	andi	a2,s9,64

   1bb08:	0007a783          	lw	a5,0(a5)

   1bb0c:	320602e3          	beqz	a2,1c630 <_vfiprintf_r+0x103c>

   1bb10:	03079b13          	slli	s6,a5,0x30

   1bb14:	030b5b13          	srli	s6,s6,0x30

   1bb18:	00b13823          	sd	a1,16(sp)

   1bb1c:	000c8a13          	mv	s4,s9

   1bb20:	00100613          	li	a2,1

   1bb24:	dadff06f          	j	1b8d0 <_vfiprintf_r+0x2dc>

   1bb28:	080ce893          	ori	a7,s9,128

   1bb2c:	00088c9b          	sext.w	s9,a7

   1bb30:	000d4603          	lbu	a2,0(s10)

   1bb34:	c59ff06f          	j	1b78c <_vfiprintf_r+0x198>

   1bb38:	000d4603          	lbu	a2,0(s10)

   1bb3c:	001d0793          	addi	a5,s10,1

   1bb40:	416600e3          	beq	a2,s6,1c740 <_vfiprintf_r+0x114c>

   1bb44:	fd06059b          	addiw	a1,a2,-48

   1bb48:	00078d13          	mv	s10,a5

   1bb4c:	00000c13          	li	s8,0

   1bb50:	c4ba64e3          	bltu	s4,a1,1b798 <_vfiprintf_r+0x1a4>

   1bb54:	001d0d13          	addi	s10,s10,1

   1bb58:	002c179b          	slliw	a5,s8,0x2

   1bb5c:	fffd4603          	lbu	a2,-1(s10)

   1bb60:	018786bb          	addw	a3,a5,s8

   1bb64:	0016969b          	slliw	a3,a3,0x1

   1bb68:	00b68c3b          	addw	s8,a3,a1

   1bb6c:	fd06059b          	addiw	a1,a2,-48

   1bb70:	feba72e3          	bgeu	s4,a1,1bb54 <_vfiprintf_r+0x560>

   1bb74:	c25ff06f          	j	1b798 <_vfiprintf_r+0x1a4>

   1bb78:	000d4603          	lbu	a2,0(s10)

   1bb7c:	004ce893          	ori	a7,s9,4

   1bb80:	00088c9b          	sext.w	s9,a7

   1bb84:	c09ff06f          	j	1b78c <_vfiprintf_r+0x198>

   1bb88:	02b00793          	li	a5,43

   1bb8c:	06f103a3          	sb	a5,103(sp)

   1bb90:	000d4603          	lbu	a2,0(s10)

   1bb94:	bf9ff06f          	j	1b78c <_vfiprintf_r+0x198>

   1bb98:	01013783          	ld	a5,16(sp)

   1bb9c:	000d4603          	lbu	a2,0(s10)

   1bba0:	0007a483          	lw	s1,0(a5)

   1bba4:	00878793          	addi	a5,a5,8

   1bba8:	00f13823          	sd	a5,16(sp)

   1bbac:	be04d0e3          	bgez	s1,1b78c <_vfiprintf_r+0x198>

   1bbb0:	409004bb          	negw	s1,s1

   1bbb4:	fc9ff06f          	j	1bb7c <_vfiprintf_r+0x588>

   1bbb8:	00098513          	mv	a0,s3

   1bbbc:	d69fa0ef          	jal	ra,16924 <_localeconv_r>

   1bbc0:	00853783          	ld	a5,8(a0)

   1bbc4:	00078513          	mv	a0,a5

   1bbc8:	04f13423          	sd	a5,72(sp)

   1bbcc:	890fd0ef          	jal	ra,18c5c <strlen>

   1bbd0:	04a13823          	sd	a0,80(sp)

   1bbd4:	00050b93          	mv	s7,a0

   1bbd8:	00098513          	mv	a0,s3

   1bbdc:	d49fa0ef          	jal	ra,16924 <_localeconv_r>

   1bbe0:	01053783          	ld	a5,16(a0)

   1bbe4:	000d4603          	lbu	a2,0(s10)

   1bbe8:	04f13023          	sd	a5,64(sp)

   1bbec:	ba0b80e3          	beqz	s7,1b78c <_vfiprintf_r+0x198>

   1bbf0:	b8078ee3          	beqz	a5,1b78c <_vfiprintf_r+0x198>

   1bbf4:	0007c783          	lbu	a5,0(a5)

   1bbf8:	b8078ae3          	beqz	a5,1b78c <_vfiprintf_r+0x198>

   1bbfc:	400ce893          	ori	a7,s9,1024

   1bc00:	00088c9b          	sext.w	s9,a7

   1bc04:	b89ff06f          	j	1b78c <_vfiprintf_r+0x198>

   1bc08:	001ce893          	ori	a7,s9,1

   1bc0c:	00088c9b          	sext.w	s9,a7

   1bc10:	000d4603          	lbu	a2,0(s10)

   1bc14:	b79ff06f          	j	1b78c <_vfiprintf_r+0x198>

   1bc18:	06714783          	lbu	a5,103(sp)

   1bc1c:	000d4603          	lbu	a2,0(s10)

   1bc20:	b60796e3          	bnez	a5,1b78c <_vfiprintf_r+0x198>

   1bc24:	02000793          	li	a5,32

   1bc28:	06f103a3          	sb	a5,103(sp)

   1bc2c:	b61ff06f          	j	1b78c <_vfiprintf_r+0x198>

   1bc30:	010ce793          	ori	a5,s9,16

   1bc34:	0007889b          	sext.w	a7,a5

   1bc38:	01013783          	ld	a5,16(sp)

   1bc3c:	00878613          	addi	a2,a5,8

   1bc40:	01013783          	ld	a5,16(sp)

   1bc44:	0007bb03          	ld	s6,0(a5)

   1bc48:	00c13823          	sd	a2,16(sp)

   1bc4c:	bff8f893          	andi	a7,a7,-1025

   1bc50:	00088a1b          	sext.w	s4,a7

   1bc54:	00000613          	li	a2,0

   1bc58:	c79ff06f          	j	1b8d0 <_vfiprintf_r+0x2dc>

   1bc5c:	01013783          	ld	a5,16(sp)

   1bc60:	010cee13          	ori	t3,s9,16

   1bc64:	000e0a1b          	sext.w	s4,t3

   1bc68:	00878593          	addi	a1,a5,8

   1bc6c:	01013783          	ld	a5,16(sp)

   1bc70:	0007b603          	ld	a2,0(a5)

   1bc74:	00b13823          	sd	a1,16(sp)

   1bc78:	00060b13          	mv	s6,a2

   1bc7c:	1c064463          	bltz	a2,1be44 <_vfiprintf_r+0x850>

   1bc80:	fff00613          	li	a2,-1

   1bc84:	00cc0a63          	beq	s8,a2,1bc98 <_vfiprintf_r+0x6a4>

   1bc88:	f7fa7893          	andi	a7,s4,-129

   1bc8c:	00088c9b          	sext.w	s9,a7

   1bc90:	740b0a63          	beqz	s6,1c3e4 <_vfiprintf_r+0xdf0>

   1bc94:	000c8a13          	mv	s4,s9

   1bc98:	00900613          	li	a2,9

   1bc9c:	056660e3          	bltu	a2,s6,1c4dc <_vfiprintf_r+0xee8>

   1bca0:	030b079b          	addiw	a5,s6,48

   1bca4:	0ef105a3          	sb	a5,235(sp)

   1bca8:	000a0c93          	mv	s9,s4

   1bcac:	00100b13          	li	s6,1

   1bcb0:	0eb10b93          	addi	s7,sp,235

   1bcb4:	c49ff06f          	j	1b8fc <_vfiprintf_r+0x308>

   1bcb8:	01013783          	ld	a5,16(sp)

   1bcbc:	010cee13          	ori	t3,s9,16

   1bcc0:	000e0a1b          	sext.w	s4,t3

   1bcc4:	00878593          	addi	a1,a5,8

   1bcc8:	01013783          	ld	a5,16(sp)

   1bccc:	00100613          	li	a2,1

   1bcd0:	0007bb03          	ld	s6,0(a5)

   1bcd4:	00b13823          	sd	a1,16(sp)

   1bcd8:	bf9ff06f          	j	1b8d0 <_vfiprintf_r+0x2dc>

   1bcdc:	01013783          	ld	a5,16(sp)

   1bce0:	060103a3          	sb	zero,103(sp)

   1bce4:	0007bb83          	ld	s7,0(a5)

   1bce8:	00878713          	addi	a4,a5,8

   1bcec:	0c0b86e3          	beqz	s7,1c5b8 <_vfiprintf_r+0xfc4>

   1bcf0:	fff00793          	li	a5,-1

   1bcf4:	00e13823          	sd	a4,16(sp)

   1bcf8:	7afc0863          	beq	s8,a5,1c4a8 <_vfiprintf_r+0xeb4>

   1bcfc:	000c0613          	mv	a2,s8

   1bd00:	00000593          	li	a1,0

   1bd04:	000b8513          	mv	a0,s7

   1bd08:	f80fb0ef          	jal	ra,17488 <memchr>

   1bd0c:	01013703          	ld	a4,16(sp)

   1bd10:	1c050ee3          	beqz	a0,1c6ec <_vfiprintf_r+0x10f8>

   1bd14:	41750b3b          	subw	s6,a0,s7

   1bd18:	00000c13          	li	s8,0

   1bd1c:	be1ff06f          	j	1b8fc <_vfiprintf_r+0x308>

   1bd20:	020ce893          	ori	a7,s9,32

   1bd24:	00088c9b          	sext.w	s9,a7

   1bd28:	000d4603          	lbu	a2,0(s10)

   1bd2c:	a61ff06f          	j	1b78c <_vfiprintf_r+0x198>

   1bd30:	01013783          	ld	a5,16(sp)

   1bd34:	05813703          	ld	a4,88(sp)

   1bd38:	002ce893          	ori	a7,s9,2

   1bd3c:	0007bb03          	ld	s6,0(a5)

   1bd40:	00878793          	addi	a5,a5,8

   1bd44:	00f13823          	sd	a5,16(sp)

   1bd48:	00006797          	auipc	a5,0x6

   1bd4c:	0e878793          	addi	a5,a5,232 # 21e30 <zeroes.4541+0x60>

   1bd50:	00088a1b          	sext.w	s4,a7

   1bd54:	06e11423          	sh	a4,104(sp)

   1bd58:	02f13023          	sd	a5,32(sp)

   1bd5c:	00200613          	li	a2,2

   1bd60:	b71ff06f          	j	1b8d0 <_vfiprintf_r+0x2dc>

   1bd64:	01013703          	ld	a4,16(sp)

   1bd68:	020cf793          	andi	a5,s9,32

   1bd6c:	00870613          	addi	a2,a4,8

   1bd70:	70079a63          	bnez	a5,1c484 <_vfiprintf_r+0xe90>

   1bd74:	010cf793          	andi	a5,s9,16

   1bd78:	70079663          	bnez	a5,1c484 <_vfiprintf_r+0xe90>

   1bd7c:	01013783          	ld	a5,16(sp)

   1bd80:	040cf593          	andi	a1,s9,64

   1bd84:	0007a783          	lw	a5,0(a5)

   1bd88:	080588e3          	beqz	a1,1c618 <_vfiprintf_r+0x1024>

   1bd8c:	03079b13          	slli	s6,a5,0x30

   1bd90:	030b5b13          	srli	s6,s6,0x30

   1bd94:	000c8893          	mv	a7,s9

   1bd98:	00c13823          	sd	a2,16(sp)

   1bd9c:	eb1ff06f          	j	1bc4c <_vfiprintf_r+0x658>

   1bda0:	01013703          	ld	a4,16(sp)

   1bda4:	020cf793          	andi	a5,s9,32

   1bda8:	00073683          	ld	a3,0(a4)

   1bdac:	00870713          	addi	a4,a4,8

   1bdb0:	00e13823          	sd	a4,16(sp)

   1bdb4:	14079863          	bnez	a5,1bf04 <_vfiprintf_r+0x910>

   1bdb8:	010cf793          	andi	a5,s9,16

   1bdbc:	14079463          	bnez	a5,1bf04 <_vfiprintf_r+0x910>

   1bdc0:	040cf793          	andi	a5,s9,64

   1bdc4:	0c0798e3          	bnez	a5,1c694 <_vfiprintf_r+0x10a0>

   1bdc8:	200cf893          	andi	a7,s9,512

   1bdcc:	00813783          	ld	a5,8(sp)

   1bdd0:	160884e3          	beqz	a7,1c738 <_vfiprintf_r+0x1144>

   1bdd4:	00f68023          	sb	a5,0(a3)

   1bdd8:	905ff06f          	j	1b6dc <_vfiprintf_r+0xe8>

   1bddc:	000d4603          	lbu	a2,0(s10)

   1bde0:	06c00793          	li	a5,108

   1bde4:	7cf60063          	beq	a2,a5,1c5a4 <_vfiprintf_r+0xfb0>

   1bde8:	010ce893          	ori	a7,s9,16

   1bdec:	00088c9b          	sext.w	s9,a7

   1bdf0:	99dff06f          	j	1b78c <_vfiprintf_r+0x198>

   1bdf4:	000d4603          	lbu	a2,0(s10)

   1bdf8:	06800793          	li	a5,104

   1bdfc:	78f60a63          	beq	a2,a5,1c590 <_vfiprintf_r+0xf9c>

   1be00:	040ce893          	ori	a7,s9,64

   1be04:	00088c9b          	sext.w	s9,a7

   1be08:	985ff06f          	j	1b78c <_vfiprintf_r+0x198>

   1be0c:	01013703          	ld	a4,16(sp)

   1be10:	020cf793          	andi	a5,s9,32

   1be14:	00870593          	addi	a1,a4,8

   1be18:	68079463          	bnez	a5,1c4a0 <_vfiprintf_r+0xeac>

   1be1c:	010cf793          	andi	a5,s9,16

   1be20:	68079063          	bnez	a5,1c4a0 <_vfiprintf_r+0xeac>

   1be24:	040cf793          	andi	a5,s9,64

   1be28:	7c078863          	beqz	a5,1c5f8 <_vfiprintf_r+0x1004>

   1be2c:	01013783          	ld	a5,16(sp)

   1be30:	00b13823          	sd	a1,16(sp)

   1be34:	000c8a13          	mv	s4,s9

   1be38:	00079b03          	lh	s6,0(a5)

   1be3c:	000b0613          	mv	a2,s6

   1be40:	e40650e3          	bgez	a2,1bc80 <_vfiprintf_r+0x68c>

   1be44:	02d00613          	li	a2,45

   1be48:	06c103a3          	sb	a2,103(sp)

   1be4c:	fff00593          	li	a1,-1

   1be50:	41600b33          	neg	s6,s6

   1be54:	00100613          	li	a2,1

   1be58:	a8bc12e3          	bne	s8,a1,1b8dc <_vfiprintf_r+0x2e8>

   1be5c:	00100593          	li	a1,1

   1be60:	e2b60ce3          	beq	a2,a1,1bc98 <_vfiprintf_r+0x6a4>

   1be64:	00200593          	li	a1,2

   1be68:	0ab60e63          	beq	a2,a1,1bf24 <_vfiprintf_r+0x930>

   1be6c:	0ec10593          	addi	a1,sp,236

   1be70:	0080006f          	j	1be78 <_vfiprintf_r+0x884>

   1be74:	000b8593          	mv	a1,s7

   1be78:	007b7613          	andi	a2,s6,7

   1be7c:	03060613          	addi	a2,a2,48

   1be80:	fec58fa3          	sb	a2,-1(a1)

   1be84:	003b5b13          	srli	s6,s6,0x3

   1be88:	fff58b93          	addi	s7,a1,-1

   1be8c:	fe0b14e3          	bnez	s6,1be74 <_vfiprintf_r+0x880>

   1be90:	001a7793          	andi	a5,s4,1

   1be94:	0a078a63          	beqz	a5,1bf48 <_vfiprintf_r+0x954>

   1be98:	03000793          	li	a5,48

   1be9c:	0af60663          	beq	a2,a5,1bf48 <_vfiprintf_r+0x954>

   1bea0:	ffe58593          	addi	a1,a1,-2

   1bea4:	fefb8fa3          	sb	a5,-1(s7)

   1bea8:	0ec10793          	addi	a5,sp,236

   1beac:	40b78b3b          	subw	s6,a5,a1

   1beb0:	000a0c93          	mv	s9,s4

   1beb4:	00058b93          	mv	s7,a1

   1beb8:	a45ff06f          	j	1b8fc <_vfiprintf_r+0x308>

   1bebc:	01013703          	ld	a4,16(sp)

   1bec0:	00006797          	auipc	a5,0x6

   1bec4:	f7078793          	addi	a5,a5,-144 # 21e30 <zeroes.4541+0x60>

   1bec8:	02f13023          	sd	a5,32(sp)

   1becc:	020cf793          	andi	a5,s9,32

   1bed0:	00870593          	addi	a1,a4,8

   1bed4:	9c0794e3          	bnez	a5,1b89c <_vfiprintf_r+0x2a8>

   1bed8:	010cf793          	andi	a5,s9,16

   1bedc:	5a079c63          	bnez	a5,1c494 <_vfiprintf_r+0xea0>

   1bee0:	01013783          	ld	a5,16(sp)

   1bee4:	040cf513          	andi	a0,s9,64

   1bee8:	0007a783          	lw	a5,0(a5)

   1beec:	6e050a63          	beqz	a0,1c5e0 <_vfiprintf_r+0xfec>

   1bef0:	03079b13          	slli	s6,a5,0x30

   1bef4:	030b5b13          	srli	s6,s6,0x30

   1bef8:	9a9ff06f          	j	1b8a0 <_vfiprintf_r+0x2ac>

   1befc:	ff0f70ef          	jal	ra,136ec <__sinit>

   1bf00:	f48ff06f          	j	1b648 <_vfiprintf_r+0x54>

   1bf04:	00813783          	ld	a5,8(sp)

   1bf08:	00f6b023          	sd	a5,0(a3)

   1bf0c:	fd0ff06f          	j	1b6dc <_vfiprintf_r+0xe8>

   1bf10:	00100593          	li	a1,1

   1bf14:	7cb60863          	beq	a2,a1,1c6e4 <_vfiprintf_r+0x10f0>

   1bf18:	00200593          	li	a1,2

   1bf1c:	000c8a13          	mv	s4,s9

   1bf20:	f4b616e3          	bne	a2,a1,1be6c <_vfiprintf_r+0x878>

   1bf24:	0ec10b93          	addi	s7,sp,236

   1bf28:	02013783          	ld	a5,32(sp)

   1bf2c:	00fb7613          	andi	a2,s6,15

   1bf30:	fffb8b93          	addi	s7,s7,-1

   1bf34:	00c78633          	add	a2,a5,a2

   1bf38:	00064603          	lbu	a2,0(a2)

   1bf3c:	004b5b13          	srli	s6,s6,0x4

   1bf40:	00cb8023          	sb	a2,0(s7)

   1bf44:	fe0b12e3          	bnez	s6,1bf28 <_vfiprintf_r+0x934>

   1bf48:	0ec10793          	addi	a5,sp,236

   1bf4c:	41778b3b          	subw	s6,a5,s7

   1bf50:	000a0c93          	mv	s9,s4

   1bf54:	9a9ff06f          	j	1b8fc <_vfiprintf_r+0x308>

   1bf58:	41448e3b          	subw	t3,s1,s4

   1bf5c:	afc054e3          	blez	t3,1ba44 <_vfiprintf_r+0x450>

   1bf60:	01000e93          	li	t4,16

   1bf64:	7dced063          	bge	t4,t3,1c724 <_vfiprintf_r+0x1130>

   1bf68:	00006e97          	auipc	t4,0x6

   1bf6c:	5f8e8e93          	addi	t4,t4,1528 # 22560 <zeroes.4517>

   1bf70:	01000f13          	li	t5,16

   1bf74:	00700f93          	li	t6,7

   1bf78:	0180006f          	j	1bf90 <_vfiprintf_r+0x99c>

   1bf7c:	0026029b          	addiw	t0,a2,2

   1bf80:	010d8d93          	addi	s11,s11,16

   1bf84:	00050613          	mv	a2,a0

   1bf88:	ff0e0e1b          	addiw	t3,t3,-16

   1bf8c:	07cf5463          	bge	t5,t3,1bff4 <_vfiprintf_r+0xa00>

   1bf90:	0016051b          	addiw	a0,a2,1

   1bf94:	01078793          	addi	a5,a5,16

   1bf98:	01ddb023          	sd	t4,0(s11)

   1bf9c:	01edb423          	sd	t5,8(s11)

   1bfa0:	08f13023          	sd	a5,128(sp)

   1bfa4:	06a12c23          	sw	a0,120(sp)

   1bfa8:	fcafdae3          	bge	t6,a0,1bf7c <_vfiprintf_r+0x988>

   1bfac:	16078e63          	beqz	a5,1c128 <_vfiprintf_r+0xb34>

   1bfb0:	07010613          	addi	a2,sp,112

   1bfb4:	00090593          	mv	a1,s2

   1bfb8:	00098513          	mv	a0,s3

   1bfbc:	03d13423          	sd	t4,40(sp)

   1bfc0:	01c13c23          	sd	t3,24(sp)

   1bfc4:	d1cff0ef          	jal	ra,1b4e0 <__sprint_r.part.0>

   1bfc8:	860516e3          	bnez	a0,1b834 <_vfiprintf_r+0x240>

   1bfcc:	01813e03          	ld	t3,24(sp)

   1bfd0:	07812603          	lw	a2,120(sp)

   1bfd4:	01000f13          	li	t5,16

   1bfd8:	ff0e0e1b          	addiw	t3,t3,-16

   1bfdc:	08013783          	ld	a5,128(sp)

   1bfe0:	00040d93          	mv	s11,s0

   1bfe4:	0016029b          	addiw	t0,a2,1

   1bfe8:	02813e83          	ld	t4,40(sp)

   1bfec:	00700f93          	li	t6,7

   1bff0:	fbcf40e3          	blt	t5,t3,1bf90 <_vfiprintf_r+0x99c>

   1bff4:	010d8f13          	addi	t5,s11,16

   1bff8:	01c787b3          	add	a5,a5,t3

   1bffc:	01ddb023          	sd	t4,0(s11)

   1c000:	01cdb423          	sd	t3,8(s11)

   1c004:	08f13023          	sd	a5,128(sp)

   1c008:	06512c23          	sw	t0,120(sp)

   1c00c:	00700713          	li	a4,7

   1c010:	46575063          	bge	a4,t0,1c470 <_vfiprintf_r+0xe7c>

   1c014:	64078463          	beqz	a5,1c65c <_vfiprintf_r+0x1068>

   1c018:	07010613          	addi	a2,sp,112

   1c01c:	00090593          	mv	a1,s2

   1c020:	00098513          	mv	a0,s3

   1c024:	cbcff0ef          	jal	ra,1b4e0 <__sprint_r.part.0>

   1c028:	800516e3          	bnez	a0,1b834 <_vfiprintf_r+0x240>

   1c02c:	07812603          	lw	a2,120(sp)

   1c030:	416c0c3b          	subw	s8,s8,s6

   1c034:	08013783          	ld	a5,128(sp)

   1c038:	10010593          	addi	a1,sp,256

   1c03c:	0016051b          	addiw	a0,a2,1

   1c040:	00040d93          	mv	s11,s0

   1c044:	a18054e3          	blez	s8,1ba4c <_vfiprintf_r+0x458>

   1c048:	01000e13          	li	t3,16

   1c04c:	618e5063          	bge	t3,s8,1c64c <_vfiprintf_r+0x1058>

   1c050:	00006e97          	auipc	t4,0x6

   1c054:	510e8e93          	addi	t4,t4,1296 # 22560 <zeroes.4517>

   1c058:	00700f13          	li	t5,7

   1c05c:	0180006f          	j	1c074 <_vfiprintf_r+0xa80>

   1c060:	0026051b          	addiw	a0,a2,2

   1c064:	010d8d93          	addi	s11,s11,16

   1c068:	000f8613          	mv	a2,t6

   1c06c:	ff0c0c1b          	addiw	s8,s8,-16

   1c070:	078e5063          	bge	t3,s8,1c0d0 <_vfiprintf_r+0xadc>

   1c074:	00160f9b          	addiw	t6,a2,1

   1c078:	01078793          	addi	a5,a5,16

   1c07c:	01ddb023          	sd	t4,0(s11)

   1c080:	01cdb423          	sd	t3,8(s11)

   1c084:	08f13023          	sd	a5,128(sp)

   1c088:	07f12c23          	sw	t6,120(sp)

   1c08c:	fdff5ae3          	bge	t5,t6,1c060 <_vfiprintf_r+0xa6c>

   1c090:	06078863          	beqz	a5,1c100 <_vfiprintf_r+0xb0c>

   1c094:	07010613          	addi	a2,sp,112

   1c098:	00090593          	mv	a1,s2

   1c09c:	00098513          	mv	a0,s3

   1c0a0:	01d13c23          	sd	t4,24(sp)

   1c0a4:	c3cff0ef          	jal	ra,1b4e0 <__sprint_r.part.0>

   1c0a8:	f8051663          	bnez	a0,1b834 <_vfiprintf_r+0x240>

   1c0ac:	07812603          	lw	a2,120(sp)

   1c0b0:	01000e13          	li	t3,16

   1c0b4:	ff0c0c1b          	addiw	s8,s8,-16

   1c0b8:	08013783          	ld	a5,128(sp)

   1c0bc:	00040d93          	mv	s11,s0

   1c0c0:	0016051b          	addiw	a0,a2,1

   1c0c4:	01813e83          	ld	t4,24(sp)

   1c0c8:	00700f13          	li	t5,7

   1c0cc:	fb8e44e3          	blt	t3,s8,1c074 <_vfiprintf_r+0xa80>

   1c0d0:	010d8613          	addi	a2,s11,16

   1c0d4:	018787b3          	add	a5,a5,s8

   1c0d8:	01ddb023          	sd	t4,0(s11)

   1c0dc:	018db423          	sd	s8,8(s11)

   1c0e0:	08f13023          	sd	a5,128(sp)

   1c0e4:	06a12c23          	sw	a0,120(sp)

   1c0e8:	00700713          	li	a4,7

   1c0ec:	2aa74e63          	blt	a4,a0,1c3a8 <_vfiprintf_r+0xdb4>

   1c0f0:	0015051b          	addiw	a0,a0,1

   1c0f4:	01060593          	addi	a1,a2,16

   1c0f8:	00060d93          	mv	s11,a2

   1c0fc:	951ff06f          	j	1ba4c <_vfiprintf_r+0x458>

   1c100:	00100513          	li	a0,1

   1c104:	00000613          	li	a2,0

   1c108:	00040d93          	mv	s11,s0

   1c10c:	f61ff06f          	j	1c06c <_vfiprintf_r+0xa78>

   1c110:	07010613          	addi	a2,sp,112

   1c114:	00090593          	mv	a1,s2

   1c118:	00098513          	mv	a0,s3

   1c11c:	bc4ff0ef          	jal	ra,1b4e0 <__sprint_r.part.0>

   1c120:	98050ae3          	beqz	a0,1bab4 <_vfiprintf_r+0x4c0>

   1c124:	f10ff06f          	j	1b834 <_vfiprintf_r+0x240>

   1c128:	00100293          	li	t0,1

   1c12c:	00000613          	li	a2,0

   1c130:	00040d93          	mv	s11,s0

   1c134:	e55ff06f          	j	1bf88 <_vfiprintf_r+0x994>

   1c138:	04078663          	beqz	a5,1c184 <_vfiprintf_r+0xb90>

   1c13c:	07010613          	addi	a2,sp,112

   1c140:	00090593          	mv	a1,s2

   1c144:	00098513          	mv	a0,s3

   1c148:	02513423          	sd	t0,40(sp)

   1c14c:	01d13c23          	sd	t4,24(sp)

   1c150:	b90ff0ef          	jal	ra,1b4e0 <__sprint_r.part.0>

   1c154:	ee051063          	bnez	a0,1b834 <_vfiprintf_r+0x240>

   1c158:	07812603          	lw	a2,120(sp)

   1c15c:	08013783          	ld	a5,128(sp)

   1c160:	10010593          	addi	a1,sp,256

   1c164:	0016051b          	addiw	a0,a2,1

   1c168:	00040d93          	mv	s11,s0

   1c16c:	02813283          	ld	t0,40(sp)

   1c170:	01813e83          	ld	t4,24(sp)

   1c174:	86dff06f          	j	1b9e0 <_vfiprintf_r+0x3ec>

   1c178:	2c079063          	bnez	a5,1c438 <_vfiprintf_r+0xe44>

   1c17c:	06714703          	lbu	a4,103(sp)

   1c180:	4e071c63          	bnez	a4,1c678 <_vfiprintf_r+0x1084>

   1c184:	280e8863          	beqz	t4,1c414 <_vfiprintf_r+0xe20>

   1c188:	06810793          	addi	a5,sp,104

   1c18c:	0ef13823          	sd	a5,240(sp)

   1c190:	00200793          	li	a5,2

   1c194:	0ef13c23          	sd	a5,248(sp)

   1c198:	00100513          	li	a0,1

   1c19c:	10010593          	addi	a1,sp,256

   1c1a0:	00050613          	mv	a2,a0

   1c1a4:	00058d93          	mv	s11,a1

   1c1a8:	0015051b          	addiw	a0,a0,1

   1c1ac:	01058593          	addi	a1,a1,16

   1c1b0:	88dff06f          	j	1ba3c <_vfiprintf_r+0x448>

   1c1b4:	000c8a13          	mv	s4,s9

   1c1b8:	ca5ff06f          	j	1be5c <_vfiprintf_r+0x868>

   1c1bc:	01000f13          	li	t5,16

   1c1c0:	53cf5e63          	bge	t5,t3,1c6fc <_vfiprintf_r+0x1108>

   1c1c4:	00006f17          	auipc	t5,0x6

   1c1c8:	38cf0f13          	addi	t5,t5,908 # 22550 <blanks.4516>

   1c1cc:	01000f93          	li	t6,16

   1c1d0:	00700393          	li	t2,7

   1c1d4:	01c0006f          	j	1c1f0 <_vfiprintf_r+0xbfc>

   1c1d8:	0026059b          	addiw	a1,a2,2

   1c1dc:	010d8d93          	addi	s11,s11,16

   1c1e0:	00050613          	mv	a2,a0

   1c1e4:	ff0e0e1b          	addiw	t3,t3,-16

   1c1e8:	07cfde63          	bge	t6,t3,1c264 <_vfiprintf_r+0xc70>

   1c1ec:	0016059b          	addiw	a1,a2,1

   1c1f0:	01078793          	addi	a5,a5,16

   1c1f4:	01edb023          	sd	t5,0(s11)

   1c1f8:	01fdb423          	sd	t6,8(s11)

   1c1fc:	08f13023          	sd	a5,128(sp)

   1c200:	0005851b          	sext.w	a0,a1

   1c204:	06b12c23          	sw	a1,120(sp)

   1c208:	fca3d8e3          	bge	t2,a0,1c1d8 <_vfiprintf_r+0xbe4>

   1c20c:	08078263          	beqz	a5,1c290 <_vfiprintf_r+0xc9c>

   1c210:	07010613          	addi	a2,sp,112

   1c214:	00090593          	mv	a1,s2

   1c218:	00098513          	mv	a0,s3

   1c21c:	03e13c23          	sd	t5,56(sp)

   1c220:	03c13823          	sd	t3,48(sp)

   1c224:	02513423          	sd	t0,40(sp)

   1c228:	01d13c23          	sd	t4,24(sp)

   1c22c:	ab4ff0ef          	jal	ra,1b4e0 <__sprint_r.part.0>

   1c230:	e0051263          	bnez	a0,1b834 <_vfiprintf_r+0x240>

   1c234:	03013e03          	ld	t3,48(sp)

   1c238:	07812603          	lw	a2,120(sp)

   1c23c:	01000f93          	li	t6,16

   1c240:	ff0e0e1b          	addiw	t3,t3,-16

   1c244:	08013783          	ld	a5,128(sp)

   1c248:	00040d93          	mv	s11,s0

   1c24c:	0016059b          	addiw	a1,a2,1

   1c250:	03813f03          	ld	t5,56(sp)

   1c254:	00700393          	li	t2,7

   1c258:	02813283          	ld	t0,40(sp)

   1c25c:	01813e83          	ld	t4,24(sp)

   1c260:	f9cfc6e3          	blt	t6,t3,1c1ec <_vfiprintf_r+0xbf8>

   1c264:	01c787b3          	add	a5,a5,t3

   1c268:	01edb023          	sd	t5,0(s11)

   1c26c:	01cdb423          	sd	t3,8(s11)

   1c270:	08f13023          	sd	a5,128(sp)

   1c274:	06b12c23          	sw	a1,120(sp)

   1c278:	00700613          	li	a2,7

   1c27c:	eeb64ee3          	blt	a2,a1,1c178 <_vfiprintf_r+0xb84>

   1c280:	010d8d93          	addi	s11,s11,16

   1c284:	0015851b          	addiw	a0,a1,1

   1c288:	00058613          	mv	a2,a1

   1c28c:	f14ff06f          	j	1b9a0 <_vfiprintf_r+0x3ac>

   1c290:	00000613          	li	a2,0

   1c294:	00100593          	li	a1,1

   1c298:	00040d93          	mv	s11,s0

   1c29c:	f49ff06f          	j	1c1e4 <_vfiprintf_r+0xbf0>

   1c2a0:	06012c23          	sw	zero,120(sp)

   1c2a4:	004cf893          	andi	a7,s9,4

   1c2a8:	0e088263          	beqz	a7,1c38c <_vfiprintf_r+0xd98>

   1c2ac:	41448b3b          	subw	s6,s1,s4

   1c2b0:	0d605e63          	blez	s6,1c38c <_vfiprintf_r+0xd98>

   1c2b4:	00040593          	mv	a1,s0

   1c2b8:	01000713          	li	a4,16

   1c2bc:	07812683          	lw	a3,120(sp)

   1c2c0:	45675463          	bge	a4,s6,1c708 <_vfiprintf_r+0x1114>

   1c2c4:	00006f17          	auipc	t5,0x6

   1c2c8:	28cf0f13          	addi	t5,t5,652 # 22550 <blanks.4516>

   1c2cc:	01000c13          	li	s8,16

   1c2d0:	00700b93          	li	s7,7

   1c2d4:	0180006f          	j	1c2ec <_vfiprintf_r+0xcf8>

   1c2d8:	0026871b          	addiw	a4,a3,2

   1c2dc:	01058593          	addi	a1,a1,16

   1c2e0:	00060693          	mv	a3,a2

   1c2e4:	ff0b0b1b          	addiw	s6,s6,-16

   1c2e8:	056c5c63          	bge	s8,s6,1c340 <_vfiprintf_r+0xd4c>

   1c2ec:	0016861b          	addiw	a2,a3,1

   1c2f0:	01078793          	addi	a5,a5,16

   1c2f4:	01e5b023          	sd	t5,0(a1)

   1c2f8:	0185b423          	sd	s8,8(a1)

   1c2fc:	08f13023          	sd	a5,128(sp)

   1c300:	06c12c23          	sw	a2,120(sp)

   1c304:	fccbdae3          	bge	s7,a2,1c2d8 <_vfiprintf_r+0xce4>

   1c308:	06078a63          	beqz	a5,1c37c <_vfiprintf_r+0xd88>

   1c30c:	07010613          	addi	a2,sp,112

   1c310:	00090593          	mv	a1,s2

   1c314:	00098513          	mv	a0,s3

   1c318:	01e13c23          	sd	t5,24(sp)

   1c31c:	9c4ff0ef          	jal	ra,1b4e0 <__sprint_r.part.0>

   1c320:	d0051a63          	bnez	a0,1b834 <_vfiprintf_r+0x240>

   1c324:	07812683          	lw	a3,120(sp)

   1c328:	ff0b0b1b          	addiw	s6,s6,-16

   1c32c:	08013783          	ld	a5,128(sp)

   1c330:	00040593          	mv	a1,s0

   1c334:	0016871b          	addiw	a4,a3,1

   1c338:	01813f03          	ld	t5,24(sp)

   1c33c:	fb6c48e3          	blt	s8,s6,1c2ec <_vfiprintf_r+0xcf8>

   1c340:	016787b3          	add	a5,a5,s6

   1c344:	01e5b023          	sd	t5,0(a1)

   1c348:	0165b423          	sd	s6,8(a1)

   1c34c:	08f13023          	sd	a5,128(sp)

   1c350:	06e12c23          	sw	a4,120(sp)

   1c354:	00700693          	li	a3,7

   1c358:	f4e6d063          	bge	a3,a4,1ba98 <_vfiprintf_r+0x4a4>

   1c35c:	02078863          	beqz	a5,1c38c <_vfiprintf_r+0xd98>

   1c360:	07010613          	addi	a2,sp,112

   1c364:	00090593          	mv	a1,s2

   1c368:	00098513          	mv	a0,s3

   1c36c:	974ff0ef          	jal	ra,1b4e0 <__sprint_r.part.0>

   1c370:	cc051263          	bnez	a0,1b834 <_vfiprintf_r+0x240>

   1c374:	08013783          	ld	a5,128(sp)

   1c378:	f20ff06f          	j	1ba98 <_vfiprintf_r+0x4a4>

   1c37c:	00100713          	li	a4,1

   1c380:	00000693          	li	a3,0

   1c384:	00040593          	mv	a1,s0

   1c388:	f5dff06f          	j	1c2e4 <_vfiprintf_r+0xcf0>

   1c38c:	00048793          	mv	a5,s1

   1c390:	0144d463          	bge	s1,s4,1c398 <_vfiprintf_r+0xda4>

   1c394:	000a0793          	mv	a5,s4

   1c398:	00813703          	ld	a4,8(sp)

   1c39c:	00e787bb          	addw	a5,a5,a4

   1c3a0:	00f13423          	sd	a5,8(sp)

   1c3a4:	f10ff06f          	j	1bab4 <_vfiprintf_r+0x4c0>

   1c3a8:	10078a63          	beqz	a5,1c4bc <_vfiprintf_r+0xec8>

   1c3ac:	07010613          	addi	a2,sp,112

   1c3b0:	00090593          	mv	a1,s2

   1c3b4:	00098513          	mv	a0,s3

   1c3b8:	928ff0ef          	jal	ra,1b4e0 <__sprint_r.part.0>

   1c3bc:	c6051c63          	bnez	a0,1b834 <_vfiprintf_r+0x240>

   1c3c0:	07812503          	lw	a0,120(sp)

   1c3c4:	08013783          	ld	a5,128(sp)

   1c3c8:	10010593          	addi	a1,sp,256

   1c3cc:	0015051b          	addiw	a0,a0,1

   1c3d0:	00040d93          	mv	s11,s0

   1c3d4:	e78ff06f          	j	1ba4c <_vfiprintf_r+0x458>

   1c3d8:	06012c23          	sw	zero,120(sp)

   1c3dc:	00040d93          	mv	s11,s0

   1c3e0:	b78ff06f          	j	1b758 <_vfiprintf_r+0x164>

   1c3e4:	300c1063          	bnez	s8,1c6e4 <_vfiprintf_r+0x10f0>

   1c3e8:	00000c13          	li	s8,0

   1c3ec:	00000b13          	li	s6,0

   1c3f0:	0ec10b93          	addi	s7,sp,236

   1c3f4:	d08ff06f          	j	1b8fc <_vfiprintf_r+0x308>

   1c3f8:	10010593          	addi	a1,sp,256

   1c3fc:	00100513          	li	a0,1

   1c400:	00000613          	li	a2,0

   1c404:	00040d93          	mv	s11,s0

   1c408:	e34ff06f          	j	1ba3c <_vfiprintf_r+0x448>

   1c40c:	000d0a13          	mv	s4,s10

   1c410:	b5cff06f          	j	1b76c <_vfiprintf_r+0x178>

   1c414:	00000613          	li	a2,0

   1c418:	10010593          	addi	a1,sp,256

   1c41c:	00100513          	li	a0,1

   1c420:	00040d93          	mv	s11,s0

   1c424:	e18ff06f          	j	1ba3c <_vfiprintf_r+0x448>

   1c428:	03000793          	li	a5,48

   1c42c:	0ef105a3          	sb	a5,235(sp)

   1c430:	0eb10b93          	addi	s7,sp,235

   1c434:	cc8ff06f          	j	1b8fc <_vfiprintf_r+0x308>

   1c438:	07010613          	addi	a2,sp,112

   1c43c:	00090593          	mv	a1,s2

   1c440:	00098513          	mv	a0,s3

   1c444:	02513423          	sd	t0,40(sp)

   1c448:	01d13c23          	sd	t4,24(sp)

   1c44c:	894ff0ef          	jal	ra,1b4e0 <__sprint_r.part.0>

   1c450:	be051263          	bnez	a0,1b834 <_vfiprintf_r+0x240>

   1c454:	07812603          	lw	a2,120(sp)

   1c458:	08013783          	ld	a5,128(sp)

   1c45c:	00040d93          	mv	s11,s0

   1c460:	0016051b          	addiw	a0,a2,1

   1c464:	02813283          	ld	t0,40(sp)

   1c468:	01813e83          	ld	t4,24(sp)

   1c46c:	d34ff06f          	j	1b9a0 <_vfiprintf_r+0x3ac>

   1c470:	0012851b          	addiw	a0,t0,1

   1c474:	010f0593          	addi	a1,t5,16

   1c478:	00028613          	mv	a2,t0

   1c47c:	000f0d93          	mv	s11,t5

   1c480:	dc4ff06f          	j	1ba44 <_vfiprintf_r+0x450>

   1c484:	000c8893          	mv	a7,s9

   1c488:	fb8ff06f          	j	1bc40 <_vfiprintf_r+0x64c>

   1c48c:	000c8a13          	mv	s4,s9

   1c490:	839ff06f          	j	1bcc8 <_vfiprintf_r+0x6d4>

   1c494:	01013783          	ld	a5,16(sp)

   1c498:	0007bb03          	ld	s6,0(a5)

   1c49c:	c04ff06f          	j	1b8a0 <_vfiprintf_r+0x2ac>

   1c4a0:	000c8a13          	mv	s4,s9

   1c4a4:	fc8ff06f          	j	1bc6c <_vfiprintf_r+0x678>

   1c4a8:	000b8513          	mv	a0,s7

   1c4ac:	fb0fc0ef          	jal	ra,18c5c <strlen>

   1c4b0:	00050b1b          	sext.w	s6,a0

   1c4b4:	00000c13          	li	s8,0

   1c4b8:	c44ff06f          	j	1b8fc <_vfiprintf_r+0x308>

   1c4bc:	00100713          	li	a4,1

   1c4c0:	000b0793          	mv	a5,s6

   1c4c4:	0f713823          	sd	s7,240(sp)

   1c4c8:	0f613c23          	sd	s6,248(sp)

   1c4cc:	09613023          	sd	s6,128(sp)

   1c4d0:	06e12c23          	sw	a4,120(sp)

   1c4d4:	10010593          	addi	a1,sp,256

   1c4d8:	db0ff06f          	j	1ba88 <_vfiprintf_r+0x494>

   1c4dc:	400a7793          	andi	a5,s4,1024

   1c4e0:	0007879b          	sext.w	a5,a5

   1c4e4:	00f13c23          	sd	a5,24(sp)

   1c4e8:	00000c93          	li	s9,0

   1c4ec:	0ec10b93          	addi	s7,sp,236

   1c4f0:	00a00593          	li	a1,10

   1c4f4:	000b0513          	mv	a0,s6

   1c4f8:	5d0050ef          	jal	ra,21ac8 <__umoddi3>

   1c4fc:	01813783          	ld	a5,24(sp)

   1c500:	0305051b          	addiw	a0,a0,48

   1c504:	feab8fa3          	sb	a0,-1(s7)

   1c508:	001c8c9b          	addiw	s9,s9,1

   1c50c:	fffb8b93          	addi	s7,s7,-1

   1c510:	00078863          	beqz	a5,1c520 <_vfiprintf_r+0xf2c>

   1c514:	04013783          	ld	a5,64(sp)

   1c518:	0007c603          	lbu	a2,0(a5)

   1c51c:	03960063          	beq	a2,s9,1c53c <_vfiprintf_r+0xf48>

   1c520:	00a00593          	li	a1,10

   1c524:	000b0513          	mv	a0,s6

   1c528:	558050ef          	jal	ra,21a80 <__udivdi3>

   1c52c:	00900793          	li	a5,9

   1c530:	a167fce3          	bgeu	a5,s6,1bf48 <_vfiprintf_r+0x954>

   1c534:	00050b13          	mv	s6,a0

   1c538:	fb9ff06f          	j	1c4f0 <_vfiprintf_r+0xefc>

   1c53c:	0ff00793          	li	a5,255

   1c540:	fef600e3          	beq	a2,a5,1c520 <_vfiprintf_r+0xf2c>

   1c544:	00900793          	li	a5,9

   1c548:	a167f0e3          	bgeu	a5,s6,1bf48 <_vfiprintf_r+0x954>

   1c54c:	05013783          	ld	a5,80(sp)

   1c550:	04813583          	ld	a1,72(sp)

   1c554:	00000c93          	li	s9,0

   1c558:	40fb8bb3          	sub	s7,s7,a5

   1c55c:	00078613          	mv	a2,a5

   1c560:	000b8513          	mv	a0,s7

   1c564:	fc8fc0ef          	jal	ra,18d2c <strncpy>

   1c568:	04013703          	ld	a4,64(sp)

   1c56c:	000b0513          	mv	a0,s6

   1c570:	00a00593          	li	a1,10

   1c574:	00174603          	lbu	a2,1(a4)

   1c578:	00c037b3          	snez	a5,a2

   1c57c:	00f707b3          	add	a5,a4,a5

   1c580:	04f13023          	sd	a5,64(sp)

   1c584:	4fc050ef          	jal	ra,21a80 <__udivdi3>

   1c588:	00050b13          	mv	s6,a0

   1c58c:	f65ff06f          	j	1c4f0 <_vfiprintf_r+0xefc>

   1c590:	200ce893          	ori	a7,s9,512

   1c594:	001d4603          	lbu	a2,1(s10)

   1c598:	00088c9b          	sext.w	s9,a7

   1c59c:	001d0d13          	addi	s10,s10,1

   1c5a0:	9ecff06f          	j	1b78c <_vfiprintf_r+0x198>

   1c5a4:	020ce893          	ori	a7,s9,32

   1c5a8:	001d4603          	lbu	a2,1(s10)

   1c5ac:	00088c9b          	sext.w	s9,a7

   1c5b0:	001d0d13          	addi	s10,s10,1

   1c5b4:	9d8ff06f          	j	1b78c <_vfiprintf_r+0x198>

   1c5b8:	000c061b          	sext.w	a2,s8

   1c5bc:	00600793          	li	a5,6

   1c5c0:	000c0693          	mv	a3,s8

   1c5c4:	0ac7e663          	bltu	a5,a2,1c670 <_vfiprintf_r+0x107c>

   1c5c8:	00068b1b          	sext.w	s6,a3

   1c5cc:	000b0a13          	mv	s4,s6

   1c5d0:	00e13823          	sd	a4,16(sp)

   1c5d4:	00006b97          	auipc	s7,0x6

   1c5d8:	88cb8b93          	addi	s7,s7,-1908 # 21e60 <zeroes.4541+0x90>

   1c5dc:	b90ff06f          	j	1b96c <_vfiprintf_r+0x378>

   1c5e0:	200cf513          	andi	a0,s9,512

   1c5e4:	0ff7fb13          	andi	s6,a5,255

   1c5e8:	aa051c63          	bnez	a0,1b8a0 <_vfiprintf_r+0x2ac>

   1c5ec:	02079b13          	slli	s6,a5,0x20

   1c5f0:	020b5b13          	srli	s6,s6,0x20

   1c5f4:	aacff06f          	j	1b8a0 <_vfiprintf_r+0x2ac>

   1c5f8:	200cf793          	andi	a5,s9,512

   1c5fc:	0c078863          	beqz	a5,1c6cc <_vfiprintf_r+0x10d8>

   1c600:	01013783          	ld	a5,16(sp)

   1c604:	000c8a13          	mv	s4,s9

   1c608:	00b13823          	sd	a1,16(sp)

   1c60c:	00078b03          	lb	s6,0(a5)

   1c610:	000b0613          	mv	a2,s6

   1c614:	e68ff06f          	j	1bc7c <_vfiprintf_r+0x688>

   1c618:	200cf593          	andi	a1,s9,512

   1c61c:	08058e63          	beqz	a1,1c6b8 <_vfiprintf_r+0x10c4>

   1c620:	0ff7fb13          	andi	s6,a5,255

   1c624:	000c8893          	mv	a7,s9

   1c628:	00c13823          	sd	a2,16(sp)

   1c62c:	e20ff06f          	j	1bc4c <_vfiprintf_r+0x658>

   1c630:	200cf613          	andi	a2,s9,512

   1c634:	06060663          	beqz	a2,1c6a0 <_vfiprintf_r+0x10ac>

   1c638:	0ff7fb13          	andi	s6,a5,255

   1c63c:	00b13823          	sd	a1,16(sp)

   1c640:	000c8a13          	mv	s4,s9

   1c644:	00100613          	li	a2,1

   1c648:	a88ff06f          	j	1b8d0 <_vfiprintf_r+0x2dc>

   1c64c:	00058613          	mv	a2,a1

   1c650:	00006e97          	auipc	t4,0x6

   1c654:	f10e8e93          	addi	t4,t4,-240 # 22560 <zeroes.4517>

   1c658:	a7dff06f          	j	1c0d4 <_vfiprintf_r+0xae0>

   1c65c:	10010593          	addi	a1,sp,256

   1c660:	00100513          	li	a0,1

   1c664:	00000613          	li	a2,0

   1c668:	00040d93          	mv	s11,s0

   1c66c:	bd8ff06f          	j	1ba44 <_vfiprintf_r+0x450>

   1c670:	00600693          	li	a3,6

   1c674:	f55ff06f          	j	1c5c8 <_vfiprintf_r+0xfd4>

   1c678:	06710793          	addi	a5,sp,103

   1c67c:	0ef13823          	sd	a5,240(sp)

   1c680:	00100793          	li	a5,1

   1c684:	0ef13c23          	sd	a5,248(sp)

   1c688:	00100513          	li	a0,1

   1c68c:	10010593          	addi	a1,sp,256

   1c690:	b40ff06f          	j	1b9d0 <_vfiprintf_r+0x3dc>

   1c694:	00813783          	ld	a5,8(sp)

   1c698:	00f69023          	sh	a5,0(a3)

   1c69c:	840ff06f          	j	1b6dc <_vfiprintf_r+0xe8>

   1c6a0:	02079b13          	slli	s6,a5,0x20

   1c6a4:	020b5b13          	srli	s6,s6,0x20

   1c6a8:	00b13823          	sd	a1,16(sp)

   1c6ac:	000c8a13          	mv	s4,s9

   1c6b0:	00100613          	li	a2,1

   1c6b4:	a1cff06f          	j	1b8d0 <_vfiprintf_r+0x2dc>

   1c6b8:	02079b13          	slli	s6,a5,0x20

   1c6bc:	020b5b13          	srli	s6,s6,0x20

   1c6c0:	000c8893          	mv	a7,s9

   1c6c4:	00c13823          	sd	a2,16(sp)

   1c6c8:	d84ff06f          	j	1bc4c <_vfiprintf_r+0x658>

   1c6cc:	01013783          	ld	a5,16(sp)

   1c6d0:	000c8a13          	mv	s4,s9

   1c6d4:	00b13823          	sd	a1,16(sp)

   1c6d8:	0007ab03          	lw	s6,0(a5)

   1c6dc:	000b0613          	mv	a2,s6

   1c6e0:	d9cff06f          	j	1bc7c <_vfiprintf_r+0x688>

   1c6e4:	000c8a13          	mv	s4,s9

   1c6e8:	db8ff06f          	j	1bca0 <_vfiprintf_r+0x6ac>

   1c6ec:	000c0b13          	mv	s6,s8

   1c6f0:	00e13823          	sd	a4,16(sp)

   1c6f4:	00000c13          	li	s8,0

   1c6f8:	a04ff06f          	j	1b8fc <_vfiprintf_r+0x308>

   1c6fc:	00006f17          	auipc	t5,0x6

   1c700:	e54f0f13          	addi	t5,t5,-428 # 22550 <blanks.4516>

   1c704:	b61ff06f          	j	1c264 <_vfiprintf_r+0xc70>

   1c708:	0016871b          	addiw	a4,a3,1

   1c70c:	00006f17          	auipc	t5,0x6

   1c710:	e44f0f13          	addi	t5,t5,-444 # 22550 <blanks.4516>

   1c714:	c2dff06f          	j	1c340 <_vfiprintf_r+0xd4c>

   1c718:	fff00793          	li	a5,-1

   1c71c:	00f13423          	sd	a5,8(sp)

   1c720:	920ff06f          	j	1b840 <_vfiprintf_r+0x24c>

   1c724:	00058f13          	mv	t5,a1

   1c728:	00050293          	mv	t0,a0

   1c72c:	00006e97          	auipc	t4,0x6

   1c730:	e34e8e93          	addi	t4,t4,-460 # 22560 <zeroes.4517>

   1c734:	8c5ff06f          	j	1bff8 <_vfiprintf_r+0xa04>

   1c738:	00f6a023          	sw	a5,0(a3)

   1c73c:	fa1fe06f          	j	1b6dc <_vfiprintf_r+0xe8>

   1c740:	01013703          	ld	a4,16(sp)

   1c744:	00072683          	lw	a3,0(a4)

   1c748:	00870b93          	addi	s7,a4,8

   1c74c:	0006d463          	bgez	a3,1c754 <_vfiprintf_r+0x1160>

   1c750:	fff00693          	li	a3,-1

   1c754:	001d4603          	lbu	a2,1(s10)

   1c758:	00068c13          	mv	s8,a3

   1c75c:	01713823          	sd	s7,16(sp)

   1c760:	00078d13          	mv	s10,a5

   1c764:	828ff06f          	j	1b78c <_vfiprintf_r+0x198>



000000000001c768 <vfiprintf>:

   1c768:	75818793          	addi	a5,gp,1880 # 24a18 <_impure_ptr>

   1c76c:	00060693          	mv	a3,a2

   1c770:	00058613          	mv	a2,a1

   1c774:	00050593          	mv	a1,a0

   1c778:	0007b503          	ld	a0,0(a5)

   1c77c:	e79fe06f          	j	1b5f4 <_vfiprintf_r>



000000000001c780 <__sbprintf>:

   1c780:	0105d783          	lhu	a5,16(a1)

   1c784:	0ac5ae03          	lw	t3,172(a1)

   1c788:	0125d303          	lhu	t1,18(a1)

   1c78c:	0305b883          	ld	a7,48(a1)

   1c790:	0405b803          	ld	a6,64(a1)

   1c794:	b3010113          	addi	sp,sp,-1232

   1c798:	ffd7f793          	andi	a5,a5,-3

   1c79c:	40000713          	li	a4,1024

   1c7a0:	4c813023          	sd	s0,1216(sp)

   1c7a4:	00f11823          	sh	a5,16(sp)

   1c7a8:	00058413          	mv	s0,a1

   1c7ac:	0b010793          	addi	a5,sp,176

   1c7b0:	00010593          	mv	a1,sp

   1c7b4:	4a913c23          	sd	s1,1208(sp)

   1c7b8:	4b213823          	sd	s2,1200(sp)

   1c7bc:	4c113423          	sd	ra,1224(sp)

   1c7c0:	00050913          	mv	s2,a0

   1c7c4:	0bc12623          	sw	t3,172(sp)

   1c7c8:	00611923          	sh	t1,18(sp)

   1c7cc:	03113823          	sd	a7,48(sp)

   1c7d0:	05013023          	sd	a6,64(sp)

   1c7d4:	00f13023          	sd	a5,0(sp)

   1c7d8:	00f13c23          	sd	a5,24(sp)

   1c7dc:	00e12623          	sw	a4,12(sp)

   1c7e0:	02e12023          	sw	a4,32(sp)

   1c7e4:	02012423          	sw	zero,40(sp)

   1c7e8:	e0dfe0ef          	jal	ra,1b5f4 <_vfiprintf_r>

   1c7ec:	00050493          	mv	s1,a0

   1c7f0:	02055c63          	bgez	a0,1c828 <__sbprintf+0xa8>

   1c7f4:	01015783          	lhu	a5,16(sp)

   1c7f8:	0407f793          	andi	a5,a5,64

   1c7fc:	00078863          	beqz	a5,1c80c <__sbprintf+0x8c>

   1c800:	01045783          	lhu	a5,16(s0)

   1c804:	0407e793          	ori	a5,a5,64

   1c808:	00f41823          	sh	a5,16(s0)

   1c80c:	4c813083          	ld	ra,1224(sp)

   1c810:	4c013403          	ld	s0,1216(sp)

   1c814:	00048513          	mv	a0,s1

   1c818:	4b013903          	ld	s2,1200(sp)

   1c81c:	4b813483          	ld	s1,1208(sp)

   1c820:	4d010113          	addi	sp,sp,1232

   1c824:	00008067          	ret

   1c828:	00010593          	mv	a1,sp

   1c82c:	00090513          	mv	a0,s2

   1c830:	b15f60ef          	jal	ra,13344 <_fflush_r>

   1c834:	fc0500e3          	beqz	a0,1c7f4 <__sbprintf+0x74>

   1c838:	fff00493          	li	s1,-1

   1c83c:	fb9ff06f          	j	1c7f4 <__sbprintf+0x74>



000000000001c840 <_wctomb_r>:

   1c840:	d6018793          	addi	a5,gp,-672 # 24020 <__global_locale>

   1c844:	0e07b303          	ld	t1,224(a5)

   1c848:	00030067          	jr	t1



000000000001c84c <__ascii_wctomb>:

   1c84c:	0006079b          	sext.w	a5,a2

   1c850:	02058463          	beqz	a1,1c878 <__ascii_wctomb+0x2c>

   1c854:	0ff00713          	li	a4,255

   1c858:	00f76863          	bltu	a4,a5,1c868 <__ascii_wctomb+0x1c>

   1c85c:	00c58023          	sb	a2,0(a1)

   1c860:	00100513          	li	a0,1

   1c864:	00008067          	ret

   1c868:	08a00793          	li	a5,138

   1c86c:	00f52023          	sw	a5,0(a0)

   1c870:	fff00513          	li	a0,-1

   1c874:	00008067          	ret

   1c878:	00000513          	li	a0,0

   1c87c:	00008067          	ret



000000000001c880 <_write_r>:

   1c880:	00058793          	mv	a5,a1

   1c884:	ff010113          	addi	sp,sp,-16

   1c888:	00813023          	sd	s0,0(sp)

   1c88c:	00060593          	mv	a1,a2

   1c890:	00050413          	mv	s0,a0

   1c894:	00068613          	mv	a2,a3

   1c898:	00078513          	mv	a0,a5

   1c89c:	00113423          	sd	ra,8(sp)

   1c8a0:	00008797          	auipc	a5,0x8

   1c8a4:	2007ac23          	sw	zero,536(a5) # 24ab8 <errno>

   1c8a8:	26d020ef          	jal	ra,1f314 <_write>

   1c8ac:	fff00793          	li	a5,-1

   1c8b0:	00f50a63          	beq	a0,a5,1c8c4 <_write_r+0x44>

   1c8b4:	00813083          	ld	ra,8(sp)

   1c8b8:	00013403          	ld	s0,0(sp)

   1c8bc:	01010113          	addi	sp,sp,16

   1c8c0:	00008067          	ret

   1c8c4:	00008797          	auipc	a5,0x8

   1c8c8:	1f478793          	addi	a5,a5,500 # 24ab8 <errno>

   1c8cc:	0007a783          	lw	a5,0(a5)

   1c8d0:	fe0782e3          	beqz	a5,1c8b4 <_write_r+0x34>

   1c8d4:	00f42023          	sw	a5,0(s0)

   1c8d8:	00813083          	ld	ra,8(sp)

   1c8dc:	00013403          	ld	s0,0(sp)

   1c8e0:	01010113          	addi	sp,sp,16

   1c8e4:	00008067          	ret



000000000001c8e8 <_calloc_r>:

   1c8e8:	ff010113          	addi	sp,sp,-16

   1c8ec:	00058793          	mv	a5,a1

   1c8f0:	00813023          	sd	s0,0(sp)

   1c8f4:	00060593          	mv	a1,a2

   1c8f8:	00050413          	mv	s0,a0

   1c8fc:	00078513          	mv	a0,a5

   1c900:	00113423          	sd	ra,8(sp)

   1c904:	110050ef          	jal	ra,21a14 <__muldi3>

   1c908:	00050593          	mv	a1,a0

   1c90c:	00040513          	mv	a0,s0

   1c910:	aacfa0ef          	jal	ra,16bbc <_malloc_r>

   1c914:	00050413          	mv	s0,a0

   1c918:	02050863          	beqz	a0,1c948 <_calloc_r+0x60>

   1c91c:	ff853603          	ld	a2,-8(a0)

   1c920:	04800713          	li	a4,72

   1c924:	ffc67613          	andi	a2,a2,-4

   1c928:	ff860613          	addi	a2,a2,-8

   1c92c:	06c76063          	bltu	a4,a2,1c98c <_calloc_r+0xa4>

   1c930:	02700693          	li	a3,39

   1c934:	00050793          	mv	a5,a0

   1c938:	02c6e263          	bltu	a3,a2,1c95c <_calloc_r+0x74>

   1c93c:	0007b023          	sd	zero,0(a5)

   1c940:	0007b423          	sd	zero,8(a5)

   1c944:	0007b823          	sd	zero,16(a5)

   1c948:	00040513          	mv	a0,s0

   1c94c:	00813083          	ld	ra,8(sp)

   1c950:	00013403          	ld	s0,0(sp)

   1c954:	01010113          	addi	sp,sp,16

   1c958:	00008067          	ret

   1c95c:	00053023          	sd	zero,0(a0)

   1c960:	00053423          	sd	zero,8(a0)

   1c964:	03700793          	li	a5,55

   1c968:	04c7f063          	bgeu	a5,a2,1c9a8 <_calloc_r+0xc0>

   1c96c:	00053823          	sd	zero,16(a0)

   1c970:	00053c23          	sd	zero,24(a0)

   1c974:	02050793          	addi	a5,a0,32

   1c978:	fce612e3          	bne	a2,a4,1c93c <_calloc_r+0x54>

   1c97c:	02053023          	sd	zero,32(a0)

   1c980:	03050793          	addi	a5,a0,48

   1c984:	02053423          	sd	zero,40(a0)

   1c988:	fb5ff06f          	j	1c93c <_calloc_r+0x54>

   1c98c:	00000593          	li	a1,0

   1c990:	abdf30ef          	jal	ra,1044c <memset>

   1c994:	00040513          	mv	a0,s0

   1c998:	00813083          	ld	ra,8(sp)

   1c99c:	00013403          	ld	s0,0(sp)

   1c9a0:	01010113          	addi	sp,sp,16

   1c9a4:	00008067          	ret

   1c9a8:	01050793          	addi	a5,a0,16

   1c9ac:	f91ff06f          	j	1c93c <_calloc_r+0x54>



000000000001c9b0 <_close_r>:

   1c9b0:	ff010113          	addi	sp,sp,-16

   1c9b4:	00813023          	sd	s0,0(sp)

   1c9b8:	00050413          	mv	s0,a0

   1c9bc:	00058513          	mv	a0,a1

   1c9c0:	00008797          	auipc	a5,0x8

   1c9c4:	0e07ac23          	sw	zero,248(a5) # 24ab8 <errno>

   1c9c8:	00113423          	sd	ra,8(sp)

   1c9cc:	6b8020ef          	jal	ra,1f084 <_close>

   1c9d0:	fff00793          	li	a5,-1

   1c9d4:	00f50a63          	beq	a0,a5,1c9e8 <_close_r+0x38>

   1c9d8:	00813083          	ld	ra,8(sp)

   1c9dc:	00013403          	ld	s0,0(sp)

   1c9e0:	01010113          	addi	sp,sp,16

   1c9e4:	00008067          	ret

   1c9e8:	00008797          	auipc	a5,0x8

   1c9ec:	0d078793          	addi	a5,a5,208 # 24ab8 <errno>

   1c9f0:	0007a783          	lw	a5,0(a5)

   1c9f4:	fe0782e3          	beqz	a5,1c9d8 <_close_r+0x28>

   1c9f8:	00f42023          	sw	a5,0(s0)

   1c9fc:	00813083          	ld	ra,8(sp)

   1ca00:	00013403          	ld	s0,0(sp)

   1ca04:	01010113          	addi	sp,sp,16

   1ca08:	00008067          	ret



000000000001ca0c <_fclose_r>:

   1ca0c:	fe010113          	addi	sp,sp,-32

   1ca10:	00113c23          	sd	ra,24(sp)

   1ca14:	00813823          	sd	s0,16(sp)

   1ca18:	00913423          	sd	s1,8(sp)

   1ca1c:	01213023          	sd	s2,0(sp)

   1ca20:	02058063          	beqz	a1,1ca40 <_fclose_r+0x34>

   1ca24:	00050493          	mv	s1,a0

   1ca28:	00058413          	mv	s0,a1

   1ca2c:	00050663          	beqz	a0,1ca38 <_fclose_r+0x2c>

   1ca30:	05052783          	lw	a5,80(a0)

   1ca34:	0a078c63          	beqz	a5,1caec <_fclose_r+0xe0>

   1ca38:	01041783          	lh	a5,16(s0)

   1ca3c:	02079263          	bnez	a5,1ca60 <_fclose_r+0x54>

   1ca40:	01813083          	ld	ra,24(sp)

   1ca44:	01013403          	ld	s0,16(sp)

   1ca48:	00000913          	li	s2,0

   1ca4c:	00090513          	mv	a0,s2

   1ca50:	00813483          	ld	s1,8(sp)

   1ca54:	00013903          	ld	s2,0(sp)

   1ca58:	02010113          	addi	sp,sp,32

   1ca5c:	00008067          	ret

   1ca60:	00040593          	mv	a1,s0

   1ca64:	00048513          	mv	a0,s1

   1ca68:	e80f60ef          	jal	ra,130e8 <__sflush_r>

   1ca6c:	05043783          	ld	a5,80(s0)

   1ca70:	00050913          	mv	s2,a0

   1ca74:	00078a63          	beqz	a5,1ca88 <_fclose_r+0x7c>

   1ca78:	03043583          	ld	a1,48(s0)

   1ca7c:	00048513          	mv	a0,s1

   1ca80:	000780e7          	jalr	a5

   1ca84:	06054c63          	bltz	a0,1cafc <_fclose_r+0xf0>

   1ca88:	01045783          	lhu	a5,16(s0)

   1ca8c:	0807f793          	andi	a5,a5,128

   1ca90:	06079e63          	bnez	a5,1cb0c <_fclose_r+0x100>

   1ca94:	05843583          	ld	a1,88(s0)

   1ca98:	00058c63          	beqz	a1,1cab0 <_fclose_r+0xa4>

   1ca9c:	07440793          	addi	a5,s0,116

   1caa0:	00f58663          	beq	a1,a5,1caac <_fclose_r+0xa0>

   1caa4:	00048513          	mv	a0,s1

   1caa8:	dc5f60ef          	jal	ra,1386c <_free_r>

   1caac:	04043c23          	sd	zero,88(s0)

   1cab0:	07843583          	ld	a1,120(s0)

   1cab4:	00058863          	beqz	a1,1cac4 <_fclose_r+0xb8>

   1cab8:	00048513          	mv	a0,s1

   1cabc:	db1f60ef          	jal	ra,1386c <_free_r>

   1cac0:	06043c23          	sd	zero,120(s0)

   1cac4:	c39f60ef          	jal	ra,136fc <__sfp_lock_acquire>

   1cac8:	00041823          	sh	zero,16(s0)

   1cacc:	c35f60ef          	jal	ra,13700 <__sfp_lock_release>

   1cad0:	01813083          	ld	ra,24(sp)

   1cad4:	01013403          	ld	s0,16(sp)

   1cad8:	00090513          	mv	a0,s2

   1cadc:	00813483          	ld	s1,8(sp)

   1cae0:	00013903          	ld	s2,0(sp)

   1cae4:	02010113          	addi	sp,sp,32

   1cae8:	00008067          	ret

   1caec:	c01f60ef          	jal	ra,136ec <__sinit>

   1caf0:	01041783          	lh	a5,16(s0)

   1caf4:	f40786e3          	beqz	a5,1ca40 <_fclose_r+0x34>

   1caf8:	f69ff06f          	j	1ca60 <_fclose_r+0x54>

   1cafc:	01045783          	lhu	a5,16(s0)

   1cb00:	fff00913          	li	s2,-1

   1cb04:	0807f793          	andi	a5,a5,128

   1cb08:	f80786e3          	beqz	a5,1ca94 <_fclose_r+0x88>

   1cb0c:	01843583          	ld	a1,24(s0)

   1cb10:	00048513          	mv	a0,s1

   1cb14:	d59f60ef          	jal	ra,1386c <_free_r>

   1cb18:	f7dff06f          	j	1ca94 <_fclose_r+0x88>



000000000001cb1c <fclose>:

   1cb1c:	75818793          	addi	a5,gp,1880 # 24a18 <_impure_ptr>

   1cb20:	00050593          	mv	a1,a0

   1cb24:	0007b503          	ld	a0,0(a5)

   1cb28:	ee5ff06f          	j	1ca0c <_fclose_r>



000000000001cb2c <__fputwc>:

   1cb2c:	fb010113          	addi	sp,sp,-80

   1cb30:	04813023          	sd	s0,64(sp)

   1cb34:	03213823          	sd	s2,48(sp)

   1cb38:	03313423          	sd	s3,40(sp)

   1cb3c:	04113423          	sd	ra,72(sp)

   1cb40:	02913c23          	sd	s1,56(sp)

   1cb44:	03413023          	sd	s4,32(sp)

   1cb48:	01513c23          	sd	s5,24(sp)

   1cb4c:	01613823          	sd	s6,16(sp)

   1cb50:	00050913          	mv	s2,a0

   1cb54:	00058993          	mv	s3,a1

   1cb58:	00060413          	mv	s0,a2

   1cb5c:	e55f90ef          	jal	ra,169b0 <__locale_mb_cur_max>

   1cb60:	00100793          	li	a5,1

   1cb64:	02f51063          	bne	a0,a5,1cb84 <__fputwc+0x58>

   1cb68:	fff9879b          	addiw	a5,s3,-1

   1cb6c:	0fe00713          	li	a4,254

   1cb70:	00f76a63          	bltu	a4,a5,1cb84 <__fputwc+0x58>

   1cb74:	0ff9f713          	andi	a4,s3,255

   1cb78:	00e10423          	sb	a4,8(sp)

   1cb7c:	00100a93          	li	s5,1

   1cb80:	02c0006f          	j	1cbac <__fputwc+0x80>

   1cb84:	0a440693          	addi	a3,s0,164

   1cb88:	00098613          	mv	a2,s3

   1cb8c:	00810593          	addi	a1,sp,8

   1cb90:	00090513          	mv	a0,s2

   1cb94:	3e8020ef          	jal	ra,1ef7c <_wcrtomb_r>

   1cb98:	fff00793          	li	a5,-1

   1cb9c:	00050a93          	mv	s5,a0

   1cba0:	0af50263          	beq	a0,a5,1cc44 <__fputwc+0x118>

   1cba4:	08050c63          	beqz	a0,1cc3c <__fputwc+0x110>

   1cba8:	00814703          	lbu	a4,8(sp)

   1cbac:	00000493          	li	s1,0

   1cbb0:	fff00a13          	li	s4,-1

   1cbb4:	00a00b13          	li	s6,10

   1cbb8:	0280006f          	j	1cbe0 <__fputwc+0xb4>

   1cbbc:	00043783          	ld	a5,0(s0)

   1cbc0:	00178693          	addi	a3,a5,1

   1cbc4:	00d43023          	sd	a3,0(s0)

   1cbc8:	00e78023          	sb	a4,0(a5)

   1cbcc:	00148493          	addi	s1,s1,1

   1cbd0:	00810793          	addi	a5,sp,8

   1cbd4:	009787b3          	add	a5,a5,s1

   1cbd8:	0754f263          	bgeu	s1,s5,1cc3c <__fputwc+0x110>

   1cbdc:	0007c703          	lbu	a4,0(a5)

   1cbe0:	00c42783          	lw	a5,12(s0)

   1cbe4:	fff7879b          	addiw	a5,a5,-1

   1cbe8:	00f42623          	sw	a5,12(s0)

   1cbec:	fc07d8e3          	bgez	a5,1cbbc <__fputwc+0x90>

   1cbf0:	02842683          	lw	a3,40(s0)

   1cbf4:	00070593          	mv	a1,a4

   1cbf8:	00040613          	mv	a2,s0

   1cbfc:	00090513          	mv	a0,s2

   1cc00:	00d7c463          	blt	a5,a3,1cc08 <__fputwc+0xdc>

   1cc04:	fb671ce3          	bne	a4,s6,1cbbc <__fputwc+0x90>

   1cc08:	1dc020ef          	jal	ra,1ede4 <__swbuf_r>

   1cc0c:	fd4510e3          	bne	a0,s4,1cbcc <__fputwc+0xa0>

   1cc10:	fff00513          	li	a0,-1

   1cc14:	04813083          	ld	ra,72(sp)

   1cc18:	04013403          	ld	s0,64(sp)

   1cc1c:	03813483          	ld	s1,56(sp)

   1cc20:	03013903          	ld	s2,48(sp)

   1cc24:	02813983          	ld	s3,40(sp)

   1cc28:	02013a03          	ld	s4,32(sp)

   1cc2c:	01813a83          	ld	s5,24(sp)

   1cc30:	01013b03          	ld	s6,16(sp)

   1cc34:	05010113          	addi	sp,sp,80

   1cc38:	00008067          	ret

   1cc3c:	0009851b          	sext.w	a0,s3

   1cc40:	fd5ff06f          	j	1cc14 <__fputwc+0xe8>

   1cc44:	01045783          	lhu	a5,16(s0)

   1cc48:	fff00513          	li	a0,-1

   1cc4c:	0407e793          	ori	a5,a5,64

   1cc50:	00f41823          	sh	a5,16(s0)

   1cc54:	fc1ff06f          	j	1cc14 <__fputwc+0xe8>



000000000001cc58 <_fputwc_r>:

   1cc58:	01061783          	lh	a5,16(a2)

   1cc5c:	03279713          	slli	a4,a5,0x32

   1cc60:	02074063          	bltz	a4,1cc80 <_fputwc_r+0x28>

   1cc64:	0ac62703          	lw	a4,172(a2)

   1cc68:	000026b7          	lui	a3,0x2

   1cc6c:	00d7e7b3          	or	a5,a5,a3

   1cc70:	000026b7          	lui	a3,0x2

   1cc74:	00d76733          	or	a4,a4,a3

   1cc78:	00f61823          	sh	a5,16(a2)

   1cc7c:	0ae62623          	sw	a4,172(a2)

   1cc80:	eadff06f          	j	1cb2c <__fputwc>



000000000001cc84 <fputwc>:

   1cc84:	fd010113          	addi	sp,sp,-48

   1cc88:	75818793          	addi	a5,gp,1880 # 24a18 <_impure_ptr>

   1cc8c:	02813023          	sd	s0,32(sp)

   1cc90:	0007b403          	ld	s0,0(a5)

   1cc94:	00913c23          	sd	s1,24(sp)

   1cc98:	02113423          	sd	ra,40(sp)

   1cc9c:	00050493          	mv	s1,a0

   1cca0:	00058613          	mv	a2,a1

   1cca4:	00040663          	beqz	s0,1ccb0 <fputwc+0x2c>

   1cca8:	05042783          	lw	a5,80(s0)

   1ccac:	04078463          	beqz	a5,1ccf4 <fputwc+0x70>

   1ccb0:	01061783          	lh	a5,16(a2)

   1ccb4:	03279713          	slli	a4,a5,0x32

   1ccb8:	02074063          	bltz	a4,1ccd8 <fputwc+0x54>

   1ccbc:	0ac62703          	lw	a4,172(a2)

   1ccc0:	000026b7          	lui	a3,0x2

   1ccc4:	00d7e7b3          	or	a5,a5,a3

   1ccc8:	000026b7          	lui	a3,0x2

   1cccc:	00d76733          	or	a4,a4,a3

   1ccd0:	00f61823          	sh	a5,16(a2)

   1ccd4:	0ae62623          	sw	a4,172(a2)

   1ccd8:	00040513          	mv	a0,s0

   1ccdc:	02013403          	ld	s0,32(sp)

   1cce0:	02813083          	ld	ra,40(sp)

   1cce4:	00048593          	mv	a1,s1

   1cce8:	01813483          	ld	s1,24(sp)

   1ccec:	03010113          	addi	sp,sp,48

   1ccf0:	e3dff06f          	j	1cb2c <__fputwc>

   1ccf4:	00040513          	mv	a0,s0

   1ccf8:	00b13423          	sd	a1,8(sp)

   1ccfc:	9f1f60ef          	jal	ra,136ec <__sinit>

   1cd00:	00813603          	ld	a2,8(sp)

   1cd04:	fadff06f          	j	1ccb0 <fputwc+0x2c>



000000000001cd08 <_fstat_r>:

   1cd08:	00058793          	mv	a5,a1

   1cd0c:	ff010113          	addi	sp,sp,-16

   1cd10:	00813023          	sd	s0,0(sp)

   1cd14:	00060593          	mv	a1,a2

   1cd18:	00050413          	mv	s0,a0

   1cd1c:	00078513          	mv	a0,a5

   1cd20:	00113423          	sd	ra,8(sp)

   1cd24:	00008797          	auipc	a5,0x8

   1cd28:	d807aa23          	sw	zero,-620(a5) # 24ab8 <errno>

   1cd2c:	3f4020ef          	jal	ra,1f120 <_fstat>

   1cd30:	fff00793          	li	a5,-1

   1cd34:	00f50a63          	beq	a0,a5,1cd48 <_fstat_r+0x40>

   1cd38:	00813083          	ld	ra,8(sp)

   1cd3c:	00013403          	ld	s0,0(sp)

   1cd40:	01010113          	addi	sp,sp,16

   1cd44:	00008067          	ret

   1cd48:	00008797          	auipc	a5,0x8

   1cd4c:	d7078793          	addi	a5,a5,-656 # 24ab8 <errno>

   1cd50:	0007a783          	lw	a5,0(a5)

   1cd54:	fe0782e3          	beqz	a5,1cd38 <_fstat_r+0x30>

   1cd58:	00f42023          	sw	a5,0(s0)

   1cd5c:	00813083          	ld	ra,8(sp)

   1cd60:	00013403          	ld	s0,0(sp)

   1cd64:	01010113          	addi	sp,sp,16

   1cd68:	00008067          	ret



000000000001cd6c <__sfvwrite_r>:

   1cd6c:	01063783          	ld	a5,16(a2)

   1cd70:	28078c63          	beqz	a5,1d008 <__sfvwrite_r+0x29c>

   1cd74:	0105d783          	lhu	a5,16(a1)

   1cd78:	fa010113          	addi	sp,sp,-96

   1cd7c:	04813823          	sd	s0,80(sp)

   1cd80:	03413823          	sd	s4,48(sp)

   1cd84:	03513423          	sd	s5,40(sp)

   1cd88:	04113c23          	sd	ra,88(sp)

   1cd8c:	04913423          	sd	s1,72(sp)

   1cd90:	05213023          	sd	s2,64(sp)

   1cd94:	03313c23          	sd	s3,56(sp)

   1cd98:	03613023          	sd	s6,32(sp)

   1cd9c:	01713c23          	sd	s7,24(sp)

   1cda0:	01813823          	sd	s8,16(sp)

   1cda4:	01913423          	sd	s9,8(sp)

   1cda8:	01a13023          	sd	s10,0(sp)

   1cdac:	0087f713          	andi	a4,a5,8

   1cdb0:	00058413          	mv	s0,a1

   1cdb4:	00050a93          	mv	s5,a0

   1cdb8:	00060a13          	mv	s4,a2

   1cdbc:	08070c63          	beqz	a4,1ce54 <__sfvwrite_r+0xe8>

   1cdc0:	0185b703          	ld	a4,24(a1)

   1cdc4:	08070863          	beqz	a4,1ce54 <__sfvwrite_r+0xe8>

   1cdc8:	0027f713          	andi	a4,a5,2

   1cdcc:	000a3903          	ld	s2,0(s4)

   1cdd0:	0a070263          	beqz	a4,1ce74 <__sfvwrite_r+0x108>

   1cdd4:	04043703          	ld	a4,64(s0)

   1cdd8:	03043783          	ld	a5,48(s0)

   1cddc:	80000b37          	lui	s6,0x80000

   1cde0:	00000993          	li	s3,0

   1cde4:	00000493          	li	s1,0

   1cde8:	c00b4b13          	xori	s6,s6,-1024

   1cdec:	00098613          	mv	a2,s3

   1cdf0:	00078593          	mv	a1,a5

   1cdf4:	000a8513          	mv	a0,s5

   1cdf8:	04048663          	beqz	s1,1ce44 <__sfvwrite_r+0xd8>

   1cdfc:	00048693          	mv	a3,s1

   1ce00:	009b7463          	bgeu	s6,s1,1ce08 <__sfvwrite_r+0x9c>

   1ce04:	000b0693          	mv	a3,s6

   1ce08:	0006869b          	sext.w	a3,a3

   1ce0c:	000700e7          	jalr	a4

   1ce10:	1ea05263          	blez	a0,1cff4 <__sfvwrite_r+0x288>

   1ce14:	010a3783          	ld	a5,16(s4)

   1ce18:	00a989b3          	add	s3,s3,a0

   1ce1c:	40a484b3          	sub	s1,s1,a0

   1ce20:	40a78533          	sub	a0,a5,a0

   1ce24:	00aa3823          	sd	a0,16(s4)

   1ce28:	18050063          	beqz	a0,1cfa8 <__sfvwrite_r+0x23c>

   1ce2c:	03043783          	ld	a5,48(s0)

   1ce30:	04043703          	ld	a4,64(s0)

   1ce34:	00098613          	mv	a2,s3

   1ce38:	00078593          	mv	a1,a5

   1ce3c:	000a8513          	mv	a0,s5

   1ce40:	fa049ee3          	bnez	s1,1cdfc <__sfvwrite_r+0x90>

   1ce44:	00093983          	ld	s3,0(s2)

   1ce48:	00893483          	ld	s1,8(s2)

   1ce4c:	01090913          	addi	s2,s2,16

   1ce50:	f9dff06f          	j	1cdec <__sfvwrite_r+0x80>

   1ce54:	00040593          	mv	a1,s0

   1ce58:	000a8513          	mv	a0,s5

   1ce5c:	f55f50ef          	jal	ra,12db0 <__swsetup_r>

   1ce60:	3c051663          	bnez	a0,1d22c <__sfvwrite_r+0x4c0>

   1ce64:	01045783          	lhu	a5,16(s0)

   1ce68:	000a3903          	ld	s2,0(s4)

   1ce6c:	0027f713          	andi	a4,a5,2

   1ce70:	f60712e3          	bnez	a4,1cdd4 <__sfvwrite_r+0x68>

   1ce74:	0017f713          	andi	a4,a5,1

   1ce78:	0a071263          	bnez	a4,1cf1c <__sfvwrite_r+0x1b0>

   1ce7c:	00c42483          	lw	s1,12(s0)

   1ce80:	00043503          	ld	a0,0(s0)

   1ce84:	80000b37          	lui	s6,0x80000

   1ce88:	ffeb4b93          	xori	s7,s6,-2

   1ce8c:	00000c13          	li	s8,0

   1ce90:	00000993          	li	s3,0

   1ce94:	fffb4b13          	not	s6,s6

   1ce98:	00048c93          	mv	s9,s1

   1ce9c:	06098863          	beqz	s3,1cf0c <__sfvwrite_r+0x1a0>

   1cea0:	2007f713          	andi	a4,a5,512

   1cea4:	1c070863          	beqz	a4,1d074 <__sfvwrite_r+0x308>

   1cea8:	00048d13          	mv	s10,s1

   1ceac:	2699f663          	bgeu	s3,s1,1d118 <__sfvwrite_r+0x3ac>

   1ceb0:	00098c93          	mv	s9,s3

   1ceb4:	00098d13          	mv	s10,s3

   1ceb8:	000d0613          	mv	a2,s10

   1cebc:	000c0593          	mv	a1,s8

   1cec0:	554000ef          	jal	ra,1d414 <memmove>

   1cec4:	00c42783          	lw	a5,12(s0)

   1cec8:	00043603          	ld	a2,0(s0)

   1cecc:	00098493          	mv	s1,s3

   1ced0:	41978cbb          	subw	s9,a5,s9

   1ced4:	01a60633          	add	a2,a2,s10

   1ced8:	01942623          	sw	s9,12(s0)

   1cedc:	00c43023          	sd	a2,0(s0)

   1cee0:	00000993          	li	s3,0

   1cee4:	010a3783          	ld	a5,16(s4)

   1cee8:	009c0c33          	add	s8,s8,s1

   1ceec:	409784b3          	sub	s1,a5,s1

   1cef0:	009a3823          	sd	s1,16(s4)

   1cef4:	0a048a63          	beqz	s1,1cfa8 <__sfvwrite_r+0x23c>

   1cef8:	00c42483          	lw	s1,12(s0)

   1cefc:	00043503          	ld	a0,0(s0)

   1cf00:	01045783          	lhu	a5,16(s0)

   1cf04:	00048c93          	mv	s9,s1

   1cf08:	f8099ce3          	bnez	s3,1cea0 <__sfvwrite_r+0x134>

   1cf0c:	00093c03          	ld	s8,0(s2)

   1cf10:	00893983          	ld	s3,8(s2)

   1cf14:	01090913          	addi	s2,s2,16

   1cf18:	f81ff06f          	j	1ce98 <__sfvwrite_r+0x12c>

   1cf1c:	00000993          	li	s3,0

   1cf20:	00000513          	li	a0,0

   1cf24:	00000c93          	li	s9,0

   1cf28:	00000493          	li	s1,0

   1cf2c:	0e048263          	beqz	s1,1d010 <__sfvwrite_r+0x2a4>

   1cf30:	0e050863          	beqz	a0,1d020 <__sfvwrite_r+0x2b4>

   1cf34:	00098c13          	mv	s8,s3

   1cf38:	0134f463          	bgeu	s1,s3,1cf40 <__sfvwrite_r+0x1d4>

   1cf3c:	00048c13          	mv	s8,s1

   1cf40:	00043503          	ld	a0,0(s0)

   1cf44:	01843783          	ld	a5,24(s0)

   1cf48:	000c0b13          	mv	s6,s8

   1cf4c:	02042683          	lw	a3,32(s0)

   1cf50:	00a7f863          	bgeu	a5,a0,1cf60 <__sfvwrite_r+0x1f4>

   1cf54:	00c42603          	lw	a2,12(s0)

   1cf58:	00d60bbb          	addw	s7,a2,a3

   1cf5c:	0f8bc263          	blt	s7,s8,1d040 <__sfvwrite_r+0x2d4>

   1cf60:	24dc4a63          	blt	s8,a3,1d1b4 <__sfvwrite_r+0x448>

   1cf64:	04043783          	ld	a5,64(s0)

   1cf68:	03043583          	ld	a1,48(s0)

   1cf6c:	000c8613          	mv	a2,s9

   1cf70:	000a8513          	mv	a0,s5

   1cf74:	000780e7          	jalr	a5

   1cf78:	00050b13          	mv	s6,a0

   1cf7c:	06a05c63          	blez	a0,1cff4 <__sfvwrite_r+0x288>

   1cf80:	0005061b          	sext.w	a2,a0

   1cf84:	40c989bb          	subw	s3,s3,a2

   1cf88:	00100513          	li	a0,1

   1cf8c:	04098c63          	beqz	s3,1cfe4 <__sfvwrite_r+0x278>

   1cf90:	010a3783          	ld	a5,16(s4)

   1cf94:	016c8cb3          	add	s9,s9,s6

   1cf98:	416484b3          	sub	s1,s1,s6

   1cf9c:	41678b33          	sub	s6,a5,s6

   1cfa0:	016a3823          	sd	s6,16(s4)

   1cfa4:	f80b14e3          	bnez	s6,1cf2c <__sfvwrite_r+0x1c0>

   1cfa8:	00000513          	li	a0,0

   1cfac:	05813083          	ld	ra,88(sp)

   1cfb0:	05013403          	ld	s0,80(sp)

   1cfb4:	04813483          	ld	s1,72(sp)

   1cfb8:	04013903          	ld	s2,64(sp)

   1cfbc:	03813983          	ld	s3,56(sp)

   1cfc0:	03013a03          	ld	s4,48(sp)

   1cfc4:	02813a83          	ld	s5,40(sp)

   1cfc8:	02013b03          	ld	s6,32(sp)

   1cfcc:	01813b83          	ld	s7,24(sp)

   1cfd0:	01013c03          	ld	s8,16(sp)

   1cfd4:	00813c83          	ld	s9,8(sp)

   1cfd8:	00013d03          	ld	s10,0(sp)

   1cfdc:	06010113          	addi	sp,sp,96

   1cfe0:	00008067          	ret

   1cfe4:	00040593          	mv	a1,s0

   1cfe8:	000a8513          	mv	a0,s5

   1cfec:	b58f60ef          	jal	ra,13344 <_fflush_r>

   1cff0:	fa0500e3          	beqz	a0,1cf90 <__sfvwrite_r+0x224>

   1cff4:	01041783          	lh	a5,16(s0)

   1cff8:	0407e793          	ori	a5,a5,64

   1cffc:	00f41823          	sh	a5,16(s0)

   1d000:	fff00513          	li	a0,-1

   1d004:	fa9ff06f          	j	1cfac <__sfvwrite_r+0x240>

   1d008:	00000513          	li	a0,0

   1d00c:	00008067          	ret

   1d010:	00893483          	ld	s1,8(s2)

   1d014:	00093c83          	ld	s9,0(s2)

   1d018:	01090913          	addi	s2,s2,16

   1d01c:	fe048ae3          	beqz	s1,1d010 <__sfvwrite_r+0x2a4>

   1d020:	00048613          	mv	a2,s1

   1d024:	00a00593          	li	a1,10

   1d028:	000c8513          	mv	a0,s9

   1d02c:	c5cfa0ef          	jal	ra,17488 <memchr>

   1d030:	1e050263          	beqz	a0,1d214 <__sfvwrite_r+0x4a8>

   1d034:	00150513          	addi	a0,a0,1

   1d038:	419509bb          	subw	s3,a0,s9

   1d03c:	ef9ff06f          	j	1cf34 <__sfvwrite_r+0x1c8>

   1d040:	000c8593          	mv	a1,s9

   1d044:	000b8613          	mv	a2,s7

   1d048:	3cc000ef          	jal	ra,1d414 <memmove>

   1d04c:	00043783          	ld	a5,0(s0)

   1d050:	00040593          	mv	a1,s0

   1d054:	000a8513          	mv	a0,s5

   1d058:	017787b3          	add	a5,a5,s7

   1d05c:	00f43023          	sd	a5,0(s0)

   1d060:	ae4f60ef          	jal	ra,13344 <_fflush_r>

   1d064:	f80518e3          	bnez	a0,1cff4 <__sfvwrite_r+0x288>

   1d068:	000b8613          	mv	a2,s7

   1d06c:	000b8b13          	mv	s6,s7

   1d070:	f15ff06f          	j	1cf84 <__sfvwrite_r+0x218>

   1d074:	01843783          	ld	a5,24(s0)

   1d078:	04a7ec63          	bltu	a5,a0,1d0d0 <__sfvwrite_r+0x364>

   1d07c:	02042c83          	lw	s9,32(s0)

   1d080:	0599e863          	bltu	s3,s9,1d0d0 <__sfvwrite_r+0x364>

   1d084:	00098513          	mv	a0,s3

   1d088:	013bf463          	bgeu	s7,s3,1d090 <__sfvwrite_r+0x324>

   1d08c:	000b0513          	mv	a0,s6

   1d090:	000c8593          	mv	a1,s9

   1d094:	0005051b          	sext.w	a0,a0

   1d098:	1e1040ef          	jal	ra,21a78 <__divdi3>

   1d09c:	00050593          	mv	a1,a0

   1d0a0:	000c8513          	mv	a0,s9

   1d0a4:	171040ef          	jal	ra,21a14 <__muldi3>

   1d0a8:	03043583          	ld	a1,48(s0)

   1d0ac:	04043783          	ld	a5,64(s0)

   1d0b0:	0005069b          	sext.w	a3,a0

   1d0b4:	000c0613          	mv	a2,s8

   1d0b8:	000a8513          	mv	a0,s5

   1d0bc:	000780e7          	jalr	a5

   1d0c0:	f2a05ae3          	blez	a0,1cff4 <__sfvwrite_r+0x288>

   1d0c4:	00050493          	mv	s1,a0

   1d0c8:	409989b3          	sub	s3,s3,s1

   1d0cc:	e19ff06f          	j	1cee4 <__sfvwrite_r+0x178>

   1d0d0:	0099f463          	bgeu	s3,s1,1d0d8 <__sfvwrite_r+0x36c>

   1d0d4:	00098493          	mv	s1,s3

   1d0d8:	00048613          	mv	a2,s1

   1d0dc:	000c0593          	mv	a1,s8

