   181c8:	00008067          	ret

   181cc:	40a0053b          	negw	a0,a0

   181d0:	4145579b          	sraiw	a5,a0,0x14

   181d4:	01300713          	li	a4,19

   181d8:	00f74a63          	blt	a4,a5,181ec <__ulp+0x44>

   181dc:	00080537          	lui	a0,0x80

   181e0:	40f5553b          	sraw	a0,a0,a5

   181e4:	02051513          	slli	a0,a0,0x20

   181e8:	00008067          	ret

   181ec:	fec7871b          	addiw	a4,a5,-20

   181f0:	01e00693          	li	a3,30

   181f4:	00000513          	li	a0,0

   181f8:	00100793          	li	a5,1

   181fc:	00e6c663          	blt	a3,a4,18208 <__ulp+0x60>

   18200:	800007b7          	lui	a5,0x80000

   18204:	00e7d7bb          	srlw	a5,a5,a4

   18208:	02055513          	srli	a0,a0,0x20

   1820c:	02079793          	slli	a5,a5,0x20

   18210:	0207d793          	srli	a5,a5,0x20

   18214:	02051513          	slli	a0,a0,0x20

   18218:	00f56533          	or	a0,a0,a5

   1821c:	00008067          	ret



0000000000018220 <__b2d>:

   18220:	fd010113          	addi	sp,sp,-48

   18224:	02813023          	sd	s0,32(sp)

   18228:	01452403          	lw	s0,20(a0) # 80014 <__BSS_END__+0x5b554>

   1822c:	01213823          	sd	s2,16(sp)

   18230:	01850913          	addi	s2,a0,24

   18234:	00241413          	slli	s0,s0,0x2

   18238:	00890433          	add	s0,s2,s0

   1823c:	00913c23          	sd	s1,24(sp)

   18240:	ffc42483          	lw	s1,-4(s0)

   18244:	01313423          	sd	s3,8(sp)

   18248:	01413023          	sd	s4,0(sp)

   1824c:	00048513          	mv	a0,s1

   18250:	00058a13          	mv	s4,a1

   18254:	02113423          	sd	ra,40(sp)

   18258:	e88ff0ef          	jal	ra,178e0 <__hi0bits>

   1825c:	02000693          	li	a3,32

   18260:	40a687bb          	subw	a5,a3,a0

   18264:	00fa2023          	sw	a5,0(s4)

   18268:	00a00793          	li	a5,10

   1826c:	ffc40993          	addi	s3,s0,-4

   18270:	0aa7d663          	bge	a5,a0,1831c <__b2d+0xfc>

   18274:	ff55079b          	addiw	a5,a0,-11

   18278:	07397063          	bgeu	s2,s3,182d8 <__b2d+0xb8>

   1827c:	ff842703          	lw	a4,-8(s0)

   18280:	06078063          	beqz	a5,182e0 <__b2d+0xc0>

   18284:	40f6853b          	subw	a0,a3,a5

   18288:	00f496bb          	sllw	a3,s1,a5

   1828c:	00a754bb          	srlw	s1,a4,a0

   18290:	0096e6b3          	or	a3,a3,s1

   18294:	3ff004b7          	lui	s1,0x3ff00

   18298:	0096e6b3          	or	a3,a3,s1

   1829c:	00f7173b          	sllw	a4,a4,a5

   182a0:	ff840613          	addi	a2,s0,-8

   182a4:	02069793          	slli	a5,a3,0x20

   182a8:	0007069b          	sext.w	a3,a4

   182ac:	00c97a63          	bgeu	s2,a2,182c0 <__b2d+0xa0>

   182b0:	ff442683          	lw	a3,-12(s0)

   182b4:	00a6d53b          	srlw	a0,a3,a0

   182b8:	00e566b3          	or	a3,a0,a4

   182bc:	0006869b          	sext.w	a3,a3

   182c0:	0207d793          	srli	a5,a5,0x20

   182c4:	02069693          	slli	a3,a3,0x20

   182c8:	0206d693          	srli	a3,a3,0x20

   182cc:	02079793          	slli	a5,a5,0x20

   182d0:	00d7e7b3          	or	a5,a5,a3

   182d4:	0240006f          	j	182f8 <__b2d+0xd8>

   182d8:	00000713          	li	a4,0

   182dc:	08079663          	bnez	a5,18368 <__b2d+0x148>

   182e0:	3ff007b7          	lui	a5,0x3ff00

   182e4:	00f4e7b3          	or	a5,s1,a5

   182e8:	02071713          	slli	a4,a4,0x20

   182ec:	02075713          	srli	a4,a4,0x20

   182f0:	02079793          	slli	a5,a5,0x20

   182f4:	00e7e7b3          	or	a5,a5,a4

   182f8:	02813083          	ld	ra,40(sp)

   182fc:	02013403          	ld	s0,32(sp)

   18300:	01813483          	ld	s1,24(sp)

   18304:	01013903          	ld	s2,16(sp)

   18308:	00813983          	ld	s3,8(sp)

   1830c:	00013a03          	ld	s4,0(sp)

   18310:	00078513          	mv	a0,a5

   18314:	03010113          	addi	sp,sp,48

   18318:	00008067          	ret

   1831c:	00b00693          	li	a3,11

   18320:	40a686bb          	subw	a3,a3,a0

   18324:	3ff00737          	lui	a4,0x3ff00

   18328:	00d4d7bb          	srlw	a5,s1,a3

   1832c:	00e7e7b3          	or	a5,a5,a4

   18330:	02079793          	slli	a5,a5,0x20

   18334:	00000713          	li	a4,0

   18338:	01397663          	bgeu	s2,s3,18344 <__b2d+0x124>

   1833c:	ff842703          	lw	a4,-8(s0)

   18340:	00d7573b          	srlw	a4,a4,a3

   18344:	0155051b          	addiw	a0,a0,21

   18348:	00a494bb          	sllw	s1,s1,a0

   1834c:	009764b3          	or	s1,a4,s1

   18350:	0207d793          	srli	a5,a5,0x20

   18354:	02049493          	slli	s1,s1,0x20

   18358:	0204d493          	srli	s1,s1,0x20

   1835c:	02079793          	slli	a5,a5,0x20

   18360:	0097e7b3          	or	a5,a5,s1

   18364:	f95ff06f          	j	182f8 <__b2d+0xd8>

   18368:	00f497bb          	sllw	a5,s1,a5

   1836c:	3ff00537          	lui	a0,0x3ff00

   18370:	00a7e7b3          	or	a5,a5,a0

   18374:	02079793          	slli	a5,a5,0x20

   18378:	00000693          	li	a3,0

   1837c:	f45ff06f          	j	182c0 <__b2d+0xa0>



0000000000018380 <__d2b>:

   18380:	fc010113          	addi	sp,sp,-64

   18384:	02913423          	sd	s1,40(sp)

   18388:	00058493          	mv	s1,a1

   1838c:	00100593          	li	a1,1

   18390:	02813823          	sd	s0,48(sp)

   18394:	03213023          	sd	s2,32(sp)

   18398:	01313c23          	sd	s3,24(sp)

   1839c:	01413823          	sd	s4,16(sp)

   183a0:	02113c23          	sd	ra,56(sp)

   183a4:	00060993          	mv	s3,a2

   183a8:	00068913          	mv	s2,a3

   183ac:	9d4ff0ef          	jal	ra,17580 <_Balloc>

   183b0:	4204d793          	srai	a5,s1,0x20

   183b4:	0147d41b          	srliw	s0,a5,0x14

   183b8:	7ff47413          	andi	s0,s0,2047

   183bc:	02c79793          	slli	a5,a5,0x2c

   183c0:	00050a13          	mv	s4,a0

   183c4:	02c7d793          	srli	a5,a5,0x2c

   183c8:	00040663          	beqz	s0,183d4 <__d2b+0x54>

   183cc:	00100737          	lui	a4,0x100

   183d0:	00e7e7b3          	or	a5,a5,a4

   183d4:	00f12623          	sw	a5,12(sp)

   183d8:	0004849b          	sext.w	s1,s1

   183dc:	08048e63          	beqz	s1,18478 <__d2b+0xf8>

   183e0:	00810513          	addi	a0,sp,8

   183e4:	00912423          	sw	s1,8(sp)

   183e8:	d6cff0ef          	jal	ra,17954 <__lo0bits>

   183ec:	06051063          	bnez	a0,1844c <__d2b+0xcc>

   183f0:	00812703          	lw	a4,8(sp)

   183f4:	00c12783          	lw	a5,12(sp)

   183f8:	00ea2c23          	sw	a4,24(s4)

   183fc:	00f034b3          	snez	s1,a5

   18400:	00148493          	addi	s1,s1,1 # 3ff00001 <__BSS_END__+0x3fedb541>

   18404:	00fa2e23          	sw	a5,28(s4)

   18408:	009a2a23          	sw	s1,20(s4)

   1840c:	08040863          	beqz	s0,1849c <__d2b+0x11c>

   18410:	bcd4041b          	addiw	s0,s0,-1075

   18414:	00a4043b          	addw	s0,s0,a0

   18418:	03500793          	li	a5,53

   1841c:	0089a023          	sw	s0,0(s3)

   18420:	40a7853b          	subw	a0,a5,a0

   18424:	00a92023          	sw	a0,0(s2)

   18428:	03813083          	ld	ra,56(sp)

   1842c:	03013403          	ld	s0,48(sp)

   18430:	000a0513          	mv	a0,s4

   18434:	02813483          	ld	s1,40(sp)

   18438:	02013903          	ld	s2,32(sp)

   1843c:	01813983          	ld	s3,24(sp)

   18440:	01013a03          	ld	s4,16(sp)

   18444:	04010113          	addi	sp,sp,64

   18448:	00008067          	ret

   1844c:	00c12703          	lw	a4,12(sp)

   18450:	00812683          	lw	a3,8(sp)

   18454:	02000793          	li	a5,32

   18458:	40a787bb          	subw	a5,a5,a0

   1845c:	00f717bb          	sllw	a5,a4,a5

   18460:	00d7e7b3          	or	a5,a5,a3

   18464:	00a7573b          	srlw	a4,a4,a0

   18468:	00fa2c23          	sw	a5,24(s4)

   1846c:	00e12623          	sw	a4,12(sp)

   18470:	0007079b          	sext.w	a5,a4

   18474:	f89ff06f          	j	183fc <__d2b+0x7c>

   18478:	00c10513          	addi	a0,sp,12

   1847c:	cd8ff0ef          	jal	ra,17954 <__lo0bits>

   18480:	00100793          	li	a5,1

   18484:	00fa2a23          	sw	a5,20(s4)

   18488:	00c12783          	lw	a5,12(sp)

   1848c:	0205051b          	addiw	a0,a0,32

   18490:	00100493          	li	s1,1

   18494:	00fa2c23          	sw	a5,24(s4)

   18498:	f6041ce3          	bnez	s0,18410 <__d2b+0x90>

   1849c:	bce5051b          	addiw	a0,a0,-1074

   184a0:	00249793          	slli	a5,s1,0x2

   184a4:	00a9a023          	sw	a0,0(s3)

   184a8:	00fa07b3          	add	a5,s4,a5

   184ac:	0147a503          	lw	a0,20(a5) # 3ff00014 <__BSS_END__+0x3fedb554>

   184b0:	0054949b          	slliw	s1,s1,0x5

   184b4:	c2cff0ef          	jal	ra,178e0 <__hi0bits>

   184b8:	40a484bb          	subw	s1,s1,a0

   184bc:	00992023          	sw	s1,0(s2)

   184c0:	f69ff06f          	j	18428 <__d2b+0xa8>



00000000000184c4 <__ratio>:

   184c4:	fd010113          	addi	sp,sp,-48

   184c8:	00913c23          	sd	s1,24(sp)

   184cc:	00058493          	mv	s1,a1

   184d0:	00810593          	addi	a1,sp,8

   184d4:	02113423          	sd	ra,40(sp)

   184d8:	02813023          	sd	s0,32(sp)

   184dc:	01213823          	sd	s2,16(sp)

   184e0:	00050913          	mv	s2,a0

   184e4:	d3dff0ef          	jal	ra,18220 <__b2d>

   184e8:	00c10593          	addi	a1,sp,12

   184ec:	00050413          	mv	s0,a0

   184f0:	00048513          	mv	a0,s1

   184f4:	d2dff0ef          	jal	ra,18220 <__b2d>

   184f8:	0144a703          	lw	a4,20(s1)

   184fc:	01492783          	lw	a5,20(s2)

   18500:	00c12683          	lw	a3,12(sp)

   18504:	00050593          	mv	a1,a0

   18508:	40e787bb          	subw	a5,a5,a4

   1850c:	00812703          	lw	a4,8(sp)

   18510:	0057979b          	slliw	a5,a5,0x5

   18514:	40d7073b          	subw	a4,a4,a3

   18518:	00e7873b          	addw	a4,a5,a4

   1851c:	00070793          	mv	a5,a4

   18520:	04e05263          	blez	a4,18564 <__ratio+0xa0>

   18524:	02045713          	srli	a4,s0,0x20

   18528:	0147979b          	slliw	a5,a5,0x14

   1852c:	00e787bb          	addw	a5,a5,a4

   18530:	fff00713          	li	a4,-1

   18534:	02075713          	srli	a4,a4,0x20

   18538:	02079793          	slli	a5,a5,0x20

   1853c:	00877433          	and	s0,a4,s0

   18540:	00f46433          	or	s0,s0,a5

   18544:	00040513          	mv	a0,s0

   18548:	695060ef          	jal	ra,1f3dc <__divdf3>

   1854c:	02813083          	ld	ra,40(sp)

   18550:	02013403          	ld	s0,32(sp)

   18554:	01813483          	ld	s1,24(sp)

   18558:	01013903          	ld	s2,16(sp)

   1855c:	03010113          	addi	sp,sp,48

   18560:	00008067          	ret

   18564:	02055713          	srli	a4,a0,0x20

   18568:	0147979b          	slliw	a5,a5,0x14

   1856c:	fff00513          	li	a0,-1

   18570:	40f707bb          	subw	a5,a4,a5

   18574:	02055513          	srli	a0,a0,0x20

   18578:	02079793          	slli	a5,a5,0x20

   1857c:	00b575b3          	and	a1,a0,a1

   18580:	00f5e5b3          	or	a1,a1,a5

   18584:	fc1ff06f          	j	18544 <__ratio+0x80>



0000000000018588 <_mprec_log10>:

   18588:	fe010113          	addi	sp,sp,-32

   1858c:	00813823          	sd	s0,16(sp)

   18590:	00113c23          	sd	ra,24(sp)

   18594:	00913423          	sd	s1,8(sp)

   18598:	01700793          	li	a5,23

   1859c:	00050413          	mv	s0,a0

   185a0:	04a7d063          	bge	a5,a0,185e0 <_mprec_log10+0x58>

   185a4:	0000c797          	auipc	a5,0xc

   185a8:	44478793          	addi	a5,a5,1092 # 249e8 <__SDATA_BEGIN__+0x10>

   185ac:	0007b503          	ld	a0,0(a5)

   185b0:	0000c797          	auipc	a5,0xc

   185b4:	44078793          	addi	a5,a5,1088 # 249f0 <__SDATA_BEGIN__+0x18>

   185b8:	0007b483          	ld	s1,0(a5)

   185bc:	fff4041b          	addiw	s0,s0,-1

   185c0:	00048593          	mv	a1,s1

   185c4:	38c070ef          	jal	ra,1f950 <__muldf3>

   185c8:	fe041ae3          	bnez	s0,185bc <_mprec_log10+0x34>

   185cc:	01813083          	ld	ra,24(sp)

   185d0:	01013403          	ld	s0,16(sp)

   185d4:	00813483          	ld	s1,8(sp)

   185d8:	02010113          	addi	sp,sp,32

   185dc:	00008067          	ret

   185e0:	00351413          	slli	s0,a0,0x3

   185e4:	0000a797          	auipc	a5,0xa

   185e8:	b4478793          	addi	a5,a5,-1212 # 22128 <p05.3334>

   185ec:	00878433          	add	s0,a5,s0

   185f0:	01043503          	ld	a0,16(s0)

   185f4:	01813083          	ld	ra,24(sp)

   185f8:	01013403          	ld	s0,16(sp)

   185fc:	00813483          	ld	s1,8(sp)

   18600:	02010113          	addi	sp,sp,32

   18604:	00008067          	ret



0000000000018608 <__copybits>:

   18608:	01462683          	lw	a3,20(a2)

   1860c:	fff5859b          	addiw	a1,a1,-1

   18610:	4055d59b          	sraiw	a1,a1,0x5

   18614:	00158593          	addi	a1,a1,1

   18618:	01860793          	addi	a5,a2,24

   1861c:	00269693          	slli	a3,a3,0x2

   18620:	00259593          	slli	a1,a1,0x2

   18624:	00d786b3          	add	a3,a5,a3

   18628:	00b505b3          	add	a1,a0,a1

   1862c:	02d7f863          	bgeu	a5,a3,1865c <__copybits+0x54>

   18630:	00050713          	mv	a4,a0

   18634:	00478793          	addi	a5,a5,4

   18638:	ffc7a803          	lw	a6,-4(a5)

   1863c:	00470713          	addi	a4,a4,4 # 100004 <__BSS_END__+0xdb544>

   18640:	ff072e23          	sw	a6,-4(a4)

   18644:	fed7e8e3          	bltu	a5,a3,18634 <__copybits+0x2c>

   18648:	40c687b3          	sub	a5,a3,a2

   1864c:	fe778793          	addi	a5,a5,-25

   18650:	ffc7f793          	andi	a5,a5,-4

   18654:	00478793          	addi	a5,a5,4

   18658:	00f50533          	add	a0,a0,a5

   1865c:	00b57863          	bgeu	a0,a1,1866c <__copybits+0x64>

   18660:	00450513          	addi	a0,a0,4 # 3ff00004 <__BSS_END__+0x3fedb544>

   18664:	fe052e23          	sw	zero,-4(a0)

   18668:	feb56ce3          	bltu	a0,a1,18660 <__copybits+0x58>

   1866c:	00008067          	ret



0000000000018670 <__any_on>:

   18670:	01452703          	lw	a4,20(a0)

   18674:	4055d613          	srai	a2,a1,0x5

   18678:	01850693          	addi	a3,a0,24

   1867c:	02c75a63          	bge	a4,a2,186b0 <__any_on+0x40>

   18680:	00271793          	slli	a5,a4,0x2

   18684:	00f687b3          	add	a5,a3,a5

   18688:	04f6fc63          	bgeu	a3,a5,186e0 <__any_on+0x70>

   1868c:	ffc7a503          	lw	a0,-4(a5)

   18690:	ffc78793          	addi	a5,a5,-4

   18694:	00051a63          	bnez	a0,186a8 <__any_on+0x38>

   18698:	04f6f263          	bgeu	a3,a5,186dc <__any_on+0x6c>

   1869c:	ffc78793          	addi	a5,a5,-4

   186a0:	0007a703          	lw	a4,0(a5)

   186a4:	fe070ae3          	beqz	a4,18698 <__any_on+0x28>

   186a8:	00100513          	li	a0,1

   186ac:	00008067          	ret

   186b0:	00261793          	slli	a5,a2,0x2

   186b4:	00f687b3          	add	a5,a3,a5

   186b8:	fce658e3          	bge	a2,a4,18688 <__any_on+0x18>

   186bc:	01f5f593          	andi	a1,a1,31

   186c0:	fc0584e3          	beqz	a1,18688 <__any_on+0x18>

   186c4:	0007a603          	lw	a2,0(a5)

   186c8:	00100513          	li	a0,1

   186cc:	00b6573b          	srlw	a4,a2,a1

   186d0:	00b715bb          	sllw	a1,a4,a1

   186d4:	fac58ae3          	beq	a1,a2,18688 <__any_on+0x18>

   186d8:	00008067          	ret

   186dc:	00008067          	ret

   186e0:	00000513          	li	a0,0

   186e4:	00008067          	ret



00000000000186e8 <_sbrk_r>:

   186e8:	ff010113          	addi	sp,sp,-16

   186ec:	00813023          	sd	s0,0(sp)

   186f0:	00050413          	mv	s0,a0

   186f4:	00058513          	mv	a0,a1

   186f8:	0000c797          	auipc	a5,0xc

   186fc:	3c07a023          	sw	zero,960(a5) # 24ab8 <errno>

   18700:	00113423          	sd	ra,8(sp)

   18704:	371060ef          	jal	ra,1f274 <_sbrk>

   18708:	fff00793          	li	a5,-1

   1870c:	00f50a63          	beq	a0,a5,18720 <_sbrk_r+0x38>

   18710:	00813083          	ld	ra,8(sp)

   18714:	00013403          	ld	s0,0(sp)

   18718:	01010113          	addi	sp,sp,16

   1871c:	00008067          	ret

   18720:	0000c797          	auipc	a5,0xc

   18724:	39878793          	addi	a5,a5,920 # 24ab8 <errno>

   18728:	0007a783          	lw	a5,0(a5)

   1872c:	fe0782e3          	beqz	a5,18710 <_sbrk_r+0x28>

   18730:	00f42023          	sw	a5,0(s0)

   18734:	00813083          	ld	ra,8(sp)

   18738:	00013403          	ld	s0,0(sp)

   1873c:	01010113          	addi	sp,sp,16

   18740:	00008067          	ret



0000000000018744 <frexp>:

   18744:	fe010113          	addi	sp,sp,-32

   18748:	00813823          	sd	s0,16(sp)

   1874c:	42055693          	srai	a3,a0,0x20

   18750:	80000437          	lui	s0,0x80000

   18754:	00913423          	sd	s1,8(sp)

   18758:	00113c23          	sd	ra,24(sp)

   1875c:	0006861b          	sext.w	a2,a3

   18760:	fff44413          	not	s0,s0

   18764:	00058493          	mv	s1,a1

   18768:	0005a023          	sw	zero,0(a1)

   1876c:	008677b3          	and	a5,a2,s0

   18770:	7ff005b7          	lui	a1,0x7ff00

   18774:	00050713          	mv	a4,a0

   18778:	06b7dc63          	bge	a5,a1,187f0 <frexp+0xac>

   1877c:	00a7e5b3          	or	a1,a5,a0

   18780:	0005859b          	sext.w	a1,a1

   18784:	06058663          	beqz	a1,187f0 <frexp+0xac>

   18788:	7ff005b7          	lui	a1,0x7ff00

   1878c:	00b67633          	and	a2,a2,a1

   18790:	00000593          	li	a1,0

   18794:	02061263          	bnez	a2,187b8 <frexp+0x74>

   18798:	0000c797          	auipc	a5,0xc

   1879c:	26078793          	addi	a5,a5,608 # 249f8 <__SDATA_BEGIN__+0x20>

   187a0:	0007b583          	ld	a1,0(a5)

   187a4:	1ac070ef          	jal	ra,1f950 <__muldf3>

   187a8:	42055693          	srai	a3,a0,0x20

   187ac:	00050713          	mv	a4,a0

   187b0:	0086f7b3          	and	a5,a3,s0

   187b4:	fca00593          	li	a1,-54

   187b8:	80100637          	lui	a2,0x80100

   187bc:	fff60613          	addi	a2,a2,-1 # ffffffff800fffff <__BSS_END__+0xffffffff800db53f>

   187c0:	00c6f6b3          	and	a3,a3,a2

   187c4:	3fe00637          	lui	a2,0x3fe00

   187c8:	00c6e6b3          	or	a3,a3,a2

   187cc:	4147d79b          	sraiw	a5,a5,0x14

   187d0:	fff00613          	li	a2,-1

   187d4:	c027879b          	addiw	a5,a5,-1022

   187d8:	02065613          	srli	a2,a2,0x20

   187dc:	00b787bb          	addw	a5,a5,a1

   187e0:	02069693          	slli	a3,a3,0x20

   187e4:	00e67733          	and	a4,a2,a4

   187e8:	00f4a023          	sw	a5,0(s1)

   187ec:	00d76733          	or	a4,a4,a3

   187f0:	01813083          	ld	ra,24(sp)

   187f4:	01013403          	ld	s0,16(sp)

   187f8:	00813483          	ld	s1,8(sp)

   187fc:	00070513          	mv	a0,a4

   18800:	02010113          	addi	sp,sp,32

   18804:	00008067          	ret



0000000000018808 <_sprintf_r>:

   18808:	f0010113          	addi	sp,sp,-256

   1880c:	0d810e13          	addi	t3,sp,216

   18810:	0ef13423          	sd	a5,232(sp)

   18814:	80000337          	lui	t1,0x80000

   18818:	ffff07b7          	lui	a5,0xffff0

   1881c:	00058e93          	mv	t4,a1

   18820:	fff34313          	not	t1,t1

   18824:	0cd13c23          	sd	a3,216(sp)

   18828:	20878793          	addi	a5,a5,520 # ffffffffffff0208 <__BSS_END__+0xfffffffffffcb748>

   1882c:	01010593          	addi	a1,sp,16

   18830:	000e0693          	mv	a3,t3

   18834:	0c113423          	sd	ra,200(sp)

   18838:	02f12023          	sw	a5,32(sp)

   1883c:	0ee13023          	sd	a4,224(sp)

   18840:	0f013823          	sd	a6,240(sp)

   18844:	0f113c23          	sd	a7,248(sp)

   18848:	01d13823          	sd	t4,16(sp)

   1884c:	03d13423          	sd	t4,40(sp)

   18850:	02612823          	sw	t1,48(sp)

   18854:	00612e23          	sw	t1,28(sp)

   18858:	01c13423          	sd	t3,8(sp)

   1885c:	5a0000ef          	jal	ra,18dfc <_svfprintf_r>

   18860:	01013783          	ld	a5,16(sp)

   18864:	00078023          	sb	zero,0(a5)

   18868:	0c813083          	ld	ra,200(sp)

   1886c:	10010113          	addi	sp,sp,256

   18870:	00008067          	ret



0000000000018874 <sprintf>:

   18874:	00050e93          	mv	t4,a0

   18878:	75818513          	addi	a0,gp,1880 # 24a18 <_impure_ptr>

   1887c:	f0010113          	addi	sp,sp,-256

   18880:	00053503          	ld	a0,0(a0)

   18884:	0d010e13          	addi	t3,sp,208

   18888:	0ef13423          	sd	a5,232(sp)

   1888c:	80000337          	lui	t1,0x80000

   18890:	ffff07b7          	lui	a5,0xffff0

   18894:	fff34313          	not	t1,t1

   18898:	0cc13823          	sd	a2,208(sp)

   1889c:	0cd13c23          	sd	a3,216(sp)

   188a0:	20878793          	addi	a5,a5,520 # ffffffffffff0208 <__BSS_END__+0xfffffffffffcb748>

   188a4:	00058613          	mv	a2,a1

   188a8:	000e0693          	mv	a3,t3

   188ac:	01010593          	addi	a1,sp,16

   188b0:	0c113423          	sd	ra,200(sp)

   188b4:	02f12023          	sw	a5,32(sp)

   188b8:	0ee13023          	sd	a4,224(sp)

   188bc:	0f013823          	sd	a6,240(sp)

   188c0:	0f113c23          	sd	a7,248(sp)

   188c4:	01d13823          	sd	t4,16(sp)

   188c8:	03d13423          	sd	t4,40(sp)

   188cc:	02612823          	sw	t1,48(sp)

   188d0:	00612e23          	sw	t1,28(sp)

   188d4:	01c13423          	sd	t3,8(sp)

   188d8:	524000ef          	jal	ra,18dfc <_svfprintf_r>

   188dc:	01013783          	ld	a5,16(sp)

   188e0:	00078023          	sb	zero,0(a5)

   188e4:	0c813083          	ld	ra,200(sp)

   188e8:	10010113          	addi	sp,sp,256

   188ec:	00008067          	ret



00000000000188f0 <__sread>:

   188f0:	ff010113          	addi	sp,sp,-16

   188f4:	00813023          	sd	s0,0(sp)

   188f8:	00058413          	mv	s0,a1

   188fc:	01259583          	lh	a1,18(a1) # 7ff00012 <__BSS_END__+0x7fedb552>

   18900:	00113423          	sd	ra,8(sp)

   18904:	431040ef          	jal	ra,1d534 <_read_r>

   18908:	02054063          	bltz	a0,18928 <__sread+0x38>

   1890c:	09043783          	ld	a5,144(s0) # ffffffff80000090 <__BSS_END__+0xffffffff7ffdb5d0>

   18910:	00813083          	ld	ra,8(sp)

   18914:	00a787b3          	add	a5,a5,a0

   18918:	08f43823          	sd	a5,144(s0)

   1891c:	00013403          	ld	s0,0(sp)

   18920:	01010113          	addi	sp,sp,16

   18924:	00008067          	ret

   18928:	01045783          	lhu	a5,16(s0)

   1892c:	fffff737          	lui	a4,0xfffff

   18930:	fff70713          	addi	a4,a4,-1 # ffffffffffffefff <__BSS_END__+0xfffffffffffda53f>

   18934:	00e7f7b3          	and	a5,a5,a4

   18938:	00f41823          	sh	a5,16(s0)

   1893c:	00813083          	ld	ra,8(sp)

   18940:	00013403          	ld	s0,0(sp)

   18944:	01010113          	addi	sp,sp,16

   18948:	00008067          	ret



000000000001894c <__seofread>:

   1894c:	00000513          	li	a0,0

   18950:	00008067          	ret



0000000000018954 <__swrite>:

   18954:	01059783          	lh	a5,16(a1)

   18958:	fd010113          	addi	sp,sp,-48

   1895c:	02813023          	sd	s0,32(sp)

   18960:	00913c23          	sd	s1,24(sp)

   18964:	01213823          	sd	s2,16(sp)

   18968:	01313423          	sd	s3,8(sp)

   1896c:	02113423          	sd	ra,40(sp)

   18970:	1007f713          	andi	a4,a5,256

   18974:	00058413          	mv	s0,a1

   18978:	00050493          	mv	s1,a0

   1897c:	00060913          	mv	s2,a2

   18980:	00068993          	mv	s3,a3

   18984:	01259583          	lh	a1,18(a1)

   18988:	02071e63          	bnez	a4,189c4 <__swrite+0x70>

   1898c:	fffff737          	lui	a4,0xfffff

   18990:	fff70713          	addi	a4,a4,-1 # ffffffffffffefff <__BSS_END__+0xfffffffffffda53f>

   18994:	00e7f7b3          	and	a5,a5,a4

   18998:	00f41823          	sh	a5,16(s0)

   1899c:	02013403          	ld	s0,32(sp)

   189a0:	02813083          	ld	ra,40(sp)

   189a4:	00098693          	mv	a3,s3

   189a8:	00090613          	mv	a2,s2

   189ac:	00813983          	ld	s3,8(sp)

   189b0:	01013903          	ld	s2,16(sp)

   189b4:	00048513          	mv	a0,s1

   189b8:	01813483          	ld	s1,24(sp)

   189bc:	03010113          	addi	sp,sp,48

   189c0:	6c10306f          	j	1c880 <_write_r>

   189c4:	00200693          	li	a3,2

   189c8:	00000613          	li	a2,0

   189cc:	0c5040ef          	jal	ra,1d290 <_lseek_r>

   189d0:	01041783          	lh	a5,16(s0)

   189d4:	01241583          	lh	a1,18(s0)

   189d8:	fb5ff06f          	j	1898c <__swrite+0x38>



00000000000189dc <__sseek>:

   189dc:	ff010113          	addi	sp,sp,-16

   189e0:	00813023          	sd	s0,0(sp)

   189e4:	00058413          	mv	s0,a1

   189e8:	01259583          	lh	a1,18(a1)

   189ec:	00113423          	sd	ra,8(sp)

   189f0:	0a1040ef          	jal	ra,1d290 <_lseek_r>

   189f4:	fff00793          	li	a5,-1

   189f8:	02f50463          	beq	a0,a5,18a20 <__sseek+0x44>

   189fc:	01045783          	lhu	a5,16(s0)

   18a00:	00001737          	lui	a4,0x1

   18a04:	08a43823          	sd	a0,144(s0)

   18a08:	00e7e7b3          	or	a5,a5,a4

   18a0c:	00f41823          	sh	a5,16(s0)

   18a10:	00813083          	ld	ra,8(sp)

   18a14:	00013403          	ld	s0,0(sp)

   18a18:	01010113          	addi	sp,sp,16

   18a1c:	00008067          	ret

   18a20:	01045783          	lhu	a5,16(s0)

   18a24:	fffff737          	lui	a4,0xfffff

   18a28:	fff70713          	addi	a4,a4,-1 # ffffffffffffefff <__BSS_END__+0xfffffffffffda53f>

   18a2c:	00e7f7b3          	and	a5,a5,a4

   18a30:	00f41823          	sh	a5,16(s0)

   18a34:	00813083          	ld	ra,8(sp)

   18a38:	00013403          	ld	s0,0(sp)

   18a3c:	01010113          	addi	sp,sp,16

   18a40:	00008067          	ret



0000000000018a44 <__sclose>:

   18a44:	01259583          	lh	a1,18(a1)

   18a48:	7690306f          	j	1c9b0 <_close_r>



0000000000018a4c <strcmp>:

   18a4c:	00b56733          	or	a4,a0,a1

   18a50:	fff00393          	li	t2,-1

   18a54:	00777713          	andi	a4,a4,7

   18a58:	0c071c63          	bnez	a4,18b30 <strcmp+0xe4>

   18a5c:	0000c797          	auipc	a5,0xc

   18a60:	fa47b783          	ld	a5,-92(a5) # 24a00 <mask>

   18a64:	00053603          	ld	a2,0(a0)

   18a68:	0005b683          	ld	a3,0(a1)

   18a6c:	00f672b3          	and	t0,a2,a5

   18a70:	00f66333          	or	t1,a2,a5

   18a74:	00f282b3          	add	t0,t0,a5

   18a78:	0062e2b3          	or	t0,t0,t1

   18a7c:	0c729e63          	bne	t0,t2,18b58 <strcmp+0x10c>

   18a80:	04d61663          	bne	a2,a3,18acc <strcmp+0x80>

   18a84:	00853603          	ld	a2,8(a0)

   18a88:	0085b683          	ld	a3,8(a1)

   18a8c:	00f672b3          	and	t0,a2,a5

   18a90:	00f66333          	or	t1,a2,a5

   18a94:	00f282b3          	add	t0,t0,a5

   18a98:	0062e2b3          	or	t0,t0,t1

   18a9c:	0a729a63          	bne	t0,t2,18b50 <strcmp+0x104>

   18aa0:	02d61663          	bne	a2,a3,18acc <strcmp+0x80>

   18aa4:	01053603          	ld	a2,16(a0)

   18aa8:	0105b683          	ld	a3,16(a1)

   18aac:	00f672b3          	and	t0,a2,a5

   18ab0:	00f66333          	or	t1,a2,a5

   18ab4:	00f282b3          	add	t0,t0,a5

   18ab8:	0062e2b3          	or	t0,t0,t1

   18abc:	0a729463          	bne	t0,t2,18b64 <strcmp+0x118>

   18ac0:	01850513          	addi	a0,a0,24

   18ac4:	01858593          	addi	a1,a1,24

   18ac8:	f8d60ee3          	beq	a2,a3,18a64 <strcmp+0x18>

   18acc:	03061713          	slli	a4,a2,0x30

   18ad0:	03069793          	slli	a5,a3,0x30

   18ad4:	02f71a63          	bne	a4,a5,18b08 <strcmp+0xbc>

   18ad8:	02061713          	slli	a4,a2,0x20

   18adc:	02069793          	slli	a5,a3,0x20

   18ae0:	02f71463          	bne	a4,a5,18b08 <strcmp+0xbc>

   18ae4:	01061713          	slli	a4,a2,0x10

   18ae8:	01069793          	slli	a5,a3,0x10

   18aec:	00f71e63          	bne	a4,a5,18b08 <strcmp+0xbc>

   18af0:	03065713          	srli	a4,a2,0x30

   18af4:	0306d793          	srli	a5,a3,0x30

   18af8:	40f70533          	sub	a0,a4,a5

   18afc:	0ff57593          	andi	a1,a0,255

   18b00:	02059063          	bnez	a1,18b20 <strcmp+0xd4>

   18b04:	00008067          	ret

   18b08:	03075713          	srli	a4,a4,0x30

   18b0c:	0307d793          	srli	a5,a5,0x30

   18b10:	40f70533          	sub	a0,a4,a5

   18b14:	0ff57593          	andi	a1,a0,255

   18b18:	00059463          	bnez	a1,18b20 <strcmp+0xd4>

   18b1c:	00008067          	ret

   18b20:	0ff77713          	andi	a4,a4,255

   18b24:	0ff7f793          	andi	a5,a5,255

   18b28:	40f70533          	sub	a0,a4,a5

   18b2c:	00008067          	ret

   18b30:	00054603          	lbu	a2,0(a0)

   18b34:	0005c683          	lbu	a3,0(a1)

   18b38:	00150513          	addi	a0,a0,1

   18b3c:	00158593          	addi	a1,a1,1

   18b40:	00d61463          	bne	a2,a3,18b48 <strcmp+0xfc>

   18b44:	fe0616e3          	bnez	a2,18b30 <strcmp+0xe4>

   18b48:	40d60533          	sub	a0,a2,a3

   18b4c:	00008067          	ret

   18b50:	00850513          	addi	a0,a0,8

   18b54:	00858593          	addi	a1,a1,8

   18b58:	fcd61ce3          	bne	a2,a3,18b30 <strcmp+0xe4>

   18b5c:	00000513          	li	a0,0

   18b60:	00008067          	ret

   18b64:	01050513          	addi	a0,a0,16

   18b68:	01058593          	addi	a1,a1,16

   18b6c:	fcd612e3          	bne	a2,a3,18b30 <strcmp+0xe4>

   18b70:	00000513          	li	a0,0

   18b74:	00008067          	ret



0000000000018b78 <strcpy>:

   18b78:	00b567b3          	or	a5,a0,a1

   18b7c:	0077f793          	andi	a5,a5,7

   18b80:	0a079863          	bnez	a5,18c30 <strcpy+0xb8>

   18b84:	0000c797          	auipc	a5,0xc

   18b88:	e7c78793          	addi	a5,a5,-388 # 24a00 <mask>

   18b8c:	0007b683          	ld	a3,0(a5)

   18b90:	0005b703          	ld	a4,0(a1)

   18b94:	fff00613          	li	a2,-1

   18b98:	00d777b3          	and	a5,a4,a3

   18b9c:	00d787b3          	add	a5,a5,a3

   18ba0:	00e7e7b3          	or	a5,a5,a4

   18ba4:	00d7e7b3          	or	a5,a5,a3

   18ba8:	0ac79263          	bne	a5,a2,18c4c <strcpy+0xd4>

   18bac:	00050613          	mv	a2,a0

   18bb0:	fff00813          	li	a6,-1

   18bb4:	00860613          	addi	a2,a2,8 # 3fe00008 <__BSS_END__+0x3fddb548>

   18bb8:	00858593          	addi	a1,a1,8

   18bbc:	fee63c23          	sd	a4,-8(a2)

   18bc0:	0005b703          	ld	a4,0(a1)

   18bc4:	00d777b3          	and	a5,a4,a3

   18bc8:	00d787b3          	add	a5,a5,a3

   18bcc:	00e7e7b3          	or	a5,a5,a4

   18bd0:	00d7e7b3          	or	a5,a5,a3

   18bd4:	ff0780e3          	beq	a5,a6,18bb4 <strcpy+0x3c>

   18bd8:	0005c783          	lbu	a5,0(a1)

   18bdc:	0015c703          	lbu	a4,1(a1)

   18be0:	0025c683          	lbu	a3,2(a1)

   18be4:	00f60023          	sb	a5,0(a2)

   18be8:	04078263          	beqz	a5,18c2c <strcpy+0xb4>

   18bec:	00e600a3          	sb	a4,1(a2)

   18bf0:	02070e63          	beqz	a4,18c2c <strcpy+0xb4>

   18bf4:	0035c783          	lbu	a5,3(a1)

   18bf8:	00d60123          	sb	a3,2(a2)

   18bfc:	02068863          	beqz	a3,18c2c <strcpy+0xb4>

   18c00:	0045c703          	lbu	a4,4(a1)

   18c04:	00f601a3          	sb	a5,3(a2)

   18c08:	02078263          	beqz	a5,18c2c <strcpy+0xb4>

   18c0c:	0055c783          	lbu	a5,5(a1)

   18c10:	00e60223          	sb	a4,4(a2)

   18c14:	00070c63          	beqz	a4,18c2c <strcpy+0xb4>

   18c18:	0065c703          	lbu	a4,6(a1)

   18c1c:	00f602a3          	sb	a5,5(a2)

   18c20:	00078663          	beqz	a5,18c2c <strcpy+0xb4>

   18c24:	00e60323          	sb	a4,6(a2)

   18c28:	02071663          	bnez	a4,18c54 <strcpy+0xdc>

   18c2c:	00008067          	ret

   18c30:	00050793          	mv	a5,a0

   18c34:	0005c703          	lbu	a4,0(a1)

   18c38:	00178793          	addi	a5,a5,1

   18c3c:	00158593          	addi	a1,a1,1

   18c40:	fee78fa3          	sb	a4,-1(a5)

   18c44:	fe0718e3          	bnez	a4,18c34 <strcpy+0xbc>

   18c48:	00008067          	ret

   18c4c:	00050613          	mv	a2,a0

   18c50:	f89ff06f          	j	18bd8 <strcpy+0x60>

   18c54:	000603a3          	sb	zero,7(a2)

   18c58:	00008067          	ret



0000000000018c5c <strlen>:

   18c5c:	00757793          	andi	a5,a0,7

   18c60:	00050713          	mv	a4,a0

   18c64:	06079e63          	bnez	a5,18ce0 <strlen+0x84>

   18c68:	0000c797          	auipc	a5,0xc

   18c6c:	d9878793          	addi	a5,a5,-616 # 24a00 <mask>

   18c70:	0007b683          	ld	a3,0(a5)

   18c74:	fff00593          	li	a1,-1

   18c78:	00870713          	addi	a4,a4,8

   18c7c:	ff873603          	ld	a2,-8(a4)

   18c80:	00d677b3          	and	a5,a2,a3

   18c84:	00d787b3          	add	a5,a5,a3

   18c88:	00c7e7b3          	or	a5,a5,a2

   18c8c:	00d7e7b3          	or	a5,a5,a3

   18c90:	feb784e3          	beq	a5,a1,18c78 <strlen+0x1c>

   18c94:	ff874783          	lbu	a5,-8(a4)

   18c98:	40a706b3          	sub	a3,a4,a0

   18c9c:	06078463          	beqz	a5,18d04 <strlen+0xa8>

   18ca0:	ff974783          	lbu	a5,-7(a4)

   18ca4:	04078c63          	beqz	a5,18cfc <strlen+0xa0>

   18ca8:	ffa74783          	lbu	a5,-6(a4)

   18cac:	06078463          	beqz	a5,18d14 <strlen+0xb8>

   18cb0:	ffb74783          	lbu	a5,-5(a4)

   18cb4:	04078c63          	beqz	a5,18d0c <strlen+0xb0>

   18cb8:	ffc74603          	lbu	a2,-4(a4)

   18cbc:	ffd74583          	lbu	a1,-3(a4)

   18cc0:	ffe74783          	lbu	a5,-2(a4)

   18cc4:	04060c63          	beqz	a2,18d1c <strlen+0xc0>

   18cc8:	04058e63          	beqz	a1,18d24 <strlen+0xc8>

   18ccc:	00f03533          	snez	a0,a5

   18cd0:	00d50533          	add	a0,a0,a3

   18cd4:	ffe50513          	addi	a0,a0,-2

   18cd8:	00008067          	ret

   18cdc:	f80686e3          	beqz	a3,18c68 <strlen+0xc>

   18ce0:	00074783          	lbu	a5,0(a4)

   18ce4:	00170713          	addi	a4,a4,1

   18ce8:	00777693          	andi	a3,a4,7

   18cec:	fe0798e3          	bnez	a5,18cdc <strlen+0x80>

   18cf0:	40a70733          	sub	a4,a4,a0

   18cf4:	fff70513          	addi	a0,a4,-1

   18cf8:	00008067          	ret

   18cfc:	ff968513          	addi	a0,a3,-7

   18d00:	00008067          	ret

   18d04:	ff868513          	addi	a0,a3,-8

   18d08:	00008067          	ret

   18d0c:	ffb68513          	addi	a0,a3,-5

   18d10:	00008067          	ret

   18d14:	ffa68513          	addi	a0,a3,-6

   18d18:	00008067          	ret

   18d1c:	ffc68513          	addi	a0,a3,-4

   18d20:	00008067          	ret

   18d24:	ffd68513          	addi	a0,a3,-3

   18d28:	00008067          	ret



0000000000018d2c <strncpy>:

   18d2c:	00a5e7b3          	or	a5,a1,a0

   18d30:	0077f793          	andi	a5,a5,7

   18d34:	0a079063          	bnez	a5,18dd4 <strncpy+0xa8>

   18d38:	00700793          	li	a5,7

   18d3c:	08c7fc63          	bgeu	a5,a2,18dd4 <strncpy+0xa8>

   18d40:	0000c797          	auipc	a5,0xc

   18d44:	c9878793          	addi	a5,a5,-872 # 249d8 <__SDATA_BEGIN__>

   18d48:	0007b303          	ld	t1,0(a5)

   18d4c:	0000c797          	auipc	a5,0xc

   18d50:	c9478793          	addi	a5,a5,-876 # 249e0 <__SDATA_BEGIN__+0x8>

   18d54:	0007b883          	ld	a7,0(a5)

   18d58:	00050713          	mv	a4,a0

   18d5c:	00700e13          	li	t3,7

   18d60:	0005b683          	ld	a3,0(a1)

   18d64:	006687b3          	add	a5,a3,t1

   18d68:	fff6c813          	not	a6,a3

   18d6c:	0107f7b3          	and	a5,a5,a6

   18d70:	0117f7b3          	and	a5,a5,a7

   18d74:	00079e63          	bnez	a5,18d90 <strncpy+0x64>

   18d78:	00870713          	addi	a4,a4,8

   18d7c:	ff860613          	addi	a2,a2,-8

   18d80:	fed73c23          	sd	a3,-8(a4)

   18d84:	00858593          	addi	a1,a1,8

   18d88:	fcce6ce3          	bltu	t3,a2,18d60 <strncpy+0x34>

   18d8c:	06060463          	beqz	a2,18df4 <strncpy+0xc8>

   18d90:	0005c803          	lbu	a6,0(a1)

   18d94:	fff60693          	addi	a3,a2,-1

   18d98:	00158593          	addi	a1,a1,1

   18d9c:	01070023          	sb	a6,0(a4)

   18da0:	00170793          	addi	a5,a4,1

   18da4:	02080c63          	beqz	a6,18ddc <strncpy+0xb0>

   18da8:	00c70633          	add	a2,a4,a2

   18dac:	00d706b3          	add	a3,a4,a3

   18db0:	0140006f          	j	18dc4 <strncpy+0x98>

   18db4:	fff5c703          	lbu	a4,-1(a1)

   18db8:	00178793          	addi	a5,a5,1

   18dbc:	fee78fa3          	sb	a4,-1(a5)

   18dc0:	02070063          	beqz	a4,18de0 <strncpy+0xb4>

   18dc4:	00158593          	addi	a1,a1,1

   18dc8:	40f68833          	sub	a6,a3,a5

   18dcc:	fec794e3          	bne	a5,a2,18db4 <strncpy+0x88>

   18dd0:	00008067          	ret

   18dd4:	00050713          	mv	a4,a0

   18dd8:	fb5ff06f          	j	18d8c <strncpy+0x60>

   18ddc:	00068813          	mv	a6,a3

   18de0:	01078733          	add	a4,a5,a6

   18de4:	00080a63          	beqz	a6,18df8 <strncpy+0xcc>

   18de8:	00178793          	addi	a5,a5,1

   18dec:	fe078fa3          	sb	zero,-1(a5)

   18df0:	fee79ce3          	bne	a5,a4,18de8 <strncpy+0xbc>

   18df4:	00008067          	ret

   18df8:	00008067          	ret



0000000000018dfc <_svfprintf_r>:

   18dfc:	d8010113          	addi	sp,sp,-640

   18e00:	26113c23          	sd	ra,632(sp)

   18e04:	25613023          	sd	s6,576(sp)

   18e08:	23813823          	sd	s8,560(sp)

   18e0c:	23a13023          	sd	s10,544(sp)

   18e10:	00058c13          	mv	s8,a1

   18e14:	00060d13          	mv	s10,a2

   18e18:	00d13823          	sd	a3,16(sp)

   18e1c:	26813823          	sd	s0,624(sp)

   18e20:	26913423          	sd	s1,616(sp)

   18e24:	27213023          	sd	s2,608(sp)

   18e28:	25313c23          	sd	s3,600(sp)

   18e2c:	25413823          	sd	s4,592(sp)

   18e30:	25513423          	sd	s5,584(sp)

   18e34:	23713c23          	sd	s7,568(sp)

   18e38:	23913423          	sd	s9,552(sp)

   18e3c:	21b13c23          	sd	s11,536(sp)

   18e40:	00050b13          	mv	s6,a0

   18e44:	ae1fd0ef          	jal	ra,16924 <_localeconv_r>

   18e48:	00053783          	ld	a5,0(a0)

   18e4c:	00078513          	mv	a0,a5

   18e50:	08f13023          	sd	a5,128(sp)

   18e54:	e09ff0ef          	jal	ra,18c5c <strlen>

   18e58:	010c5783          	lhu	a5,16(s8)

   18e5c:	06a13c23          	sd	a0,120(sp)

   18e60:	10013023          	sd	zero,256(sp)

   18e64:	10013423          	sd	zero,264(sp)

   18e68:	0807f793          	andi	a5,a5,128

   18e6c:	00078863          	beqz	a5,18e7c <_svfprintf_r+0x80>

   18e70:	018c3783          	ld	a5,24(s8)

   18e74:	00079463          	bnez	a5,18e7c <_svfprintf_r+0x80>

   18e78:	5700106f          	j	1a3e8 <_svfprintf_r+0x15ec>

   18e7c:	000d4783          	lbu	a5,0(s10)

   18e80:	19010b93          	addi	s7,sp,400

   18e84:	11713823          	sd	s7,272(sp)

   18e88:	12013023          	sd	zero,288(sp)

   18e8c:	10012c23          	sw	zero,280(sp)

   18e90:	02013423          	sd	zero,40(sp)

   18e94:	02013823          	sd	zero,48(sp)

   18e98:	08013823          	sd	zero,144(sp)

   18e9c:	06013823          	sd	zero,112(sp)

   18ea0:	08013423          	sd	zero,136(sp)

   18ea4:	08013c23          	sd	zero,152(sp)

   18ea8:	00013423          	sd	zero,8(sp)

   18eac:	000b8313          	mv	t1,s7

   18eb0:	01000d93          	li	s11,16

   18eb4:	00009997          	auipc	s3,0x9

   18eb8:	51c98993          	addi	s3,s3,1308 # 223d0 <zeroes.4526>

   18ebc:	6a078863          	beqz	a5,1956c <_svfprintf_r+0x770>

   18ec0:	02500693          	li	a3,37

   18ec4:	00d79463          	bne	a5,a3,18ecc <_svfprintf_r+0xd0>

   18ec8:	41c0106f          	j	1a2e4 <_svfprintf_r+0x14e8>

   18ecc:	000d0413          	mv	s0,s10

   18ed0:	00c0006f          	j	18edc <_svfprintf_r+0xe0>

   18ed4:	0cd78463          	beq	a5,a3,18f9c <_svfprintf_r+0x1a0>

   18ed8:	00048413          	mv	s0,s1

   18edc:	00144783          	lbu	a5,1(s0)

   18ee0:	00140493          	addi	s1,s0,1

   18ee4:	fe0798e3          	bnez	a5,18ed4 <_svfprintf_r+0xd8>

   18ee8:	41a4893b          	subw	s2,s1,s10

   18eec:	68090063          	beqz	s2,1956c <_svfprintf_r+0x770>

   18ef0:	12013683          	ld	a3,288(sp)

   18ef4:	11812783          	lw	a5,280(sp)

   18ef8:	01a33023          	sd	s10,0(t1) # ffffffff80000000 <__BSS_END__+0xffffffff7ffdb540>

   18efc:	012686b3          	add	a3,a3,s2

   18f00:	0017879b          	addiw	a5,a5,1

   18f04:	01233423          	sd	s2,8(t1)

   18f08:	12d13023          	sd	a3,288(sp)

   18f0c:	10f12c23          	sw	a5,280(sp)

   18f10:	0007869b          	sext.w	a3,a5

   18f14:	00700793          	li	a5,7

   18f18:	01030313          	addi	t1,t1,16

   18f1c:	08d7c663          	blt	a5,a3,18fa8 <_svfprintf_r+0x1ac>

   18f20:	00813703          	ld	a4,8(sp)

   18f24:	00144783          	lbu	a5,1(s0)

   18f28:	00e9073b          	addw	a4,s2,a4

   18f2c:	00e13423          	sd	a4,8(sp)

   18f30:	62078e63          	beqz	a5,1956c <_svfprintf_r+0x770>

   18f34:	00148913          	addi	s2,s1,1

   18f38:	0014c483          	lbu	s1,1(s1)

   18f3c:	0c010fa3          	sb	zero,223(sp)

   18f40:	fff00e93          	li	t4,-1

   18f44:	00000a13          	li	s4,0

   18f48:	00000413          	li	s0,0

   18f4c:	00900a93          	li	s5,9

   18f50:	02a00c93          	li	s9,42

   18f54:	00190913          	addi	s2,s2,1

   18f58:	0004849b          	sext.w	s1,s1

   18f5c:	05a00613          	li	a2,90

   18f60:	fe04879b          	addiw	a5,s1,-32

   18f64:	0007869b          	sext.w	a3,a5

   18f68:	1ad66e63          	bltu	a2,a3,19124 <_svfprintf_r+0x328>

   18f6c:	02079793          	slli	a5,a5,0x20

   18f70:	00009717          	auipc	a4,0x9

   18f74:	2e070713          	addi	a4,a4,736 # 22250 <__mprec_bigtens+0x28>

   18f78:	01e7d793          	srli	a5,a5,0x1e

   18f7c:	00e787b3          	add	a5,a5,a4

   18f80:	0007a783          	lw	a5,0(a5)

   18f84:	00e787b3          	add	a5,a5,a4

   18f88:	00078067          	jr	a5

   18f8c:	01046413          	ori	s0,s0,16

   18f90:	0004041b          	sext.w	s0,s0

   18f94:	00094483          	lbu	s1,0(s2)

   18f98:	fbdff06f          	j	18f54 <_svfprintf_r+0x158>

   18f9c:	41a4893b          	subw	s2,s1,s10

   18fa0:	f8090ae3          	beqz	s2,18f34 <_svfprintf_r+0x138>

   18fa4:	f4dff06f          	j	18ef0 <_svfprintf_r+0xf4>

   18fa8:	11010613          	addi	a2,sp,272

   18fac:	000c0593          	mv	a1,s8

   18fb0:	000b0513          	mv	a0,s6

   18fb4:	4bd040ef          	jal	ra,1dc70 <__ssprint_r>

   18fb8:	02051a63          	bnez	a0,18fec <_svfprintf_r+0x1f0>

   18fbc:	000b8313          	mv	t1,s7

   18fc0:	f61ff06f          	j	18f20 <_svfprintf_r+0x124>

   18fc4:	11010613          	addi	a2,sp,272

   18fc8:	000c0593          	mv	a1,s8

   18fcc:	000b0513          	mv	a0,s6

   18fd0:	4a1040ef          	jal	ra,1dc70 <__ssprint_r>

   18fd4:	56050863          	beqz	a0,19544 <_svfprintf_r+0x748>

   18fd8:	02013783          	ld	a5,32(sp)

   18fdc:	00078863          	beqz	a5,18fec <_svfprintf_r+0x1f0>

   18fe0:	02013583          	ld	a1,32(sp)

   18fe4:	000b0513          	mv	a0,s6

   18fe8:	885fa0ef          	jal	ra,1386c <_free_r>

   18fec:	010c5783          	lhu	a5,16(s8)

   18ff0:	0407f793          	andi	a5,a5,64

   18ff4:	00078463          	beqz	a5,18ffc <_svfprintf_r+0x200>

   18ff8:	2c80206f          	j	1b2c0 <_svfprintf_r+0x24c4>

   18ffc:	27813083          	ld	ra,632(sp)

   19000:	27013403          	ld	s0,624(sp)

   19004:	00813503          	ld	a0,8(sp)

   19008:	26813483          	ld	s1,616(sp)

   1900c:	26013903          	ld	s2,608(sp)

   19010:	25813983          	ld	s3,600(sp)

   19014:	25013a03          	ld	s4,592(sp)

   19018:	24813a83          	ld	s5,584(sp)

   1901c:	24013b03          	ld	s6,576(sp)

   19020:	23813b83          	ld	s7,568(sp)

   19024:	23013c03          	ld	s8,560(sp)

   19028:	22813c83          	ld	s9,552(sp)

   1902c:	22013d03          	ld	s10,544(sp)

   19030:	21813d83          	ld	s11,536(sp)

   19034:	28010113          	addi	sp,sp,640

   19038:	00008067          	ret

   1903c:	01013703          	ld	a4,16(sp)

   19040:	00009797          	auipc	a5,0x9

   19044:	df078793          	addi	a5,a5,-528 # 21e30 <zeroes.4541+0x60>

   19048:	02f13823          	sd	a5,48(sp)

   1904c:	02047793          	andi	a5,s0,32

   19050:	00870693          	addi	a3,a4,8

   19054:	10078463          	beqz	a5,1915c <_svfprintf_r+0x360>

   19058:	00073a83          	ld	s5,0(a4)

   1905c:	00147713          	andi	a4,s0,1

   19060:	00070e63          	beqz	a4,1907c <_svfprintf_r+0x280>

   19064:	000a8c63          	beqz	s5,1907c <_svfprintf_r+0x280>

   19068:	00246413          	ori	s0,s0,2

   1906c:	03000713          	li	a4,48

   19070:	0ee10023          	sb	a4,224(sp)

   19074:	0e9100a3          	sb	s1,225(sp)

   19078:	0004041b          	sext.w	s0,s0

   1907c:	bff47813          	andi	a6,s0,-1025

   19080:	0008081b          	sext.w	a6,a6

   19084:	00d13823          	sd	a3,16(sp)

   19088:	00200713          	li	a4,2

   1908c:	0c010fa3          	sb	zero,223(sp)

   19090:	fff00693          	li	a3,-1

   19094:	30de8a63          	beq	t4,a3,193a8 <_svfprintf_r+0x5ac>

   19098:	f7f87413          	andi	s0,a6,-129

   1909c:	0004041b          	sext.w	s0,s0

   190a0:	600a98e3          	bnez	s5,19eb0 <_svfprintf_r+0x10b4>

   190a4:	000e8463          	beqz	t4,190ac <_svfprintf_r+0x2b0>

   190a8:	7ed0006f          	j	1a094 <_svfprintf_r+0x1298>

   190ac:	2a071063          	bnez	a4,1934c <_svfprintf_r+0x550>

   190b0:	00187c93          	andi	s9,a6,1

   190b4:	18c10d13          	addi	s10,sp,396

   190b8:	000c8463          	beqz	s9,190c0 <_svfprintf_r+0x2c4>

   190bc:	2800106f          	j	1a33c <_svfprintf_r+0x1540>

   190c0:	000c8a9b          	sext.w	s5,s9

   190c4:	01dcd463          	bge	s9,t4,190cc <_svfprintf_r+0x2d0>

   190c8:	000e8a9b          	sext.w	s5,t4

   190cc:	0df14783          	lbu	a5,223(sp)

   190d0:	02013023          	sd	zero,32(sp)

   190d4:	04013c23          	sd	zero,88(sp)

   190d8:	06013423          	sd	zero,104(sp)

   190dc:	06013023          	sd	zero,96(sp)

   190e0:	36078063          	beqz	a5,19440 <_svfprintf_r+0x644>

   190e4:	001a8a9b          	addiw	s5,s5,1

   190e8:	3580006f          	j	19440 <_svfprintf_r+0x644>

   190ec:	00000a13          	li	s4,0

   190f0:	00190913          	addi	s2,s2,1

   190f4:	fff94683          	lbu	a3,-1(s2)

   190f8:	002a179b          	slliw	a5,s4,0x2

   190fc:	01478a3b          	addw	s4,a5,s4

   19100:	fd04849b          	addiw	s1,s1,-48

   19104:	001a1a1b          	slliw	s4,s4,0x1

   19108:	fd06879b          	addiw	a5,a3,-48

   1910c:	01448a3b          	addw	s4,s1,s4

   19110:	0006849b          	sext.w	s1,a3

   19114:	fcfafee3          	bgeu	s5,a5,190f0 <_svfprintf_r+0x2f4>

   19118:	fe04879b          	addiw	a5,s1,-32

   1911c:	0007869b          	sext.w	a3,a5

   19120:	e4d676e3          	bgeu	a2,a3,18f6c <_svfprintf_r+0x170>

   19124:	44048463          	beqz	s1,1956c <_svfprintf_r+0x770>

   19128:	12910423          	sb	s1,296(sp)

   1912c:	0c010fa3          	sb	zero,223(sp)

   19130:	00100a93          	li	s5,1

   19134:	00100c93          	li	s9,1

   19138:	12810d13          	addi	s10,sp,296

   1913c:	2f00006f          	j	1942c <_svfprintf_r+0x630>

   19140:	01013703          	ld	a4,16(sp)

   19144:	00009797          	auipc	a5,0x9

   19148:	d0478793          	addi	a5,a5,-764 # 21e48 <zeroes.4541+0x78>

   1914c:	02f13823          	sd	a5,48(sp)

   19150:	02047793          	andi	a5,s0,32

   19154:	00870693          	addi	a3,a4,8

   19158:	f00790e3          	bnez	a5,19058 <_svfprintf_r+0x25c>

   1915c:	01047793          	andi	a5,s0,16

   19160:	00078463          	beqz	a5,19168 <_svfprintf_r+0x36c>

   19164:	2200106f          	j	1a384 <_svfprintf_r+0x1588>

   19168:	01013783          	ld	a5,16(sp)

   1916c:	04047713          	andi	a4,s0,64

   19170:	0007a783          	lw	a5,0(a5)

   19174:	00071463          	bnez	a4,1917c <_svfprintf_r+0x380>

   19178:	0610106f          	j	1a9d8 <_svfprintf_r+0x1bdc>

   1917c:	03079a93          	slli	s5,a5,0x30

   19180:	030ada93          	srli	s5,s5,0x30

   19184:	ed9ff06f          	j	1905c <_svfprintf_r+0x260>

   19188:	00094483          	lbu	s1,0(s2)

   1918c:	00446413          	ori	s0,s0,4

   19190:	0004041b          	sext.w	s0,s0

   19194:	dc1ff06f          	j	18f54 <_svfprintf_r+0x158>

   19198:	00094483          	lbu	s1,0(s2)

   1919c:	00190793          	addi	a5,s2,1

   191a0:	01949463          	bne	s1,s9,191a8 <_svfprintf_r+0x3ac>

   191a4:	2d80206f          	j	1b47c <_svfprintf_r+0x2680>

   191a8:	fd04869b          	addiw	a3,s1,-48

   191ac:	00078913          	mv	s2,a5

   191b0:	00000e93          	li	t4,0

   191b4:	dadae6e3          	bltu	s5,a3,18f60 <_svfprintf_r+0x164>

   191b8:	00190913          	addi	s2,s2,1

   191bc:	002e979b          	slliw	a5,t4,0x2

   191c0:	fff94483          	lbu	s1,-1(s2)

   191c4:	01d78ebb          	addw	t4,a5,t4

   191c8:	001e9e9b          	slliw	t4,t4,0x1

   191cc:	00de8ebb          	addw	t4,t4,a3

   191d0:	fd04869b          	addiw	a3,s1,-48

   191d4:	fedaf2e3          	bgeu	s5,a3,191b8 <_svfprintf_r+0x3bc>

   191d8:	d89ff06f          	j	18f60 <_svfprintf_r+0x164>

   191dc:	08046413          	ori	s0,s0,128

   191e0:	0004041b          	sext.w	s0,s0

   191e4:	00094483          	lbu	s1,0(s2)

   191e8:	d6dff06f          	j	18f54 <_svfprintf_r+0x158>

   191ec:	01013783          	ld	a5,16(sp)

   191f0:	01046813          	ori	a6,s0,16

   191f4:	0008081b          	sext.w	a6,a6

   191f8:	00878693          	addi	a3,a5,8

   191fc:	01013783          	ld	a5,16(sp)

   19200:	00100713          	li	a4,1

   19204:	0007ba83          	ld	s5,0(a5)

   19208:	00d13823          	sd	a3,16(sp)

   1920c:	e81ff06f          	j	1908c <_svfprintf_r+0x290>

   19210:	01013783          	ld	a5,16(sp)

   19214:	0c010fa3          	sb	zero,223(sp)

   19218:	0007bd03          	ld	s10,0(a5)

   1921c:	00878693          	addi	a3,a5,8

   19220:	000d1463          	bnez	s10,19228 <_svfprintf_r+0x42c>

   19224:	1ec0106f          	j	1a410 <_svfprintf_r+0x1614>

   19228:	fff00793          	li	a5,-1

   1922c:	00fe9463          	bne	t4,a5,19234 <_svfprintf_r+0x438>

   19230:	6900106f          	j	1a8c0 <_svfprintf_r+0x1ac4>

   19234:	000e8613          	mv	a2,t4

   19238:	00000593          	li	a1,0

   1923c:	000d0513          	mv	a0,s10

   19240:	02d13c23          	sd	a3,56(sp)

   19244:	00613c23          	sd	t1,24(sp)

   19248:	01d13823          	sd	t4,16(sp)

   1924c:	a3cfe0ef          	jal	ra,17488 <memchr>

   19250:	02a13023          	sd	a0,32(sp)

   19254:	01013e83          	ld	t4,16(sp)

   19258:	01813303          	ld	t1,24(sp)

   1925c:	03813683          	ld	a3,56(sp)

   19260:	00051463          	bnez	a0,19268 <_svfprintf_r+0x46c>

   19264:	3a10106f          	j	1ae04 <_svfprintf_r+0x2008>

   19268:	02013783          	ld	a5,32(sp)

   1926c:	00d13823          	sd	a3,16(sp)

   19270:	02013023          	sd	zero,32(sp)

   19274:	41a78cbb          	subw	s9,a5,s10

   19278:	fffcca93          	not	s5,s9

   1927c:	0df14783          	lbu	a5,223(sp)

   19280:	43fada93          	srai	s5,s5,0x3f

   19284:	015cfab3          	and	s5,s9,s5

   19288:	04013c23          	sd	zero,88(sp)

   1928c:	06013423          	sd	zero,104(sp)

   19290:	06013023          	sd	zero,96(sp)

   19294:	000a8a9b          	sext.w	s5,s5

   19298:	00000e93          	li	t4,0

   1929c:	e40794e3          	bnez	a5,190e4 <_svfprintf_r+0x2e8>

   192a0:	1a00006f          	j	19440 <_svfprintf_r+0x644>

   192a4:	01013703          	ld	a4,16(sp)

   192a8:	01046813          	ori	a6,s0,16

   192ac:	0008041b          	sext.w	s0,a6

   192b0:	00870713          	addi	a4,a4,8

   192b4:	01013783          	ld	a5,16(sp)

   192b8:	0007ba83          	ld	s5,0(a5)

   192bc:	00e13823          	sd	a4,16(sp)

   192c0:	bff47813          	andi	a6,s0,-1025

   192c4:	0008081b          	sext.w	a6,a6

   192c8:	00000713          	li	a4,0

   192cc:	dc1ff06f          	j	1908c <_svfprintf_r+0x290>

   192d0:	00094483          	lbu	s1,0(s2)

   192d4:	06800793          	li	a5,104

   192d8:	00f49463          	bne	s1,a5,192e0 <_svfprintf_r+0x4e4>

   192dc:	0e40106f          	j	1a3c0 <_svfprintf_r+0x15c4>

   192e0:	04046413          	ori	s0,s0,64

   192e4:	0004041b          	sext.w	s0,s0

   192e8:	c6dff06f          	j	18f54 <_svfprintf_r+0x158>

   192ec:	01013703          	ld	a4,16(sp)

   192f0:	02047793          	andi	a5,s0,32

   192f4:	00870693          	addi	a3,a4,8

   192f8:	00078463          	beqz	a5,19300 <_svfprintf_r+0x504>

   192fc:	0500106f          	j	1a34c <_svfprintf_r+0x1550>

   19300:	01047793          	andi	a5,s0,16

   19304:	00078463          	beqz	a5,1930c <_svfprintf_r+0x510>

   19308:	0440106f          	j	1a34c <_svfprintf_r+0x1550>

   1930c:	04047793          	andi	a5,s0,64

   19310:	00079463          	bnez	a5,19318 <_svfprintf_r+0x51c>

   19314:	7100106f          	j	1aa24 <_svfprintf_r+0x1c28>

   19318:	01013783          	ld	a5,16(sp)

   1931c:	00040813          	mv	a6,s0

   19320:	00d13823          	sd	a3,16(sp)

   19324:	00079a83          	lh	s5,0(a5)

   19328:	000a8713          	mv	a4,s5

   1932c:	06074263          	bltz	a4,19390 <_svfprintf_r+0x594>

   19330:	fff00713          	li	a4,-1

   19334:	0aee80e3          	beq	t4,a4,19bd4 <_svfprintf_r+0xdd8>

   19338:	f7f87813          	andi	a6,a6,-129

   1933c:	0008041b          	sext.w	s0,a6

   19340:	080a98e3          	bnez	s5,19bd0 <_svfprintf_r+0xdd4>

   19344:	000e8463          	beqz	t4,1934c <_svfprintf_r+0x550>

   19348:	0bd0106f          	j	1ac04 <_svfprintf_r+0x1e08>

   1934c:	00000e93          	li	t4,0

   19350:	00000c93          	li	s9,0

   19354:	18c10d13          	addi	s10,sp,396

   19358:	d69ff06f          	j	190c0 <_svfprintf_r+0x2c4>

   1935c:	00846413          	ori	s0,s0,8

   19360:	0004041b          	sext.w	s0,s0

   19364:	00094483          	lbu	s1,0(s2)

   19368:	bedff06f          	j	18f54 <_svfprintf_r+0x158>

   1936c:	01013783          	ld	a5,16(sp)

   19370:	01046813          	ori	a6,s0,16

   19374:	0008081b          	sext.w	a6,a6

   19378:	00878693          	addi	a3,a5,8

   1937c:	01013783          	ld	a5,16(sp)

   19380:	0007b703          	ld	a4,0(a5)

   19384:	00d13823          	sd	a3,16(sp)

   19388:	00070a93          	mv	s5,a4

   1938c:	fa0752e3          	bgez	a4,19330 <_svfprintf_r+0x534>

   19390:	02d00713          	li	a4,45

   19394:	0ce10fa3          	sb	a4,223(sp)

   19398:	fff00693          	li	a3,-1

   1939c:	41500ab3          	neg	s5,s5

   193a0:	00100713          	li	a4,1

   193a4:	cede9ae3          	bne	t4,a3,19098 <_svfprintf_r+0x29c>

   193a8:	00100693          	li	a3,1

   193ac:	02d704e3          	beq	a4,a3,19bd4 <_svfprintf_r+0xdd8>

   193b0:	00200693          	li	a3,2

   193b4:	4ed70ae3          	beq	a4,a3,1a0a8 <_svfprintf_r+0x12ac>

   193b8:	18c10c93          	addi	s9,sp,396

   193bc:	000c8613          	mv	a2,s9

   193c0:	0080006f          	j	193c8 <_svfprintf_r+0x5cc>

   193c4:	000d0613          	mv	a2,s10

   193c8:	007af693          	andi	a3,s5,7

   193cc:	03068693          	addi	a3,a3,48

   193d0:	fed60fa3          	sb	a3,-1(a2)

   193d4:	003ada93          	srli	s5,s5,0x3

   193d8:	fff60d13          	addi	s10,a2,-1

   193dc:	fe0a94e3          	bnez	s5,193c4 <_svfprintf_r+0x5c8>

   193e0:	00187793          	andi	a5,a6,1

   193e4:	020780e3          	beqz	a5,19c04 <_svfprintf_r+0xe08>

   193e8:	03000793          	li	a5,48

   193ec:	00f68ce3          	beq	a3,a5,19c04 <_svfprintf_r+0xe08>

   193f0:	ffe60613          	addi	a2,a2,-2

   193f4:	fefd0fa3          	sb	a5,-1(s10)

   193f8:	40cc8cbb          	subw	s9,s9,a2

   193fc:	00080413          	mv	s0,a6

   19400:	00060d13          	mv	s10,a2

   19404:	cbdff06f          	j	190c0 <_svfprintf_r+0x2c4>

   19408:	01013703          	ld	a4,16(sp)

   1940c:	0c010fa3          	sb	zero,223(sp)

   19410:	00100a93          	li	s5,1

   19414:	00072783          	lw	a5,0(a4)

   19418:	00870713          	addi	a4,a4,8

   1941c:	00e13823          	sd	a4,16(sp)

   19420:	12f10423          	sb	a5,296(sp)

   19424:	00100c93          	li	s9,1

   19428:	12810d13          	addi	s10,sp,296

   1942c:	02013023          	sd	zero,32(sp)

   19430:	00000e93          	li	t4,0

   19434:	04013c23          	sd	zero,88(sp)

   19438:	06013423          	sd	zero,104(sp)

   1943c:	06013023          	sd	zero,96(sp)

   19440:	00247f13          	andi	t5,s0,2

   19444:	000f0f1b          	sext.w	t5,t5

   19448:	000f0463          	beqz	t5,19450 <_svfprintf_r+0x654>

   1944c:	002a8a9b          	addiw	s5,s5,2

   19450:	08447f93          	andi	t6,s0,132

   19454:	12013783          	ld	a5,288(sp)

   19458:	000f9663          	bnez	t6,19464 <_svfprintf_r+0x668>

   1945c:	415a083b          	subw	a6,s4,s5

   19460:	25004ce3          	bgtz	a6,19eb8 <_svfprintf_r+0x10bc>

   19464:	0df14683          	lbu	a3,223(sp)

   19468:	02068c63          	beqz	a3,194a0 <_svfprintf_r+0x6a4>

   1946c:	11812683          	lw	a3,280(sp)

   19470:	0df10613          	addi	a2,sp,223

   19474:	00c33023          	sd	a2,0(t1)

   19478:	0016869b          	addiw	a3,a3,1

   1947c:	00100613          	li	a2,1

   19480:	00178793          	addi	a5,a5,1

   19484:	00c33423          	sd	a2,8(t1)

   19488:	10d12c23          	sw	a3,280(sp)

   1948c:	0006861b          	sext.w	a2,a3

   19490:	12f13023          	sd	a5,288(sp)

   19494:	00700693          	li	a3,7

   19498:	01030313          	addi	t1,t1,16

   1949c:	0ec6c863          	blt	a3,a2,1958c <_svfprintf_r+0x790>

   194a0:	020f0c63          	beqz	t5,194d8 <_svfprintf_r+0x6dc>

   194a4:	11812683          	lw	a3,280(sp)

   194a8:	0e010613          	addi	a2,sp,224

   194ac:	00c33023          	sd	a2,0(t1)

   194b0:	0016869b          	addiw	a3,a3,1

   194b4:	00200613          	li	a2,2

   194b8:	00278793          	addi	a5,a5,2

   194bc:	00c33423          	sd	a2,8(t1)

   194c0:	10d12c23          	sw	a3,280(sp)

   194c4:	0006861b          	sext.w	a2,a3

   194c8:	12f13023          	sd	a5,288(sp)

   194cc:	00700693          	li	a3,7

   194d0:	01030313          	addi	t1,t1,16

   194d4:	2cc6cce3          	blt	a3,a2,19fac <_svfprintf_r+0x11b0>

   194d8:	08000693          	li	a3,128

   194dc:	04df8ce3          	beq	t6,a3,19d34 <_svfprintf_r+0xf38>

   194e0:	419e8ebb          	subw	t4,t4,s9

   194e4:	11d04ee3          	bgtz	t4,19e00 <_svfprintf_r+0x1004>

   194e8:	10047693          	andi	a3,s0,256

   194ec:	72069263          	bnez	a3,19c10 <_svfprintf_r+0xe14>

   194f0:	11812703          	lw	a4,280(sp)

   194f4:	019787b3          	add	a5,a5,s9

   194f8:	01a33023          	sd	s10,0(t1)

   194fc:	0017069b          	addiw	a3,a4,1

   19500:	01933423          	sd	s9,8(t1)

   19504:	12f13023          	sd	a5,288(sp)

   19508:	10d12c23          	sw	a3,280(sp)

   1950c:	00700713          	li	a4,7

   19510:	1cd74663          	blt	a4,a3,196dc <_svfprintf_r+0x8e0>

   19514:	01030313          	addi	t1,t1,16

   19518:	00447413          	andi	s0,s0,4

   1951c:	00040663          	beqz	s0,19528 <_svfprintf_r+0x72c>

   19520:	415a043b          	subw	s0,s4,s5

   19524:	2a804ee3          	bgtz	s0,19fe0 <_svfprintf_r+0x11e4>

   19528:	000a0713          	mv	a4,s4

   1952c:	015a5463          	bge	s4,s5,19534 <_svfprintf_r+0x738>

   19530:	000a8713          	mv	a4,s5

   19534:	00813683          	ld	a3,8(sp)

   19538:	00d7073b          	addw	a4,a4,a3

   1953c:	00e13423          	sd	a4,8(sp)

   19540:	a80792e3          	bnez	a5,18fc4 <_svfprintf_r+0x1c8>

   19544:	02013783          	ld	a5,32(sp)

   19548:	10012c23          	sw	zero,280(sp)

   1954c:	00078863          	beqz	a5,1955c <_svfprintf_r+0x760>

   19550:	02013583          	ld	a1,32(sp)

   19554:	000b0513          	mv	a0,s6

   19558:	b14fa0ef          	jal	ra,1386c <_free_r>

   1955c:	000b8313          	mv	t1,s7

   19560:	00090d13          	mv	s10,s2

   19564:	000d4783          	lbu	a5,0(s10)

   19568:	94079ce3          	bnez	a5,18ec0 <_svfprintf_r+0xc4>

   1956c:	12013783          	ld	a5,288(sp)

   19570:	a6078ee3          	beqz	a5,18fec <_svfprintf_r+0x1f0>

   19574:	11010613          	addi	a2,sp,272

   19578:	000c0593          	mv	a1,s8

   1957c:	000b0513          	mv	a0,s6

   19580:	6f0040ef          	jal	ra,1dc70 <__ssprint_r>

   19584:	010c5783          	lhu	a5,16(s8)

   19588:	a69ff06f          	j	18ff0 <_svfprintf_r+0x1f4>

   1958c:	11010613          	addi	a2,sp,272

   19590:	000c0593          	mv	a1,s8

   19594:	000b0513          	mv	a0,s6

   19598:	05d13023          	sd	t4,64(sp)

   1959c:	03f13c23          	sd	t6,56(sp)

   195a0:	01e13c23          	sd	t5,24(sp)

   195a4:	6cc040ef          	jal	ra,1dc70 <__ssprint_r>

   195a8:	a20518e3          	bnez	a0,18fd8 <_svfprintf_r+0x1dc>

   195ac:	12013783          	ld	a5,288(sp)

   195b0:	000b8313          	mv	t1,s7

   195b4:	04013e83          	ld	t4,64(sp)

   195b8:	03813f83          	ld	t6,56(sp)

   195bc:	01813f03          	ld	t5,24(sp)

   195c0:	ee1ff06f          	j	194a0 <_svfprintf_r+0x6a4>

   195c4:	11812e83          	lw	t4,280(sp)

   195c8:	02813703          	ld	a4,40(sp)

   195cc:	00178c93          	addi	s9,a5,1

   195d0:	00100613          	li	a2,1

   195d4:	001e879b          	addiw	a5,t4,1

   195d8:	01a33023          	sd	s10,0(t1)

   195dc:	00078693          	mv	a3,a5

   195e0:	01030493          	addi	s1,t1,16

   195e4:	46e654e3          	bge	a2,a4,1a24c <_svfprintf_r+0x1450>

   195e8:	00100613          	li	a2,1

   195ec:	10d12c23          	sw	a3,280(sp)

   195f0:	00c33423          	sd	a2,8(t1)

   195f4:	13913023          	sd	s9,288(sp)

   195f8:	00700693          	li	a3,7

   195fc:	4ef6c8e3          	blt	a3,a5,1a2ec <_svfprintf_r+0x14f0>

   19600:	0017869b          	addiw	a3,a5,1

   19604:	07813783          	ld	a5,120(sp)

   19608:	08013703          	ld	a4,128(sp)

   1960c:	10d12c23          	sw	a3,280(sp)

   19610:	00fc8cb3          	add	s9,s9,a5

   19614:	00f4b423          	sd	a5,8(s1)

   19618:	00e4b023          	sd	a4,0(s1)

   1961c:	0006879b          	sext.w	a5,a3

   19620:	13913023          	sd	s9,288(sp)

   19624:	00700693          	li	a3,7

   19628:	01048493          	addi	s1,s1,16

   1962c:	4ef6c4e3          	blt	a3,a5,1a314 <_svfprintf_r+0x1518>

   19630:	0017889b          	addiw	a7,a5,1

   19634:	04f13823          	sd	a5,80(sp)

   19638:	02813783          	ld	a5,40(sp)

   1963c:	10013503          	ld	a0,256(sp)

   19640:	10813583          	ld	a1,264(sp)

   19644:	00088e9b          	sext.w	t4,a7

   19648:	01048313          	addi	t1,s1,16

   1964c:	fff7881b          	addiw	a6,a5,-1

   19650:	00000613          	li	a2,0

   19654:	00000693          	li	a3,0

   19658:	05113423          	sd	a7,72(sp)

   1965c:	05d13023          	sd	t4,64(sp)

   19660:	02613c23          	sd	t1,56(sp)

   19664:	01013c23          	sd	a6,24(sp)

   19668:	001060ef          	jal	ra,1fe68 <__eqtf2>

   1966c:	01813803          	ld	a6,24(sp)

   19670:	03813303          	ld	t1,56(sp)

   19674:	04013e83          	ld	t4,64(sp)

   19678:	04813883          	ld	a7,72(sp)

   1967c:	3e050ce3          	beqz	a0,1a274 <_svfprintf_r+0x1478>

   19680:	001d0713          	addi	a4,s10,1

   19684:	010c8cb3          	add	s9,s9,a6

   19688:	00e4b023          	sd	a4,0(s1)

   1968c:	0104b423          	sd	a6,8(s1)

   19690:	13913023          	sd	s9,288(sp)

   19694:	11112c23          	sw	a7,280(sp)

   19698:	00700713          	li	a4,7

   1969c:	01d75463          	bge	a4,t4,196a4 <_svfprintf_r+0x8a8>

   196a0:	7a10006f          	j	1a640 <_svfprintf_r+0x1844>

   196a4:	05013783          	ld	a5,80(sp)

   196a8:	02048713          	addi	a4,s1,32

   196ac:	00030493          	mv	s1,t1

   196b0:	00278e9b          	addiw	t4,a5,2

   196b4:	00070313          	mv	t1,a4

   196b8:	09013683          	ld	a3,144(sp)

   196bc:	0f010713          	addi	a4,sp,240

   196c0:	00e4b023          	sd	a4,0(s1)

   196c4:	019687b3          	add	a5,a3,s9

   196c8:	00d4b423          	sd	a3,8(s1)

   196cc:	12f13023          	sd	a5,288(sp)

   196d0:	11d12c23          	sw	t4,280(sp)

   196d4:	00700713          	li	a4,7

   196d8:	e5d750e3          	bge	a4,t4,19518 <_svfprintf_r+0x71c>

   196dc:	11010613          	addi	a2,sp,272

   196e0:	000c0593          	mv	a1,s8

   196e4:	000b0513          	mv	a0,s6

   196e8:	588040ef          	jal	ra,1dc70 <__ssprint_r>

   196ec:	8e0516e3          	bnez	a0,18fd8 <_svfprintf_r+0x1dc>

   196f0:	12013783          	ld	a5,288(sp)

   196f4:	000b8313          	mv	t1,s7

   196f8:	e21ff06f          	j	19518 <_svfprintf_r+0x71c>

   196fc:	02b00793          	li	a5,43

   19700:	0cf10fa3          	sb	a5,223(sp)

   19704:	00094483          	lbu	s1,0(s2)

   19708:	84dff06f          	j	18f54 <_svfprintf_r+0x158>

   1970c:	01013783          	ld	a5,16(sp)

   19710:	00094483          	lbu	s1,0(s2)

   19714:	0007aa03          	lw	s4,0(a5)

   19718:	00878793          	addi	a5,a5,8

   1971c:	00f13823          	sd	a5,16(sp)

   19720:	820a5ae3          	bgez	s4,18f54 <_svfprintf_r+0x158>

   19724:	41400a3b          	negw	s4,s4

   19728:	a65ff06f          	j	1918c <_svfprintf_r+0x390>

   1972c:	000b0513          	mv	a0,s6

   19730:	02613023          	sd	t1,32(sp)

   19734:	01d13c23          	sd	t4,24(sp)

   19738:	9ecfd0ef          	jal	ra,16924 <_localeconv_r>

   1973c:	00853783          	ld	a5,8(a0)

   19740:	00078513          	mv	a0,a5

   19744:	08f13c23          	sd	a5,152(sp)

   19748:	d14ff0ef          	jal	ra,18c5c <strlen>

   1974c:	00050493          	mv	s1,a0

   19750:	08a13423          	sd	a0,136(sp)

   19754:	000b0513          	mv	a0,s6

   19758:	9ccfd0ef          	jal	ra,16924 <_localeconv_r>

   1975c:	01053703          	ld	a4,16(a0)

   19760:	00048793          	mv	a5,s1

   19764:	01813e83          	ld	t4,24(sp)

   19768:	06e13823          	sd	a4,112(sp)

   1976c:	02013303          	ld	t1,32(sp)

   19770:	00094483          	lbu	s1,0(s2)

   19774:	fe078063          	beqz	a5,18f54 <_svfprintf_r+0x158>

   19778:	fc070e63          	beqz	a4,18f54 <_svfprintf_r+0x158>

   1977c:	00074783          	lbu	a5,0(a4)

   19780:	fc078a63          	beqz	a5,18f54 <_svfprintf_r+0x158>

   19784:	40046413          	ori	s0,s0,1024

   19788:	0004041b          	sext.w	s0,s0

   1978c:	fc8ff06f          	j	18f54 <_svfprintf_r+0x158>

   19790:	00146413          	ori	s0,s0,1

   19794:	0004041b          	sext.w	s0,s0

   19798:	00094483          	lbu	s1,0(s2)

   1979c:	fb8ff06f          	j	18f54 <_svfprintf_r+0x158>

   197a0:	0df14783          	lbu	a5,223(sp)

   197a4:	00094483          	lbu	s1,0(s2)

   197a8:	fa079663          	bnez	a5,18f54 <_svfprintf_r+0x158>

   197ac:	02000793          	li	a5,32

   197b0:	0cf10fa3          	sb	a5,223(sp)

   197b4:	fa0ff06f          	j	18f54 <_svfprintf_r+0x158>

   197b8:	01013703          	ld	a4,16(sp)

   197bc:	02047793          	andi	a5,s0,32

   197c0:	00870693          	addi	a3,a4,8

   197c4:	3a079ce3          	bnez	a5,1a37c <_svfprintf_r+0x1580>

   197c8:	01047793          	andi	a5,s0,16

   197cc:	3a0798e3          	bnez	a5,1a37c <_svfprintf_r+0x1580>

   197d0:	01013783          	ld	a5,16(sp)

   197d4:	04047713          	andi	a4,s0,64

   197d8:	0007a783          	lw	a5,0(a5)

   197dc:	00071463          	bnez	a4,197e4 <_svfprintf_r+0x9e8>

   197e0:	2280106f          	j	1aa08 <_svfprintf_r+0x1c0c>

   197e4:	03079a93          	slli	s5,a5,0x30

   197e8:	030ada93          	srli	s5,s5,0x30

   197ec:	00d13823          	sd	a3,16(sp)

   197f0:	00040813          	mv	a6,s0

   197f4:	00100713          	li	a4,1

   197f8:	895ff06f          	j	1908c <_svfprintf_r+0x290>

   197fc:	02046413          	ori	s0,s0,32

   19800:	0004041b          	sext.w	s0,s0

   19804:	00094483          	lbu	s1,0(s2)

   19808:	f4cff06f          	j	18f54 <_svfprintf_r+0x158>

   1980c:	01013783          	ld	a5,16(sp)

   19810:	ffff8737          	lui	a4,0xffff8

   19814:	83074713          	xori	a4,a4,-2000

   19818:	0007ba83          	ld	s5,0(a5)

   1981c:	00878793          	addi	a5,a5,8

   19820:	00246813          	ori	a6,s0,2

   19824:	00f13823          	sd	a5,16(sp)

   19828:	00008797          	auipc	a5,0x8

   1982c:	60878793          	addi	a5,a5,1544 # 21e30 <zeroes.4541+0x60>

   19830:	0ee11023          	sh	a4,224(sp)

   19834:	0008081b          	sext.w	a6,a6

   19838:	02f13823          	sd	a5,48(sp)

   1983c:	00200713          	li	a4,2

   19840:	07800493          	li	s1,120

   19844:	849ff06f          	j	1908c <_svfprintf_r+0x290>

   19848:	01013703          	ld	a4,16(sp)

   1984c:	02047793          	andi	a5,s0,32

   19850:	00870713          	addi	a4,a4,8 # ffffffffffff8008 <__BSS_END__+0xfffffffffffd3548>

   19854:	a60790e3          	bnez	a5,192b4 <_svfprintf_r+0x4b8>

   19858:	01047793          	andi	a5,s0,16

   1985c:	a4079ce3          	bnez	a5,192b4 <_svfprintf_r+0x4b8>

   19860:	01013783          	ld	a5,16(sp)

   19864:	04047693          	andi	a3,s0,64

   19868:	0007a783          	lw	a5,0(a5)

   1986c:	00069463          	bnez	a3,19874 <_svfprintf_r+0xa78>

   19870:	1840106f          	j	1a9f4 <_svfprintf_r+0x1bf8>

   19874:	03079a93          	slli	s5,a5,0x30

   19878:	030ada93          	srli	s5,s5,0x30

   1987c:	00e13823          	sd	a4,16(sp)

   19880:	a41ff06f          	j	192c0 <_svfprintf_r+0x4c4>

   19884:	01013683          	ld	a3,16(sp)

   19888:	02047793          	andi	a5,s0,32

   1988c:	0006b703          	ld	a4,0(a3)

   19890:	00868693          	addi	a3,a3,8

   19894:	00d13823          	sd	a3,16(sp)

   19898:	32079463          	bnez	a5,19bc0 <_svfprintf_r+0xdc4>

   1989c:	01047793          	andi	a5,s0,16

   198a0:	32079063          	bnez	a5,19bc0 <_svfprintf_r+0xdc4>

   198a4:	04047793          	andi	a5,s0,64

   198a8:	00078463          	beqz	a5,198b0 <_svfprintf_r+0xab4>

   198ac:	2c80106f          	j	1ab74 <_svfprintf_r+0x1d78>

   198b0:	20047413          	andi	s0,s0,512

   198b4:	00813783          	ld	a5,8(sp)

   198b8:	00041463          	bnez	s0,198c0 <_svfprintf_r+0xac4>

   198bc:	1f10106f          	j	1b2ac <_svfprintf_r+0x24b0>

   198c0:	00f70023          	sb	a5,0(a4)

   198c4:	00090d13          	mv	s10,s2

   198c8:	c9dff06f          	j	19564 <_svfprintf_r+0x768>

   198cc:	00094483          	lbu	s1,0(s2)

   198d0:	06c00793          	li	a5,108

   198d4:	30f480e3          	beq	s1,a5,1a3d4 <_svfprintf_r+0x15d8>

   198d8:	01046413          	ori	s0,s0,16

   198dc:	0004041b          	sext.w	s0,s0

   198e0:	e74ff06f          	j	18f54 <_svfprintf_r+0x158>

   198e4:	00847793          	andi	a5,s0,8

   198e8:	260796e3          	bnez	a5,1a354 <_svfprintf_r+0x1558>

   198ec:	01013783          	ld	a5,16(sp)

   198f0:	02613023          	sd	t1,32(sp)

   198f4:	01d13c23          	sd	t4,24(sp)

   198f8:	0007b503          	ld	a0,0(a5)

   198fc:	00878793          	addi	a5,a5,8

   19900:	00f13823          	sd	a5,16(sp)

   19904:	4f9070ef          	jal	ra,215fc <__extenddftf2>

   19908:	02013303          	ld	t1,32(sp)

   1990c:	01813e83          	ld	t4,24(sp)

   19910:	10a13023          	sd	a0,256(sp)

   19914:	10b13423          	sd	a1,264(sp)

   19918:	10010513          	addi	a0,sp,256

   1991c:	02613023          	sd	t1,32(sp)

   19920:	01d13c23          	sd	t4,24(sp)

   19924:	fa5fc0ef          	jal	ra,168c8 <_ldcheck>

   19928:	0ea12423          	sw	a0,232(sp)

   1992c:	00200793          	li	a5,2

   19930:	01813e83          	ld	t4,24(sp)

   19934:	02013303          	ld	t1,32(sp)

   19938:	72f502e3          	beq	a0,a5,1a85c <_svfprintf_r+0x1a60>

   1993c:	00100793          	li	a5,1

   19940:	00f51463          	bne	a0,a5,19948 <_svfprintf_r+0xb4c>

   19944:	1000106f          	j	1aa44 <_svfprintf_r+0x1c48>

   19948:	06100793          	li	a5,97

   1994c:	00f49463          	bne	s1,a5,19954 <_svfprintf_r+0xb58>

   19950:	13d0106f          	j	1b28c <_svfprintf_r+0x2490>

   19954:	04100793          	li	a5,65

   19958:	00f49463          	bne	s1,a5,19960 <_svfprintf_r+0xb64>

   1995c:	5800106f          	j	1aedc <_svfprintf_r+0x20e0>

   19960:	fdf4f713          	andi	a4,s1,-33

   19964:	fff00793          	li	a5,-1

   19968:	0ae13423          	sd	a4,168(sp)

   1996c:	00fe9463          	bne	t4,a5,19974 <_svfprintf_r+0xb78>

   19970:	28c0106f          	j	1abfc <_svfprintf_r+0x1e00>

   19974:	04700793          	li	a5,71

   19978:	00f71463          	bne	a4,a5,19980 <_svfprintf_r+0xb84>

   1997c:	1210106f          	j	1b29c <_svfprintf_r+0x24a0>

   19980:	10813c83          	ld	s9,264(sp)

   19984:	10046793          	ori	a5,s0,256

   19988:	0a813823          	sd	s0,176(sp)

   1998c:	0007879b          	sext.w	a5,a5

   19990:	10013f03          	ld	t5,256(sp)

   19994:	000cd463          	bgez	s9,1999c <_svfprintf_r+0xba0>

   19998:	7b80106f          	j	1b150 <_svfprintf_r+0x2354>

   1999c:	0c013423          	sd	zero,200(sp)

   199a0:	00078413          	mv	s0,a5

   199a4:	02013023          	sd	zero,32(sp)

   199a8:	0a813703          	ld	a4,168(sp)

   199ac:	04600793          	li	a5,70

   199b0:	00f71463          	bne	a4,a5,199b8 <_svfprintf_r+0xbbc>

   199b4:	2f80106f          	j	1acac <_svfprintf_r+0x1eb0>

   199b8:	04500793          	li	a5,69

   199bc:	02613c23          	sd	t1,56(sp)

   199c0:	00f71463          	bne	a4,a5,199c8 <_svfprintf_r+0xbcc>

   199c4:	0390106f          	j	1b1fc <_svfprintf_r+0x2400>

   199c8:	000e8713          	mv	a4,t4

   199cc:	0e810793          	addi	a5,sp,232

   199d0:	000f0593          	mv	a1,t5

   199d4:	0f810893          	addi	a7,sp,248

   199d8:	0ec10813          	addi	a6,sp,236

   199dc:	00200693          	li	a3,2

   199e0:	000c8613          	mv	a2,s9

   199e4:	000b0513          	mv	a0,s6

   199e8:	03d13423          	sd	t4,40(sp)

   199ec:	01e13c23          	sd	t5,24(sp)

   199f0:	bc1fb0ef          	jal	ra,155b0 <_ldtoa_r>

   199f4:	0a813703          	ld	a4,168(sp)

   199f8:	04700793          	li	a5,71

   199fc:	00050d13          	mv	s10,a0

   19a00:	01813f03          	ld	t5,24(sp)

   19a04:	02813e83          	ld	t4,40(sp)

   19a08:	03813303          	ld	t1,56(sp)

   19a0c:	00f70463          	beq	a4,a5,19a14 <_svfprintf_r+0xc18>

   19a10:	29d0106f          	j	1b4ac <_svfprintf_r+0x26b0>

   19a14:	0b013783          	ld	a5,176(sp)

   19a18:	01d50ab3          	add	s5,a0,t4

   19a1c:	0017f793          	andi	a5,a5,1

   19a20:	00078463          	beqz	a5,19a28 <_svfprintf_r+0xc2c>

   19a24:	2e00106f          	j	1ad04 <_svfprintf_r+0x1f08>

   19a28:	0f813783          	ld	a5,248(sp)

   19a2c:	41a787bb          	subw	a5,a5,s10

   19a30:	02f13423          	sd	a5,40(sp)

   19a34:	0e812703          	lw	a4,232(sp)

   19a38:	04700793          	li	a5,71

   19a3c:	06e13023          	sd	a4,96(sp)

   19a40:	0a813703          	ld	a4,168(sp)

   19a44:	00f71463          	bne	a4,a5,19a4c <_svfprintf_r+0xc50>

   19a48:	1d80106f          	j	1ac20 <_svfprintf_r+0x1e24>

   19a4c:	0a813703          	ld	a4,168(sp)

   19a50:	04600793          	li	a5,70

   19a54:	00f71463          	bne	a4,a5,19a5c <_svfprintf_r+0xc60>

   19a58:	4080106f          	j	1ae60 <_svfprintf_r+0x2064>

   19a5c:	06013783          	ld	a5,96(sp)

   19a60:	0a813703          	ld	a4,168(sp)

   19a64:	04100693          	li	a3,65

   19a68:	fff78a9b          	addiw	s5,a5,-1

   19a6c:	0f512423          	sw	s5,232(sp)

   19a70:	0ff4f793          	andi	a5,s1,255

   19a74:	00000613          	li	a2,0

   19a78:	00d71863          	bne	a4,a3,19a88 <_svfprintf_r+0xc8c>

   19a7c:	00f7879b          	addiw	a5,a5,15

   19a80:	0ff7f793          	andi	a5,a5,255

   19a84:	00100613          	li	a2,1

   19a88:	0ef10823          	sb	a5,240(sp)

   19a8c:	02b00793          	li	a5,43

   19a90:	000ada63          	bgez	s5,19aa4 <_svfprintf_r+0xca8>

   19a94:	06013703          	ld	a4,96(sp)

   19a98:	00100793          	li	a5,1

   19a9c:	40e78abb          	subw	s5,a5,a4

   19aa0:	02d00793          	li	a5,45

   19aa4:	0ef108a3          	sb	a5,241(sp)

   19aa8:	00900793          	li	a5,9

   19aac:	0157c463          	blt	a5,s5,19ab4 <_svfprintf_r+0xcb8>

   19ab0:	01d0106f          	j	1b2cc <_svfprintf_r+0x24d0>

   19ab4:	0ff10413          	addi	s0,sp,255

   19ab8:	00040c93          	mv	s9,s0

   19abc:	00c0006f          	j	19ac8 <_svfprintf_r+0xccc>

   19ac0:	00060c93          	mv	s9,a2

   19ac4:	00050a93          	mv	s5,a0

   19ac8:	00a00593          	li	a1,10

   19acc:	000a8513          	mv	a0,s5

   19ad0:	00613c23          	sd	t1,24(sp)

   19ad4:	028080ef          	jal	ra,21afc <__moddi3>

   19ad8:	0305051b          	addiw	a0,a0,48

   19adc:	feac8fa3          	sb	a0,-1(s9)

   19ae0:	00a00593          	li	a1,10

   19ae4:	000a8513          	mv	a0,s5

   19ae8:	791070ef          	jal	ra,21a78 <__divdi3>

   19aec:	06300793          	li	a5,99

   19af0:	fffc8613          	addi	a2,s9,-1

   19af4:	0005051b          	sext.w	a0,a0

   19af8:	01813303          	ld	t1,24(sp)

   19afc:	fd57c2e3          	blt	a5,s5,19ac0 <_svfprintf_r+0xcc4>

   19b00:	0305079b          	addiw	a5,a0,48

   19b04:	0ff7f793          	andi	a5,a5,255

   19b08:	ffec8693          	addi	a3,s9,-2

   19b0c:	fef60fa3          	sb	a5,-1(a2)

   19b10:	0086e463          	bltu	a3,s0,19b18 <_svfprintf_r+0xd1c>

   19b14:	18d0106f          	j	1b4a0 <_svfprintf_r+0x26a4>

   19b18:	0f210613          	addi	a2,sp,242

   19b1c:	0080006f          	j	19b24 <_svfprintf_r+0xd28>

   19b20:	0006c783          	lbu	a5,0(a3)

   19b24:	00160613          	addi	a2,a2,1

   19b28:	00168693          	addi	a3,a3,1

   19b2c:	fef60fa3          	sb	a5,-1(a2)

   19b30:	fe8698e3          	bne	a3,s0,19b20 <_svfprintf_r+0xd24>

   19b34:	10110793          	addi	a5,sp,257

   19b38:	419787b3          	sub	a5,a5,s9

   19b3c:	0f210713          	addi	a4,sp,242

   19b40:	00f707b3          	add	a5,a4,a5

   19b44:	0f010693          	addi	a3,sp,240

   19b48:	40d787bb          	subw	a5,a5,a3

   19b4c:	08f13823          	sd	a5,144(sp)

   19b50:	09013783          	ld	a5,144(sp)

   19b54:	02813703          	ld	a4,40(sp)

   19b58:	00100693          	li	a3,1

   19b5c:	00f70cbb          	addw	s9,a4,a5

   19b60:	000c8793          	mv	a5,s9

   19b64:	00e6c463          	blt	a3,a4,19b6c <_svfprintf_r+0xd70>

   19b68:	0bd0106f          	j	1b424 <_svfprintf_r+0x2628>

   19b6c:	07813703          	ld	a4,120(sp)

   19b70:	00e78cbb          	addw	s9,a5,a4

   19b74:	0b013783          	ld	a5,176(sp)

   19b78:	fffcca93          	not	s5,s9

   19b7c:	43fada93          	srai	s5,s5,0x3f

   19b80:	bff7f413          	andi	s0,a5,-1025

   19b84:	0004041b          	sext.w	s0,s0

   19b88:	015cfab3          	and	s5,s9,s5

   19b8c:	10046413          	ori	s0,s0,256

   19b90:	000a8a9b          	sext.w	s5,s5

   19b94:	04013c23          	sd	zero,88(sp)

   19b98:	06013423          	sd	zero,104(sp)

   19b9c:	06013023          	sd	zero,96(sp)

   19ba0:	0c813783          	ld	a5,200(sp)

   19ba4:	00079463          	bnez	a5,19bac <_svfprintf_r+0xdb0>

   19ba8:	0f00106f          	j	1ac98 <_svfprintf_r+0x1e9c>

   19bac:	02d00793          	li	a5,45

   19bb0:	0cf10fa3          	sb	a5,223(sp)

   19bb4:	00000e93          	li	t4,0

   19bb8:	001a8a9b          	addiw	s5,s5,1

   19bbc:	885ff06f          	j	19440 <_svfprintf_r+0x644>

   19bc0:	00813783          	ld	a5,8(sp)

   19bc4:	00090d13          	mv	s10,s2

   19bc8:	00f73023          	sd	a5,0(a4)

   19bcc:	999ff06f          	j	19564 <_svfprintf_r+0x768>

   19bd0:	00040813          	mv	a6,s0

   19bd4:	00900713          	li	a4,9

   19bd8:	375766e3          	bltu	a4,s5,1a744 <_svfprintf_r+0x1948>

   19bdc:	030a879b          	addiw	a5,s5,48

   19be0:	18f105a3          	sb	a5,395(sp)

   19be4:	00080413          	mv	s0,a6

   19be8:	00100c93          	li	s9,1

   19bec:	18b10d13          	addi	s10,sp,395

   19bf0:	cd0ff06f          	j	190c0 <_svfprintf_r+0x2c4>

   19bf4:	0ff00793          	li	a5,255

   19bf8:	3af686e3          	beq	a3,a5,1a7a4 <_svfprintf_r+0x19a8>

   19bfc:	00900793          	li	a5,9

   19c00:	6f57e4e3          	bltu	a5,s5,1aae8 <_svfprintf_r+0x1cec>

   19c04:	41ac8cbb          	subw	s9,s9,s10

   19c08:	00080413          	mv	s0,a6

   19c0c:	cb4ff06f          	j	190c0 <_svfprintf_r+0x2c4>

   19c10:	06500693          	li	a3,101

   19c14:	9a96d8e3          	bge	a3,s1,195c4 <_svfprintf_r+0x7c8>

   19c18:	10013503          	ld	a0,256(sp)

   19c1c:	10813583          	ld	a1,264(sp)

   19c20:	00000613          	li	a2,0

   19c24:	00000693          	li	a3,0

   19c28:	02613c23          	sd	t1,56(sp)

   19c2c:	00f13c23          	sd	a5,24(sp)

   19c30:	238060ef          	jal	ra,1fe68 <__eqtf2>

   19c34:	01813783          	ld	a5,24(sp)

   19c38:	03813303          	ld	t1,56(sp)

   19c3c:	4a051063          	bnez	a0,1a0dc <_svfprintf_r+0x12e0>

   19c40:	11812703          	lw	a4,280(sp)

   19c44:	00008697          	auipc	a3,0x8

   19c48:	22468693          	addi	a3,a3,548 # 21e68 <zeroes.4541+0x98>

   19c4c:	00178793          	addi	a5,a5,1

   19c50:	0017071b          	addiw	a4,a4,1

   19c54:	00d33023          	sd	a3,0(t1)

   19c58:	00100693          	li	a3,1

   19c5c:	00d33423          	sd	a3,8(t1)

   19c60:	12f13023          	sd	a5,288(sp)

   19c64:	0007069b          	sext.w	a3,a4

   19c68:	10e12c23          	sw	a4,280(sp)

   19c6c:	00700793          	li	a5,7

   19c70:	01030313          	addi	t1,t1,16

   19c74:	36d7c2e3          	blt	a5,a3,1a7d8 <_svfprintf_r+0x19dc>

   19c78:	0e812783          	lw	a5,232(sp)

   19c7c:	02813703          	ld	a4,40(sp)

   19c80:	00e7ca63          	blt	a5,a4,19c94 <_svfprintf_r+0xe98>

   19c84:	00147793          	andi	a5,s0,1

   19c88:	00079663          	bnez	a5,19c94 <_svfprintf_r+0xe98>

   19c8c:	12013783          	ld	a5,288(sp)

   19c90:	889ff06f          	j	19518 <_svfprintf_r+0x71c>

   19c94:	08013783          	ld	a5,128(sp)

   19c98:	07813683          	ld	a3,120(sp)

   19c9c:	11812703          	lw	a4,280(sp)

   19ca0:	00f33023          	sd	a5,0(t1)

   19ca4:	12013783          	ld	a5,288(sp)

   19ca8:	0017071b          	addiw	a4,a4,1

   19cac:	00d33423          	sd	a3,8(t1)

   19cb0:	00f687b3          	add	a5,a3,a5

   19cb4:	10e12c23          	sw	a4,280(sp)

   19cb8:	0007069b          	sext.w	a3,a4

   19cbc:	12f13023          	sd	a5,288(sp)

   19cc0:	00700713          	li	a4,7

   19cc4:	01030313          	addi	t1,t1,16

   19cc8:	6cd74a63          	blt	a4,a3,1a39c <_svfprintf_r+0x15a0>

   19ccc:	02813703          	ld	a4,40(sp)

   19cd0:	fff7049b          	addiw	s1,a4,-1

   19cd4:	849052e3          	blez	s1,19518 <_svfprintf_r+0x71c>

   19cd8:	11812703          	lw	a4,280(sp)

   19cdc:	309ddee3          	bge	s11,s1,1a7f8 <_svfprintf_r+0x19fc>

   19ce0:	00700c93          	li	s9,7

   19ce4:	00c0006f          	j	19cf0 <_svfprintf_r+0xef4>

   19ce8:	ff04849b          	addiw	s1,s1,-16

   19cec:	309dd6e3          	bge	s11,s1,1a7f8 <_svfprintf_r+0x19fc>

   19cf0:	0017071b          	addiw	a4,a4,1

   19cf4:	01078793          	addi	a5,a5,16

   19cf8:	01333023          	sd	s3,0(t1)

   19cfc:	01b33423          	sd	s11,8(t1)

   19d00:	12f13023          	sd	a5,288(sp)

   19d04:	10e12c23          	sw	a4,280(sp)

   19d08:	01030313          	addi	t1,t1,16

   19d0c:	fcecdee3          	bge	s9,a4,19ce8 <_svfprintf_r+0xeec>

   19d10:	11010613          	addi	a2,sp,272

   19d14:	000c0593          	mv	a1,s8

   19d18:	000b0513          	mv	a0,s6

   19d1c:	755030ef          	jal	ra,1dc70 <__ssprint_r>

   19d20:	aa051c63          	bnez	a0,18fd8 <_svfprintf_r+0x1dc>

   19d24:	12013783          	ld	a5,288(sp)

   19d28:	11812703          	lw	a4,280(sp)

   19d2c:	000b8313          	mv	t1,s7

   19d30:	fb9ff06f          	j	19ce8 <_svfprintf_r+0xeec>

   19d34:	415a083b          	subw	a6,s4,s5

   19d38:	fb005463          	blez	a6,194e0 <_svfprintf_r+0x6e4>

   19d3c:	11812683          	lw	a3,280(sp)

   19d40:	070dd863          	bge	s11,a6,19db0 <_svfprintf_r+0xfb4>

   19d44:	00700893          	li	a7,7

   19d48:	00c0006f          	j	19d54 <_svfprintf_r+0xf58>

   19d4c:	ff08081b          	addiw	a6,a6,-16

   19d50:	070dd063          	bge	s11,a6,19db0 <_svfprintf_r+0xfb4>

   19d54:	0016869b          	addiw	a3,a3,1

   19d58:	01078793          	addi	a5,a5,16

   19d5c:	01333023          	sd	s3,0(t1)

   19d60:	01b33423          	sd	s11,8(t1)

   19d64:	12f13023          	sd	a5,288(sp)

   19d68:	10d12c23          	sw	a3,280(sp)

   19d6c:	01030313          	addi	t1,t1,16

   19d70:	fcd8dee3          	bge	a7,a3,19d4c <_svfprintf_r+0xf50>

   19d74:	11010613          	addi	a2,sp,272

   19d78:	000c0593          	mv	a1,s8

   19d7c:	000b0513          	mv	a0,s6

   19d80:	03013c23          	sd	a6,56(sp)

   19d84:	01d13c23          	sd	t4,24(sp)

   19d88:	6e9030ef          	jal	ra,1dc70 <__ssprint_r>

   19d8c:	a4051663          	bnez	a0,18fd8 <_svfprintf_r+0x1dc>

   19d90:	03813803          	ld	a6,56(sp)

   19d94:	12013783          	ld	a5,288(sp)

   19d98:	11812683          	lw	a3,280(sp)

   19d9c:	ff08081b          	addiw	a6,a6,-16

   19da0:	000b8313          	mv	t1,s7

   19da4:	00700893          	li	a7,7

   19da8:	01813e83          	ld	t4,24(sp)

   19dac:	fb0dc4e3          	blt	s11,a6,19d54 <_svfprintf_r+0xf58>

   19db0:	0016861b          	addiw	a2,a3,1

   19db4:	010787b3          	add	a5,a5,a6

   19db8:	01333023          	sd	s3,0(t1)

   19dbc:	01033423          	sd	a6,8(t1)

   19dc0:	12f13023          	sd	a5,288(sp)

   19dc4:	10c12c23          	sw	a2,280(sp)

   19dc8:	00700693          	li	a3,7

   19dcc:	01030313          	addi	t1,t1,16

   19dd0:	f0c6d863          	bge	a3,a2,194e0 <_svfprintf_r+0x6e4>

   19dd4:	11010613          	addi	a2,sp,272

   19dd8:	000c0593          	mv	a1,s8

   19ddc:	000b0513          	mv	a0,s6

   19de0:	01d13c23          	sd	t4,24(sp)

   19de4:	68d030ef          	jal	ra,1dc70 <__ssprint_r>

   19de8:	9e051863          	bnez	a0,18fd8 <_svfprintf_r+0x1dc>

   19dec:	01813e83          	ld	t4,24(sp)

   19df0:	12013783          	ld	a5,288(sp)

   19df4:	000b8313          	mv	t1,s7

   19df8:	419e8ebb          	subw	t4,t4,s9

   19dfc:	efd05663          	blez	t4,194e8 <_svfprintf_r+0x6ec>

   19e00:	11812683          	lw	a3,280(sp)

   19e04:	07ddd463          	bge	s11,t4,19e6c <_svfprintf_r+0x1070>

   19e08:	00700813          	li	a6,7

   19e0c:	00c0006f          	j	19e18 <_svfprintf_r+0x101c>

   19e10:	ff0e8e9b          	addiw	t4,t4,-16

   19e14:	05dddc63          	bge	s11,t4,19e6c <_svfprintf_r+0x1070>

   19e18:	0016869b          	addiw	a3,a3,1

   19e1c:	01078793          	addi	a5,a5,16

   19e20:	01333023          	sd	s3,0(t1)

   19e24:	01b33423          	sd	s11,8(t1)

   19e28:	12f13023          	sd	a5,288(sp)

   19e2c:	10d12c23          	sw	a3,280(sp)

   19e30:	01030313          	addi	t1,t1,16

   19e34:	fcd85ee3          	bge	a6,a3,19e10 <_svfprintf_r+0x1014>

   19e38:	11010613          	addi	a2,sp,272

   19e3c:	000c0593          	mv	a1,s8

   19e40:	000b0513          	mv	a0,s6

   19e44:	01d13c23          	sd	t4,24(sp)

   19e48:	629030ef          	jal	ra,1dc70 <__ssprint_r>

   19e4c:	98051663          	bnez	a0,18fd8 <_svfprintf_r+0x1dc>

   19e50:	01813e83          	ld	t4,24(sp)

   19e54:	12013783          	ld	a5,288(sp)

   19e58:	11812683          	lw	a3,280(sp)

   19e5c:	ff0e8e9b          	addiw	t4,t4,-16

   19e60:	000b8313          	mv	t1,s7

   19e64:	00700813          	li	a6,7

   19e68:	fbddc8e3          	blt	s11,t4,19e18 <_svfprintf_r+0x101c>

   19e6c:	0016861b          	addiw	a2,a3,1

   19e70:	01d787b3          	add	a5,a5,t4

   19e74:	01333023          	sd	s3,0(t1)

   19e78:	01d33423          	sd	t4,8(t1)

   19e7c:	12f13023          	sd	a5,288(sp)

   19e80:	10c12c23          	sw	a2,280(sp)

   19e84:	00700693          	li	a3,7

   19e88:	01030313          	addi	t1,t1,16

   19e8c:	e4c6de63          	bge	a3,a2,194e8 <_svfprintf_r+0x6ec>

   19e90:	11010613          	addi	a2,sp,272

   19e94:	000c0593          	mv	a1,s8

   19e98:	000b0513          	mv	a0,s6

   19e9c:	5d5030ef          	jal	ra,1dc70 <__ssprint_r>

   19ea0:	92051c63          	bnez	a0,18fd8 <_svfprintf_r+0x1dc>

   19ea4:	12013783          	ld	a5,288(sp)

   19ea8:	000b8313          	mv	t1,s7

   19eac:	e3cff06f          	j	194e8 <_svfprintf_r+0x6ec>

   19eb0:	00040813          	mv	a6,s0

   19eb4:	cf4ff06f          	j	193a8 <_svfprintf_r+0x5ac>

   19eb8:	11812683          	lw	a3,280(sp)

   19ebc:	00008897          	auipc	a7,0x8

   19ec0:	50488893          	addi	a7,a7,1284 # 223c0 <blanks.4525>

   19ec4:	00700293          	li	t0,7

   19ec8:	010dc863          	blt	s11,a6,19ed8 <_svfprintf_r+0x10dc>

   19ecc:	0800006f          	j	19f4c <_svfprintf_r+0x1150>

   19ed0:	ff08081b          	addiw	a6,a6,-16

   19ed4:	070ddc63          	bge	s11,a6,19f4c <_svfprintf_r+0x1150>

   19ed8:	0016869b          	addiw	a3,a3,1

   19edc:	01078793          	addi	a5,a5,16

   19ee0:	01133023          	sd	a7,0(t1)

   19ee4:	01b33423          	sd	s11,8(t1)

   19ee8:	12f13023          	sd	a5,288(sp)

   19eec:	10d12c23          	sw	a3,280(sp)

   19ef0:	01030313          	addi	t1,t1,16

   19ef4:	fcd2dee3          	bge	t0,a3,19ed0 <_svfprintf_r+0x10d4>

   19ef8:	11010613          	addi	a2,sp,272

   19efc:	000c0593          	mv	a1,s8

   19f00:	000b0513          	mv	a0,s6

   19f04:	05113823          	sd	a7,80(sp)

   19f08:	05013423          	sd	a6,72(sp)

   19f0c:	05d13023          	sd	t4,64(sp)

   19f10:	03f13c23          	sd	t6,56(sp)

   19f14:	01e13c23          	sd	t5,24(sp)

   19f18:	559030ef          	jal	ra,1dc70 <__ssprint_r>

   19f1c:	8a051e63          	bnez	a0,18fd8 <_svfprintf_r+0x1dc>

   19f20:	04813803          	ld	a6,72(sp)

   19f24:	12013783          	ld	a5,288(sp)

   19f28:	11812683          	lw	a3,280(sp)

   19f2c:	ff08081b          	addiw	a6,a6,-16

   19f30:	000b8313          	mv	t1,s7

   19f34:	05013883          	ld	a7,80(sp)

   19f38:	00700293          	li	t0,7

   19f3c:	04013e83          	ld	t4,64(sp)

   19f40:	03813f83          	ld	t6,56(sp)

   19f44:	01813f03          	ld	t5,24(sp)

   19f48:	f90dc8e3          	blt	s11,a6,19ed8 <_svfprintf_r+0x10dc>

   19f4c:	0016861b          	addiw	a2,a3,1

   19f50:	010787b3          	add	a5,a5,a6

   19f54:	01133023          	sd	a7,0(t1)

   19f58:	01033423          	sd	a6,8(t1)

   19f5c:	12f13023          	sd	a5,288(sp)

   19f60:	10c12c23          	sw	a2,280(sp)

   19f64:	00700693          	li	a3,7

   19f68:	01030313          	addi	t1,t1,16

   19f6c:	cec6dc63          	bge	a3,a2,19464 <_svfprintf_r+0x668>

   19f70:	11010613          	addi	a2,sp,272

   19f74:	000c0593          	mv	a1,s8

   19f78:	000b0513          	mv	a0,s6

   19f7c:	05d13023          	sd	t4,64(sp)

   19f80:	03f13c23          	sd	t6,56(sp)

   19f84:	01e13c23          	sd	t5,24(sp)

   19f88:	4e9030ef          	jal	ra,1dc70 <__ssprint_r>

   19f8c:	00050463          	beqz	a0,19f94 <_svfprintf_r+0x1198>

   19f90:	848ff06f          	j	18fd8 <_svfprintf_r+0x1dc>

   19f94:	12013783          	ld	a5,288(sp)

   19f98:	000b8313          	mv	t1,s7

   19f9c:	04013e83          	ld	t4,64(sp)

   19fa0:	03813f83          	ld	t6,56(sp)

   19fa4:	01813f03          	ld	t5,24(sp)

   19fa8:	cbcff06f          	j	19464 <_svfprintf_r+0x668>

   19fac:	11010613          	addi	a2,sp,272

   19fb0:	000c0593          	mv	a1,s8

   19fb4:	000b0513          	mv	a0,s6

   19fb8:	03d13c23          	sd	t4,56(sp)

   19fbc:	01f13c23          	sd	t6,24(sp)

   19fc0:	4b1030ef          	jal	ra,1dc70 <__ssprint_r>

   19fc4:	00050463          	beqz	a0,19fcc <_svfprintf_r+0x11d0>

   19fc8:	810ff06f          	j	18fd8 <_svfprintf_r+0x1dc>

   19fcc:	12013783          	ld	a5,288(sp)

   19fd0:	000b8313          	mv	t1,s7

   19fd4:	03813e83          	ld	t4,56(sp)

   19fd8:	01813f83          	ld	t6,24(sp)

   19fdc:	cfcff06f          	j	194d8 <_svfprintf_r+0x6dc>

   19fe0:	11812703          	lw	a4,280(sp)

   19fe4:	00008897          	auipc	a7,0x8

   19fe8:	3dc88893          	addi	a7,a7,988 # 223c0 <blanks.4525>

   19fec:	00700493          	li	s1,7

   19ff0:	008dc863          	blt	s11,s0,1a000 <_svfprintf_r+0x1204>

   19ff4:	0600006f          	j	1a054 <_svfprintf_r+0x1258>

   19ff8:	ff04041b          	addiw	s0,s0,-16

   19ffc:	048ddc63          	bge	s11,s0,1a054 <_svfprintf_r+0x1258>

   1a000:	0017071b          	addiw	a4,a4,1

   1a004:	01078793          	addi	a5,a5,16

   1a008:	01133023          	sd	a7,0(t1)

   1a00c:	01b33423          	sd	s11,8(t1)

   1a010:	12f13023          	sd	a5,288(sp)

   1a014:	10e12c23          	sw	a4,280(sp)

   1a018:	01030313          	addi	t1,t1,16

   1a01c:	fce4dee3          	bge	s1,a4,19ff8 <_svfprintf_r+0x11fc>

   1a020:	11010613          	addi	a2,sp,272

   1a024:	000c0593          	mv	a1,s8

   1a028:	000b0513          	mv	a0,s6

   1a02c:	01113c23          	sd	a7,24(sp)

   1a030:	441030ef          	jal	ra,1dc70 <__ssprint_r>

   1a034:	00050463          	beqz	a0,1a03c <_svfprintf_r+0x1240>

   1a038:	fa1fe06f          	j	18fd8 <_svfprintf_r+0x1dc>

   1a03c:	ff04041b          	addiw	s0,s0,-16

   1a040:	12013783          	ld	a5,288(sp)

   1a044:	11812703          	lw	a4,280(sp)

   1a048:	000b8313          	mv	t1,s7

   1a04c:	01813883          	ld	a7,24(sp)

   1a050:	fa8dc8e3          	blt	s11,s0,1a000 <_svfprintf_r+0x1204>

   1a054:	0017069b          	addiw	a3,a4,1

   1a058:	008787b3          	add	a5,a5,s0

   1a05c:	01133023          	sd	a7,0(t1)

   1a060:	00833423          	sd	s0,8(t1)

   1a064:	12f13023          	sd	a5,288(sp)

   1a068:	10d12c23          	sw	a3,280(sp)

   1a06c:	00700713          	li	a4,7

   1a070:	cad75c63          	bge	a4,a3,19528 <_svfprintf_r+0x72c>

   1a074:	11010613          	addi	a2,sp,272

   1a078:	000c0593          	mv	a1,s8

   1a07c:	000b0513          	mv	a0,s6

   1a080:	3f1030ef          	jal	ra,1dc70 <__ssprint_r>

   1a084:	00050463          	beqz	a0,1a08c <_svfprintf_r+0x1290>

   1a088:	f51fe06f          	j	18fd8 <_svfprintf_r+0x1dc>

   1a08c:	12013783          	ld	a5,288(sp)

   1a090:	c98ff06f          	j	19528 <_svfprintf_r+0x72c>

   1a094:	00100693          	li	a3,1

   1a098:	36d706e3          	beq	a4,a3,1ac04 <_svfprintf_r+0x1e08>

   1a09c:	00200693          	li	a3,2

   1a0a0:	00040813          	mv	a6,s0

   1a0a4:	b0d71a63          	bne	a4,a3,193b8 <_svfprintf_r+0x5bc>

   1a0a8:	18c10c93          	addi	s9,sp,396

   1a0ac:	000c8d13          	mv	s10,s9

   1a0b0:	03013783          	ld	a5,48(sp)

   1a0b4:	00faf693          	andi	a3,s5,15

   1a0b8:	fffd0d13          	addi	s10,s10,-1

   1a0bc:	00d786b3          	add	a3,a5,a3

   1a0c0:	0006c683          	lbu	a3,0(a3)

   1a0c4:	004ada93          	srli	s5,s5,0x4

   1a0c8:	00dd0023          	sb	a3,0(s10)

   1a0cc:	fe0a92e3          	bnez	s5,1a0b0 <_svfprintf_r+0x12b4>

   1a0d0:	41ac8cbb          	subw	s9,s9,s10

   1a0d4:	00080413          	mv	s0,a6

   1a0d8:	fe9fe06f          	j	190c0 <_svfprintf_r+0x2c4>

   1a0dc:	0e812583          	lw	a1,232(sp)

   1a0e0:	58b05863          	blez	a1,1a670 <_svfprintf_r+0x1874>

   1a0e4:	02813703          	ld	a4,40(sp)

   1a0e8:	06013683          	ld	a3,96(sp)

   1a0ec:	0007049b          	sext.w	s1,a4

   1a0f0:	2ae6c063          	blt	a3,a4,1a390 <_svfprintf_r+0x1594>

   1a0f4:	02905663          	blez	s1,1a120 <_svfprintf_r+0x1324>

   1a0f8:	11812683          	lw	a3,280(sp)

   1a0fc:	009787b3          	add	a5,a5,s1

   1a100:	01a33023          	sd	s10,0(t1)

   1a104:	0016861b          	addiw	a2,a3,1

   1a108:	00933423          	sd	s1,8(t1)

   1a10c:	12f13023          	sd	a5,288(sp)

   1a110:	10c12c23          	sw	a2,280(sp)

   1a114:	00700693          	li	a3,7

   1a118:	01030313          	addi	t1,t1,16

   1a11c:	1ac6c4e3          	blt	a3,a2,1aac4 <_svfprintf_r+0x1cc8>

   1a120:	fff4c693          	not	a3,s1

   1a124:	06013703          	ld	a4,96(sp)

   1a128:	43f6d693          	srai	a3,a3,0x3f

   1a12c:	00d4f4b3          	and	s1,s1,a3

   1a130:	409704bb          	subw	s1,a4,s1

   1a134:	30904063          	bgtz	s1,1a434 <_svfprintf_r+0x1638>

   1a138:	06013703          	ld	a4,96(sp)

   1a13c:	40047693          	andi	a3,s0,1024

   1a140:	00ed04b3          	add	s1,s10,a4

   1a144:	34069863          	bnez	a3,1a494 <_svfprintf_r+0x1698>

   1a148:	0e812683          	lw	a3,232(sp)

   1a14c:	02813703          	ld	a4,40(sp)

   1a150:	00e6c663          	blt	a3,a4,1a15c <_svfprintf_r+0x1360>

   1a154:	00147613          	andi	a2,s0,1

   1a158:	1e060ae3          	beqz	a2,1ab4c <_svfprintf_r+0x1d50>

   1a15c:	08013603          	ld	a2,128(sp)

   1a160:	07813703          	ld	a4,120(sp)

   1a164:	01030313          	addi	t1,t1,16

   1a168:	fec33823          	sd	a2,-16(t1)

   1a16c:	11812603          	lw	a2,280(sp)

   1a170:	00e787b3          	add	a5,a5,a4

   1a174:	fee33c23          	sd	a4,-8(t1)

   1a178:	0016059b          	addiw	a1,a2,1

   1a17c:	12f13023          	sd	a5,288(sp)

   1a180:	10b12c23          	sw	a1,280(sp)

   1a184:	00700613          	li	a2,7

   1a188:	40b64ae3          	blt	a2,a1,1ad9c <_svfprintf_r+0x1fa0>

   1a18c:	02813703          	ld	a4,40(sp)

   1a190:	40d706bb          	subw	a3,a4,a3

   1a194:	00ed0733          	add	a4,s10,a4

   1a198:	4097063b          	subw	a2,a4,s1

   1a19c:	0006871b          	sext.w	a4,a3

   1a1a0:	00e65463          	bge	a2,a4,1a1a8 <_svfprintf_r+0x13ac>

   1a1a4:	00060693          	mv	a3,a2

   1a1a8:	00068c9b          	sext.w	s9,a3

   1a1ac:	03905663          	blez	s9,1a1d8 <_svfprintf_r+0x13dc>

   1a1b0:	11812683          	lw	a3,280(sp)

   1a1b4:	019787b3          	add	a5,a5,s9

   1a1b8:	00933023          	sd	s1,0(t1)

   1a1bc:	0016861b          	addiw	a2,a3,1

   1a1c0:	01933423          	sd	s9,8(t1)

   1a1c4:	12f13023          	sd	a5,288(sp)

   1a1c8:	10c12c23          	sw	a2,280(sp)

   1a1cc:	00700693          	li	a3,7

   1a1d0:	01030313          	addi	t1,t1,16

   1a1d4:	44c6cee3          	blt	a3,a2,1ae30 <_svfprintf_r+0x2034>

   1a1d8:	fffcc493          	not	s1,s9

   1a1dc:	43f4d493          	srai	s1,s1,0x3f

   1a1e0:	009cf4b3          	and	s1,s9,s1

   1a1e4:	409704bb          	subw	s1,a4,s1

   1a1e8:	b2905863          	blez	s1,19518 <_svfprintf_r+0x71c>

   1a1ec:	11812703          	lw	a4,280(sp)

   1a1f0:	609dd463          	bge	s11,s1,1a7f8 <_svfprintf_r+0x19fc>

   1a1f4:	00700c93          	li	s9,7

   1a1f8:	00c0006f          	j	1a204 <_svfprintf_r+0x1408>

   1a1fc:	ff04849b          	addiw	s1,s1,-16

   1a200:	5e9ddc63          	bge	s11,s1,1a7f8 <_svfprintf_r+0x19fc>

   1a204:	0017071b          	addiw	a4,a4,1

   1a208:	01078793          	addi	a5,a5,16

   1a20c:	01333023          	sd	s3,0(t1)

   1a210:	01b33423          	sd	s11,8(t1)

   1a214:	12f13023          	sd	a5,288(sp)

   1a218:	10e12c23          	sw	a4,280(sp)

   1a21c:	01030313          	addi	t1,t1,16

   1a220:	fcecdee3          	bge	s9,a4,1a1fc <_svfprintf_r+0x1400>

   1a224:	11010613          	addi	a2,sp,272

   1a228:	000c0593          	mv	a1,s8

   1a22c:	000b0513          	mv	a0,s6

   1a230:	241030ef          	jal	ra,1dc70 <__ssprint_r>

   1a234:	00050463          	beqz	a0,1a23c <_svfprintf_r+0x1440>

   1a238:	da1fe06f          	j	18fd8 <_svfprintf_r+0x1dc>

   1a23c:	12013783          	ld	a5,288(sp)

   1a240:	11812703          	lw	a4,280(sp)

   1a244:	000b8313          	mv	t1,s7

   1a248:	fb5ff06f          	j	1a1fc <_svfprintf_r+0x1400>

   1a24c:	00147593          	andi	a1,s0,1

   1a250:	b8059c63          	bnez	a1,195e8 <_svfprintf_r+0x7ec>

   1a254:	00c33423          	sd	a2,8(t1)

   1a258:	13913023          	sd	s9,288(sp)

   1a25c:	10f12c23          	sw	a5,280(sp)

   1a260:	00700713          	li	a4,7

   1a264:	3cf74e63          	blt	a4,a5,1a640 <_svfprintf_r+0x1844>

   1a268:	002e8e9b          	addiw	t4,t4,2

   1a26c:	02030313          	addi	t1,t1,32

   1a270:	c48ff06f          	j	196b8 <_svfprintf_r+0x8bc>

   1a274:	c5005263          	blez	a6,196b8 <_svfprintf_r+0x8bc>

   1a278:	010dc463          	blt	s11,a6,1a280 <_svfprintf_r+0x1484>

   1a27c:	1f80106f          	j	1b474 <_svfprintf_r+0x2678>

   1a280:	00700d13          	li	s10,7

   1a284:	0100006f          	j	1a294 <_svfprintf_r+0x1498>

   1a288:	ff08081b          	addiw	a6,a6,-16

   1a28c:	710ddc63          	bge	s11,a6,1a9a4 <_svfprintf_r+0x1ba8>

   1a290:	0017889b          	addiw	a7,a5,1

   1a294:	010c8c93          	addi	s9,s9,16

   1a298:	0134b023          	sd	s3,0(s1)

   1a29c:	01b4b423          	sd	s11,8(s1)

   1a2a0:	13913023          	sd	s9,288(sp)

   1a2a4:	0008879b          	sext.w	a5,a7

   1a2a8:	11112c23          	sw	a7,280(sp)

   1a2ac:	01048493          	addi	s1,s1,16

   1a2b0:	fcfd5ce3          	bge	s10,a5,1a288 <_svfprintf_r+0x148c>

   1a2b4:	11010613          	addi	a2,sp,272

   1a2b8:	000c0593          	mv	a1,s8

   1a2bc:	000b0513          	mv	a0,s6

   1a2c0:	01013c23          	sd	a6,24(sp)

   1a2c4:	1ad030ef          	jal	ra,1dc70 <__ssprint_r>

   1a2c8:	00050463          	beqz	a0,1a2d0 <_svfprintf_r+0x14d4>

   1a2cc:	d0dfe06f          	j	18fd8 <_svfprintf_r+0x1dc>

   1a2d0:	12013c83          	ld	s9,288(sp)

   1a2d4:	11812783          	lw	a5,280(sp)

   1a2d8:	000b8493          	mv	s1,s7

   1a2dc:	01813803          	ld	a6,24(sp)

   1a2e0:	fa9ff06f          	j	1a288 <_svfprintf_r+0x148c>

   1a2e4:	000d0493          	mv	s1,s10

   1a2e8:	c4dfe06f          	j	18f34 <_svfprintf_r+0x138>

   1a2ec:	11010613          	addi	a2,sp,272

   1a2f0:	000c0593          	mv	a1,s8

   1a2f4:	000b0513          	mv	a0,s6

   1a2f8:	179030ef          	jal	ra,1dc70 <__ssprint_r>

   1a2fc:	00050463          	beqz	a0,1a304 <_svfprintf_r+0x1508>

   1a300:	cd9fe06f          	j	18fd8 <_svfprintf_r+0x1dc>

   1a304:	12013c83          	ld	s9,288(sp)

   1a308:	11812783          	lw	a5,280(sp)

   1a30c:	000b8493          	mv	s1,s7

   1a310:	af0ff06f          	j	19600 <_svfprintf_r+0x804>

   1a314:	11010613          	addi	a2,sp,272

   1a318:	000c0593          	mv	a1,s8

   1a31c:	000b0513          	mv	a0,s6

   1a320:	151030ef          	jal	ra,1dc70 <__ssprint_r>

   1a324:	00050463          	beqz	a0,1a32c <_svfprintf_r+0x1530>

   1a328:	cb1fe06f          	j	18fd8 <_svfprintf_r+0x1dc>

   1a32c:	12013c83          	ld	s9,288(sp)

   1a330:	11812783          	lw	a5,280(sp)

   1a334:	000b8493          	mv	s1,s7

   1a338:	af8ff06f          	j	19630 <_svfprintf_r+0x834>

   1a33c:	03000793          	li	a5,48

   1a340:	18f105a3          	sb	a5,395(sp)

   1a344:	18b10d13          	addi	s10,sp,395

   1a348:	d79fe06f          	j	190c0 <_svfprintf_r+0x2c4>

   1a34c:	00040813          	mv	a6,s0

   1a350:	82cff06f          	j	1937c <_svfprintf_r+0x580>

   1a354:	01013783          	ld	a5,16(sp)

   1a358:	00f78793          	addi	a5,a5,15

   1a35c:	ff07f793          	andi	a5,a5,-16

   1a360:	0007b603          	ld	a2,0(a5)

   1a364:	0087b683          	ld	a3,8(a5)

   1a368:	01078793          	addi	a5,a5,16

   1a36c:	00f13823          	sd	a5,16(sp)

   1a370:	10c13023          	sd	a2,256(sp)

   1a374:	10d13423          	sd	a3,264(sp)

   1a378:	da0ff06f          	j	19918 <_svfprintf_r+0xb1c>

   1a37c:	00040813          	mv	a6,s0

   1a380:	e7dfe06f          	j	191fc <_svfprintf_r+0x400>

   1a384:	01013783          	ld	a5,16(sp)

   1a388:	0007ba83          	ld	s5,0(a5)

   1a38c:	cd1fe06f          	j	1905c <_svfprintf_r+0x260>

   1a390:	0006849b          	sext.w	s1,a3

   1a394:	d69042e3          	bgtz	s1,1a0f8 <_svfprintf_r+0x12fc>

   1a398:	d89ff06f          	j	1a120 <_svfprintf_r+0x1324>

   1a39c:	11010613          	addi	a2,sp,272

   1a3a0:	000c0593          	mv	a1,s8

   1a3a4:	000b0513          	mv	a0,s6

   1a3a8:	0c9030ef          	jal	ra,1dc70 <__ssprint_r>

   1a3ac:	00050463          	beqz	a0,1a3b4 <_svfprintf_r+0x15b8>

   1a3b0:	c29fe06f          	j	18fd8 <_svfprintf_r+0x1dc>

   1a3b4:	12013783          	ld	a5,288(sp)

   1a3b8:	000b8313          	mv	t1,s7

   1a3bc:	911ff06f          	j	19ccc <_svfprintf_r+0xed0>

   1a3c0:	20046413          	ori	s0,s0,512

   1a3c4:	00194483          	lbu	s1,1(s2)

   1a3c8:	0004041b          	sext.w	s0,s0

   1a3cc:	00190913          	addi	s2,s2,1

   1a3d0:	b85fe06f          	j	18f54 <_svfprintf_r+0x158>

   1a3d4:	02046413          	ori	s0,s0,32

   1a3d8:	00194483          	lbu	s1,1(s2)

   1a3dc:	0004041b          	sext.w	s0,s0

   1a3e0:	00190913          	addi	s2,s2,1

   1a3e4:	b71fe06f          	j	18f54 <_svfprintf_r+0x158>

   1a3e8:	04000593          	li	a1,64

   1a3ec:	000b0513          	mv	a0,s6

   1a3f0:	fccfc0ef          	jal	ra,16bbc <_malloc_r>

   1a3f4:	00ac3023          	sd	a0,0(s8)

   1a3f8:	00ac3c23          	sd	a0,24(s8)

   1a3fc:	00051463          	bnez	a0,1a404 <_svfprintf_r+0x1608>

   1a400:	0cc0106f          	j	1b4cc <_svfprintf_r+0x26d0>

   1a404:	04000793          	li	a5,64

   1a408:	02fc2023          	sw	a5,32(s8)

   1a40c:	a71fe06f          	j	18e7c <_svfprintf_r+0x80>

   1a410:	000e871b          	sext.w	a4,t4

   1a414:	00600793          	li	a5,6

   1a418:	72e7e663          	bltu	a5,a4,1ab44 <_svfprintf_r+0x1d48>

   1a41c:	000e8c9b          	sext.w	s9,t4

   1a420:	000c8a93          	mv	s5,s9

   1a424:	00d13823          	sd	a3,16(sp)

   1a428:	00008d17          	auipc	s10,0x8

   1a42c:	a38d0d13          	addi	s10,s10,-1480 # 21e60 <zeroes.4541+0x90>

   1a430:	ffdfe06f          	j	1942c <_svfprintf_r+0x630>

   1a434:	11812683          	lw	a3,280(sp)

   1a438:	629ddc63          	bge	s11,s1,1aa70 <_svfprintf_r+0x1c74>

   1a43c:	00700c93          	li	s9,7

   1a440:	00c0006f          	j	1a44c <_svfprintf_r+0x1650>

   1a444:	ff04849b          	addiw	s1,s1,-16

   1a448:	629dd463          	bge	s11,s1,1aa70 <_svfprintf_r+0x1c74>

   1a44c:	0016869b          	addiw	a3,a3,1

   1a450:	01078793          	addi	a5,a5,16

   1a454:	01333023          	sd	s3,0(t1)

   1a458:	01b33423          	sd	s11,8(t1)

   1a45c:	12f13023          	sd	a5,288(sp)

   1a460:	10d12c23          	sw	a3,280(sp)

   1a464:	01030313          	addi	t1,t1,16

   1a468:	fcdcdee3          	bge	s9,a3,1a444 <_svfprintf_r+0x1648>

   1a46c:	11010613          	addi	a2,sp,272

   1a470:	000c0593          	mv	a1,s8

   1a474:	000b0513          	mv	a0,s6

   1a478:	7f8030ef          	jal	ra,1dc70 <__ssprint_r>

   1a47c:	00050463          	beqz	a0,1a484 <_svfprintf_r+0x1688>

   1a480:	b59fe06f          	j	18fd8 <_svfprintf_r+0x1dc>

   1a484:	12013783          	ld	a5,288(sp)

   1a488:	11812683          	lw	a3,280(sp)

   1a48c:	000b8313          	mv	t1,s7

   1a490:	fb5ff06f          	j	1a444 <_svfprintf_r+0x1648>

   1a494:	02813703          	ld	a4,40(sp)

   1a498:	00700813          	li	a6,7

   1a49c:	00ed0733          	add	a4,s10,a4

   1a4a0:	00e13c23          	sd	a4,24(sp)

   1a4a4:	06813703          	ld	a4,104(sp)

   1a4a8:	0c070263          	beqz	a4,1a56c <_svfprintf_r+0x1770>

   1a4ac:	05813703          	ld	a4,88(sp)

   1a4b0:	0c071263          	bnez	a4,1a574 <_svfprintf_r+0x1778>

   1a4b4:	07013703          	ld	a4,112(sp)

   1a4b8:	fff70713          	addi	a4,a4,-1

   1a4bc:	06e13823          	sd	a4,112(sp)

   1a4c0:	06813703          	ld	a4,104(sp)

   1a4c4:	fff7071b          	addiw	a4,a4,-1

   1a4c8:	06e13423          	sd	a4,104(sp)

   1a4cc:	09813683          	ld	a3,152(sp)

   1a4d0:	08813703          	ld	a4,136(sp)

   1a4d4:	01030313          	addi	t1,t1,16

   1a4d8:	fed33823          	sd	a3,-16(t1)

   1a4dc:	11812683          	lw	a3,280(sp)

   1a4e0:	00e787b3          	add	a5,a5,a4

   1a4e4:	fee33c23          	sd	a4,-8(t1)

   1a4e8:	0016861b          	addiw	a2,a3,1

   1a4ec:	12f13023          	sd	a5,288(sp)

   1a4f0:	10c12c23          	sw	a2,280(sp)

   1a4f4:	12c84263          	blt	a6,a2,1a618 <_svfprintf_r+0x181c>

   1a4f8:	07013703          	ld	a4,112(sp)

   1a4fc:	00074603          	lbu	a2,0(a4)

   1a500:	01813703          	ld	a4,24(sp)

   1a504:	00060c9b          	sext.w	s9,a2

   1a508:	409705bb          	subw	a1,a4,s1

   1a50c:	000c869b          	sext.w	a3,s9

   1a510:	0195d463          	bge	a1,s9,1a518 <_svfprintf_r+0x171c>

   1a514:	0005869b          	sext.w	a3,a1

   1a518:	02d05a63          	blez	a3,1a54c <_svfprintf_r+0x1750>

   1a51c:	11812603          	lw	a2,280(sp)

   1a520:	00d787b3          	add	a5,a5,a3

   1a524:	00933023          	sd	s1,0(t1)

   1a528:	0016059b          	addiw	a1,a2,1

   1a52c:	00d33423          	sd	a3,8(t1)

   1a530:	12f13023          	sd	a5,288(sp)

   1a534:	10b12c23          	sw	a1,280(sp)

   1a538:	2eb84463          	blt	a6,a1,1a820 <_svfprintf_r+0x1a24>

   1a53c:	07013703          	ld	a4,112(sp)

   1a540:	01030313          	addi	t1,t1,16

   1a544:	00074603          	lbu	a2,0(a4)

   1a548:	00060c9b          	sext.w	s9,a2

   1a54c:	fff6c593          	not	a1,a3

   1a550:	43f5d593          	srai	a1,a1,0x3f

   1a554:	00b6f6b3          	and	a3,a3,a1

   1a558:	40dc8cbb          	subw	s9,s9,a3

   1a55c:	03904463          	bgtz	s9,1a584 <_svfprintf_r+0x1788>

   1a560:	00c484b3          	add	s1,s1,a2

   1a564:	06813703          	ld	a4,104(sp)

   1a568:	f40712e3          	bnez	a4,1a4ac <_svfprintf_r+0x16b0>

   1a56c:	05813703          	ld	a4,88(sp)

   1a570:	68070e63          	beqz	a4,1ac0c <_svfprintf_r+0x1e10>

   1a574:	05813703          	ld	a4,88(sp)

   1a578:	fff7071b          	addiw	a4,a4,-1

   1a57c:	04e13c23          	sd	a4,88(sp)

   1a580:	f4dff06f          	j	1a4cc <_svfprintf_r+0x16d0>

   1a584:	11812683          	lw	a3,280(sp)

   1a588:	019dc863          	blt	s11,s9,1a598 <_svfprintf_r+0x179c>

   1a58c:	05c0006f          	j	1a5e8 <_svfprintf_r+0x17ec>

   1a590:	ff0c8c9b          	addiw	s9,s9,-16

   1a594:	059dda63          	bge	s11,s9,1a5e8 <_svfprintf_r+0x17ec>

   1a598:	0016869b          	addiw	a3,a3,1

   1a59c:	01078793          	addi	a5,a5,16

   1a5a0:	01333023          	sd	s3,0(t1)

   1a5a4:	01b33423          	sd	s11,8(t1)

   1a5a8:	12f13023          	sd	a5,288(sp)

   1a5ac:	10d12c23          	sw	a3,280(sp)

   1a5b0:	01030313          	addi	t1,t1,16

   1a5b4:	fcd85ee3          	bge	a6,a3,1a590 <_svfprintf_r+0x1794>

   1a5b8:	11010613          	addi	a2,sp,272

   1a5bc:	000c0593          	mv	a1,s8

   1a5c0:	000b0513          	mv	a0,s6

   1a5c4:	6ac030ef          	jal	ra,1dc70 <__ssprint_r>

   1a5c8:	00050463          	beqz	a0,1a5d0 <_svfprintf_r+0x17d4>

   1a5cc:	a0dfe06f          	j	18fd8 <_svfprintf_r+0x1dc>

   1a5d0:	ff0c8c9b          	addiw	s9,s9,-16

   1a5d4:	12013783          	ld	a5,288(sp)

   1a5d8:	11812683          	lw	a3,280(sp)

   1a5dc:	000b8313          	mv	t1,s7

   1a5e0:	00700813          	li	a6,7

   1a5e4:	fb9dcae3          	blt	s11,s9,1a598 <_svfprintf_r+0x179c>

   1a5e8:	0016861b          	addiw	a2,a3,1

   1a5ec:	019787b3          	add	a5,a5,s9

   1a5f0:	01333023          	sd	s3,0(t1)

   1a5f4:	01933423          	sd	s9,8(t1)

   1a5f8:	12f13023          	sd	a5,288(sp)

   1a5fc:	10c12c23          	sw	a2,280(sp)

   1a600:	74c84e63          	blt	a6,a2,1ad5c <_svfprintf_r+0x1f60>

   1a604:	07013703          	ld	a4,112(sp)

   1a608:	01030313          	addi	t1,t1,16

   1a60c:	00074603          	lbu	a2,0(a4)

   1a610:	00c484b3          	add	s1,s1,a2

   1a614:	f51ff06f          	j	1a564 <_svfprintf_r+0x1768>

   1a618:	11010613          	addi	a2,sp,272

   1a61c:	000c0593          	mv	a1,s8

   1a620:	000b0513          	mv	a0,s6

   1a624:	64c030ef          	jal	ra,1dc70 <__ssprint_r>

   1a628:	00050463          	beqz	a0,1a630 <_svfprintf_r+0x1834>

   1a62c:	9adfe06f          	j	18fd8 <_svfprintf_r+0x1dc>

   1a630:	12013783          	ld	a5,288(sp)

   1a634:	000b8313          	mv	t1,s7

   1a638:	00700813          	li	a6,7

   1a63c:	ebdff06f          	j	1a4f8 <_svfprintf_r+0x16fc>

   1a640:	11010613          	addi	a2,sp,272

   1a644:	000c0593          	mv	a1,s8

   1a648:	000b0513          	mv	a0,s6

   1a64c:	624030ef          	jal	ra,1dc70 <__ssprint_r>

   1a650:	00050463          	beqz	a0,1a658 <_svfprintf_r+0x185c>

   1a654:	985fe06f          	j	18fd8 <_svfprintf_r+0x1dc>

   1a658:	11812e83          	lw	t4,280(sp)

   1a65c:	12013c83          	ld	s9,288(sp)

   1a660:	1a010313          	addi	t1,sp,416

   1a664:	001e8e9b          	addiw	t4,t4,1

   1a668:	000b8493          	mv	s1,s7

   1a66c:	84cff06f          	j	196b8 <_svfprintf_r+0x8bc>

   1a670:	11812683          	lw	a3,280(sp)

   1a674:	00007617          	auipc	a2,0x7

   1a678:	7f460613          	addi	a2,a2,2036 # 21e68 <zeroes.4541+0x98>

   1a67c:	00c33023          	sd	a2,0(t1)

   1a680:	0016869b          	addiw	a3,a3,1

   1a684:	00100613          	li	a2,1

   1a688:	00178793          	addi	a5,a5,1

   1a68c:	00c33423          	sd	a2,8(t1)

   1a690:	10d12c23          	sw	a3,280(sp)

   1a694:	0006861b          	sext.w	a2,a3

   1a698:	12f13023          	sd	a5,288(sp)

   1a69c:	00700693          	li	a3,7

   1a6a0:	01030313          	addi	t1,t1,16

   1a6a4:	06c6cc63          	blt	a3,a2,1a71c <_svfprintf_r+0x1920>

   1a6a8:	26059263          	bnez	a1,1a90c <_svfprintf_r+0x1b10>

   1a6ac:	02813703          	ld	a4,40(sp)

   1a6b0:	00147693          	andi	a3,s0,1

   1a6b4:	00d766b3          	or	a3,a4,a3

   1a6b8:	00069463          	bnez	a3,1a6c0 <_svfprintf_r+0x18c4>

   1a6bc:	e5dfe06f          	j	19518 <_svfprintf_r+0x71c>

   1a6c0:	11812603          	lw	a2,280(sp)

   1a6c4:	07813703          	ld	a4,120(sp)

   1a6c8:	08013683          	ld	a3,128(sp)

   1a6cc:	00e787b3          	add	a5,a5,a4

   1a6d0:	00d33023          	sd	a3,0(t1)

   1a6d4:	0016069b          	addiw	a3,a2,1

   1a6d8:	00e33423          	sd	a4,8(t1)

   1a6dc:	12f13023          	sd	a5,288(sp)

   1a6e0:	10d12c23          	sw	a3,280(sp)

   1a6e4:	00700613          	li	a2,7

   1a6e8:	4ed64263          	blt	a2,a3,1abcc <_svfprintf_r+0x1dd0>

   1a6ec:	01030313          	addi	t1,t1,16

   1a6f0:	02813703          	ld	a4,40(sp)

   1a6f4:	0016861b          	addiw	a2,a3,1

   1a6f8:	01a33023          	sd	s10,0(t1)

   1a6fc:	00f707b3          	add	a5,a4,a5

   1a700:	00e33423          	sd	a4,8(t1)

   1a704:	12f13023          	sd	a5,288(sp)

   1a708:	10c12c23          	sw	a2,280(sp)

   1a70c:	00700713          	li	a4,7

   1a710:	00c74463          	blt	a4,a2,1a718 <_svfprintf_r+0x191c>

   1a714:	e01fe06f          	j	19514 <_svfprintf_r+0x718>

   1a718:	fc5fe06f          	j	196dc <_svfprintf_r+0x8e0>

   1a71c:	11010613          	addi	a2,sp,272

   1a720:	000c0593          	mv	a1,s8

   1a724:	000b0513          	mv	a0,s6

   1a728:	548030ef          	jal	ra,1dc70 <__ssprint_r>

   1a72c:	00050463          	beqz	a0,1a734 <_svfprintf_r+0x1938>

   1a730:	8a9fe06f          	j	18fd8 <_svfprintf_r+0x1dc>

   1a734:	0e812583          	lw	a1,232(sp)

   1a738:	12013783          	ld	a5,288(sp)

   1a73c:	000b8313          	mv	t1,s7

   1a740:	f69ff06f          	j	1a6a8 <_svfprintf_r+0x18ac>

   1a744:	40087413          	andi	s0,a6,1024

   1a748:	18c10c93          	addi	s9,sp,396

   1a74c:	0004041b          	sext.w	s0,s0

   1a750:	02013423          	sd	zero,40(sp)

   1a754:	000c8d13          	mv	s10,s9

   1a758:	00a00593          	li	a1,10

   1a75c:	000a8513          	mv	a0,s5

   1a760:	02613c23          	sd	t1,56(sp)

   1a764:	03d13023          	sd	t4,32(sp)

   1a768:	01013c23          	sd	a6,24(sp)

   1a76c:	35c070ef          	jal	ra,21ac8 <__umoddi3>

   1a770:	02813783          	ld	a5,40(sp)

   1a774:	0305051b          	addiw	a0,a0,48

   1a778:	fead0fa3          	sb	a0,-1(s10)

   1a77c:	0017879b          	addiw	a5,a5,1

   1a780:	02f13423          	sd	a5,40(sp)

   1a784:	fffd0d13          	addi	s10,s10,-1

   1a788:	01813803          	ld	a6,24(sp)

   1a78c:	02013e83          	ld	t4,32(sp)

   1a790:	03813303          	ld	t1,56(sp)

   1a794:	00040863          	beqz	s0,1a7a4 <_svfprintf_r+0x19a8>

   1a798:	07013703          	ld	a4,112(sp)

   1a79c:	00074683          	lbu	a3,0(a4)

   1a7a0:	c4d78a63          	beq	a5,a3,19bf4 <_svfprintf_r+0xdf8>

   1a7a4:	00a00593          	li	a1,10

   1a7a8:	000a8513          	mv	a0,s5

   1a7ac:	02613c23          	sd	t1,56(sp)

   1a7b0:	03d13023          	sd	t4,32(sp)

   1a7b4:	01013c23          	sd	a6,24(sp)

   1a7b8:	2c8070ef          	jal	ra,21a80 <__udivdi3>

   1a7bc:	00900793          	li	a5,9

   1a7c0:	01813803          	ld	a6,24(sp)

   1a7c4:	02013e83          	ld	t4,32(sp)

   1a7c8:	03813303          	ld	t1,56(sp)

   1a7cc:	c357fc63          	bgeu	a5,s5,19c04 <_svfprintf_r+0xe08>

   1a7d0:	00050a93          	mv	s5,a0

   1a7d4:	f85ff06f          	j	1a758 <_svfprintf_r+0x195c>

   1a7d8:	11010613          	addi	a2,sp,272

   1a7dc:	000c0593          	mv	a1,s8

   1a7e0:	000b0513          	mv	a0,s6

   1a7e4:	48c030ef          	jal	ra,1dc70 <__ssprint_r>

   1a7e8:	00050463          	beqz	a0,1a7f0 <_svfprintf_r+0x19f4>

   1a7ec:	fecfe06f          	j	18fd8 <_svfprintf_r+0x1dc>

   1a7f0:	000b8313          	mv	t1,s7

   1a7f4:	c84ff06f          	j	19c78 <_svfprintf_r+0xe7c>

   1a7f8:	0017069b          	addiw	a3,a4,1

   1a7fc:	01333023          	sd	s3,0(t1)

   1a800:	00933423          	sd	s1,8(t1)

   1a804:	009787b3          	add	a5,a5,s1

   1a808:	12f13023          	sd	a5,288(sp)

   1a80c:	10d12c23          	sw	a3,280(sp)

   1a810:	00700713          	li	a4,7

   1a814:	00d74463          	blt	a4,a3,1a81c <_svfprintf_r+0x1a20>

   1a818:	cfdfe06f          	j	19514 <_svfprintf_r+0x718>

   1a81c:	ec1fe06f          	j	196dc <_svfprintf_r+0x8e0>

   1a820:	11010613          	addi	a2,sp,272

   1a824:	000c0593          	mv	a1,s8

   1a828:	000b0513          	mv	a0,s6

   1a82c:	02d13c23          	sd	a3,56(sp)

   1a830:	440030ef          	jal	ra,1dc70 <__ssprint_r>

   1a834:	00050463          	beqz	a0,1a83c <_svfprintf_r+0x1a40>

   1a838:	fa0fe06f          	j	18fd8 <_svfprintf_r+0x1dc>

   1a83c:	07013783          	ld	a5,112(sp)

   1a840:	000b8313          	mv	t1,s7

   1a844:	00700813          	li	a6,7

   1a848:	0007c603          	lbu	a2,0(a5)

   1a84c:	03813683          	ld	a3,56(sp)

   1a850:	12013783          	ld	a5,288(sp)

   1a854:	00060c9b          	sext.w	s9,a2

   1a858:	cf5ff06f          	j	1a54c <_svfprintf_r+0x1750>

   1a85c:	10013503          	ld	a0,256(sp)

   1a860:	10813583          	ld	a1,264(sp)

   1a864:	00000613          	li	a2,0

   1a868:	00000693          	li	a3,0

   1a86c:	00613c23          	sd	t1,24(sp)

   1a870:	7b8050ef          	jal	ra,20028 <__letf2>

   1a874:	01813303          	ld	t1,24(sp)

   1a878:	50054c63          	bltz	a0,1ad90 <_svfprintf_r+0x1f94>

   1a87c:	0df14783          	lbu	a5,223(sp)

   1a880:	04700693          	li	a3,71

   1a884:	00007d17          	auipc	s10,0x7

   1a888:	58cd0d13          	addi	s10,s10,1420 # 21e10 <zeroes.4541+0x40>

   1a88c:	2296c663          	blt	a3,s1,1aab8 <_svfprintf_r+0x1cbc>

   1a890:	f7f47413          	andi	s0,s0,-129

   1a894:	02013023          	sd	zero,32(sp)

   1a898:	04013c23          	sd	zero,88(sp)

   1a89c:	06013423          	sd	zero,104(sp)

   1a8a0:	06013023          	sd	zero,96(sp)

   1a8a4:	0004041b          	sext.w	s0,s0

   1a8a8:	00300a93          	li	s5,3

   1a8ac:	00300c93          	li	s9,3

   1a8b0:	00000e93          	li	t4,0

   1a8b4:	00078463          	beqz	a5,1a8bc <_svfprintf_r+0x1ac0>

   1a8b8:	82dfe06f          	j	190e4 <_svfprintf_r+0x2e8>

   1a8bc:	b85fe06f          	j	19440 <_svfprintf_r+0x644>

   1a8c0:	000d0513          	mv	a0,s10

   1a8c4:	00613c23          	sd	t1,24(sp)

   1a8c8:	00d13823          	sd	a3,16(sp)

   1a8cc:	b90fe0ef          	jal	ra,18c5c <strlen>

   1a8d0:	00050c9b          	sext.w	s9,a0

   1a8d4:	fffcca93          	not	s5,s9

   1a8d8:	0df14783          	lbu	a5,223(sp)

   1a8dc:	43fada93          	srai	s5,s5,0x3f

   1a8e0:	015cfab3          	and	s5,s9,s5

   1a8e4:	02013023          	sd	zero,32(sp)

   1a8e8:	04013c23          	sd	zero,88(sp)

   1a8ec:	06013423          	sd	zero,104(sp)

   1a8f0:	06013023          	sd	zero,96(sp)

   1a8f4:	000a8a9b          	sext.w	s5,s5

   1a8f8:	00000e93          	li	t4,0

   1a8fc:	01813303          	ld	t1,24(sp)

   1a900:	00078463          	beqz	a5,1a908 <_svfprintf_r+0x1b0c>

   1a904:	fe0fe06f          	j	190e4 <_svfprintf_r+0x2e8>

   1a908:	b39fe06f          	j	19440 <_svfprintf_r+0x644>

   1a90c:	11812603          	lw	a2,280(sp)

   1a910:	07813703          	ld	a4,120(sp)

   1a914:	08013683          	ld	a3,128(sp)

   1a918:	01030313          	addi	t1,t1,16

   1a91c:	00e787b3          	add	a5,a5,a4

   1a920:	fed33823          	sd	a3,-16(t1)

   1a924:	0016069b          	addiw	a3,a2,1

   1a928:	fee33c23          	sd	a4,-8(t1)

   1a92c:	12f13023          	sd	a5,288(sp)

   1a930:	10d12c23          	sw	a3,280(sp)

   1a934:	00700613          	li	a2,7

   1a938:	28d64a63          	blt	a2,a3,1abcc <_svfprintf_r+0x1dd0>

   1a93c:	da05dae3          	bgez	a1,1a6f0 <_svfprintf_r+0x18f4>

   1a940:	ff000613          	li	a2,-16

   1a944:	40b004bb          	negw	s1,a1

   1a948:	0ec5dee3          	bge	a1,a2,1b244 <_svfprintf_r+0x2448>

   1a94c:	00700c93          	li	s9,7

   1a950:	00c0006f          	j	1a95c <_svfprintf_r+0x1b60>

   1a954:	ff04849b          	addiw	s1,s1,-16

   1a958:	0e9dd6e3          	bge	s11,s1,1b244 <_svfprintf_r+0x2448>

   1a95c:	0016869b          	addiw	a3,a3,1

   1a960:	01078793          	addi	a5,a5,16

   1a964:	01333023          	sd	s3,0(t1)

   1a968:	01b33423          	sd	s11,8(t1)

   1a96c:	12f13023          	sd	a5,288(sp)

   1a970:	10d12c23          	sw	a3,280(sp)

   1a974:	01030313          	addi	t1,t1,16

   1a978:	fcdcdee3          	bge	s9,a3,1a954 <_svfprintf_r+0x1b58>

   1a97c:	11010613          	addi	a2,sp,272

   1a980:	000c0593          	mv	a1,s8

   1a984:	000b0513          	mv	a0,s6

   1a988:	2e8030ef          	jal	ra,1dc70 <__ssprint_r>

   1a98c:	00050463          	beqz	a0,1a994 <_svfprintf_r+0x1b98>

   1a990:	e48fe06f          	j	18fd8 <_svfprintf_r+0x1dc>

   1a994:	12013783          	ld	a5,288(sp)

   1a998:	11812683          	lw	a3,280(sp)

   1a99c:	000b8313          	mv	t1,s7

   1a9a0:	fb5ff06f          	j	1a954 <_svfprintf_r+0x1b58>

   1a9a4:	00178e9b          	addiw	t4,a5,1

   1a9a8:	01048793          	addi	a5,s1,16

   1a9ac:	010c8cb3          	add	s9,s9,a6

   1a9b0:	0134b023          	sd	s3,0(s1)

   1a9b4:	0104b423          	sd	a6,8(s1)

   1a9b8:	13913023          	sd	s9,288(sp)

   1a9bc:	11d12c23          	sw	t4,280(sp)

   1a9c0:	00700713          	li	a4,7

   1a9c4:	c7d74ee3          	blt	a4,t4,1a640 <_svfprintf_r+0x1844>

   1a9c8:	001e8e9b          	addiw	t4,t4,1

   1a9cc:	01078313          	addi	t1,a5,16

   1a9d0:	00078493          	mv	s1,a5

   1a9d4:	ce5fe06f          	j	196b8 <_svfprintf_r+0x8bc>

   1a9d8:	20047713          	andi	a4,s0,512

   1a9dc:	0ff7fa93          	andi	s5,a5,255

   1a9e0:	00070463          	beqz	a4,1a9e8 <_svfprintf_r+0x1bec>

   1a9e4:	e78fe06f          	j	1905c <_svfprintf_r+0x260>

   1a9e8:	02079a93          	slli	s5,a5,0x20

   1a9ec:	020ada93          	srli	s5,s5,0x20

   1a9f0:	e6cfe06f          	j	1905c <_svfprintf_r+0x260>

   1a9f4:	20047693          	andi	a3,s0,512

   1a9f8:	1a068e63          	beqz	a3,1abb4 <_svfprintf_r+0x1db8>

   1a9fc:	0ff7fa93          	andi	s5,a5,255

   1aa00:	00e13823          	sd	a4,16(sp)

   1aa04:	8bdfe06f          	j	192c0 <_svfprintf_r+0x4c4>

   1aa08:	20047713          	andi	a4,s0,512

   1aa0c:	18070863          	beqz	a4,1ab9c <_svfprintf_r+0x1da0>

   1aa10:	0ff7fa93          	andi	s5,a5,255

   1aa14:	00d13823          	sd	a3,16(sp)

   1aa18:	00040813          	mv	a6,s0

   1aa1c:	00100713          	li	a4,1

   1aa20:	e6cfe06f          	j	1908c <_svfprintf_r+0x290>

   1aa24:	20047793          	andi	a5,s0,512

   1aa28:	14078e63          	beqz	a5,1ab84 <_svfprintf_r+0x1d88>

   1aa2c:	01013783          	ld	a5,16(sp)

   1aa30:	00040813          	mv	a6,s0

   1aa34:	00d13823          	sd	a3,16(sp)

   1aa38:	00078a83          	lb	s5,0(a5)

   1aa3c:	000a8713          	mv	a4,s5

   1aa40:	8edfe06f          	j	1932c <_svfprintf_r+0x530>

   1aa44:	10813783          	ld	a5,264(sp)

   1aa48:	1607de63          	bgez	a5,1abc4 <_svfprintf_r+0x1dc8>

   1aa4c:	02d00793          	li	a5,45

   1aa50:	0cf10fa3          	sb	a5,223(sp)

   1aa54:	04700693          	li	a3,71

   1aa58:	00007d17          	auipc	s10,0x7

   1aa5c:	3c8d0d13          	addi	s10,s10,968 # 21e20 <zeroes.4541+0x50>

   1aa60:	e296d8e3          	bge	a3,s1,1a890 <_svfprintf_r+0x1a94>

   1aa64:	00007d17          	auipc	s10,0x7

   1aa68:	3c4d0d13          	addi	s10,s10,964 # 21e28 <zeroes.4541+0x58>

   1aa6c:	e25ff06f          	j	1a890 <_svfprintf_r+0x1a94>

   1aa70:	0016861b          	addiw	a2,a3,1

   1aa74:	009787b3          	add	a5,a5,s1

   1aa78:	01333023          	sd	s3,0(t1)

   1aa7c:	00933423          	sd	s1,8(t1)

   1aa80:	12f13023          	sd	a5,288(sp)

   1aa84:	10c12c23          	sw	a2,280(sp)

   1aa88:	00700693          	li	a3,7

   1aa8c:	01030313          	addi	t1,t1,16

   1aa90:	eac6d463          	bge	a3,a2,1a138 <_svfprintf_r+0x133c>

   1aa94:	11010613          	addi	a2,sp,272

   1aa98:	000c0593          	mv	a1,s8

   1aa9c:	000b0513          	mv	a0,s6

   1aaa0:	1d0030ef          	jal	ra,1dc70 <__ssprint_r>

   1aaa4:	00050463          	beqz	a0,1aaac <_svfprintf_r+0x1cb0>

   1aaa8:	d30fe06f          	j	18fd8 <_svfprintf_r+0x1dc>

   1aaac:	12013783          	ld	a5,288(sp)

   1aab0:	000b8313          	mv	t1,s7

   1aab4:	e84ff06f          	j	1a138 <_svfprintf_r+0x133c>

   1aab8:	00007d17          	auipc	s10,0x7

   1aabc:	360d0d13          	addi	s10,s10,864 # 21e18 <zeroes.4541+0x48>

   1aac0:	dd1ff06f          	j	1a890 <_svfprintf_r+0x1a94>

   1aac4:	11010613          	addi	a2,sp,272

   1aac8:	000c0593          	mv	a1,s8

   1aacc:	000b0513          	mv	a0,s6

   1aad0:	1a0030ef          	jal	ra,1dc70 <__ssprint_r>

   1aad4:	00050463          	beqz	a0,1aadc <_svfprintf_r+0x1ce0>

   1aad8:	d00fe06f          	j	18fd8 <_svfprintf_r+0x1dc>

   1aadc:	12013783          	ld	a5,288(sp)

   1aae0:	000b8313          	mv	t1,s7

   1aae4:	e3cff06f          	j	1a120 <_svfprintf_r+0x1324>

   1aae8:	08813783          	ld	a5,136(sp)

   1aaec:	09813583          	ld	a1,152(sp)

   1aaf0:	02613c23          	sd	t1,56(sp)

   1aaf4:	40fd0d33          	sub	s10,s10,a5

   1aaf8:	00078613          	mv	a2,a5

   1aafc:	000d0513          	mv	a0,s10

   1ab00:	03d13023          	sd	t4,32(sp)

   1ab04:	01013c23          	sd	a6,24(sp)

   1ab08:	a24fe0ef          	jal	ra,18d2c <strncpy>

   1ab0c:	07013703          	ld	a4,112(sp)

   1ab10:	000a8513          	mv	a0,s5

   1ab14:	00a00593          	li	a1,10

   1ab18:	00174683          	lbu	a3,1(a4)

   1ab1c:	02013423          	sd	zero,40(sp)

   1ab20:	00d037b3          	snez	a5,a3

   1ab24:	00f707b3          	add	a5,a4,a5

   1ab28:	06f13823          	sd	a5,112(sp)

   1ab2c:	755060ef          	jal	ra,21a80 <__udivdi3>

   1ab30:	01813803          	ld	a6,24(sp)

   1ab34:	02013e83          	ld	t4,32(sp)

   1ab38:	03813303          	ld	t1,56(sp)

   1ab3c:	00050a93          	mv	s5,a0

   1ab40:	c19ff06f          	j	1a758 <_svfprintf_r+0x195c>

   1ab44:	00600e93          	li	t4,6

   1ab48:	8d5ff06f          	j	1a41c <_svfprintf_r+0x1620>

   1ab4c:	02813703          	ld	a4,40(sp)

   1ab50:	40d706bb          	subw	a3,a4,a3

   1ab54:	00ed0733          	add	a4,s10,a4

   1ab58:	409708bb          	subw	a7,a4,s1

   1ab5c:	0006871b          	sext.w	a4,a3

   1ab60:	00068493          	mv	s1,a3

   1ab64:	00e8d463          	bge	a7,a4,1ab6c <_svfprintf_r+0x1d70>

   1ab68:	00088493          	mv	s1,a7

   1ab6c:	00048c9b          	sext.w	s9,s1

   1ab70:	e68ff06f          	j	1a1d8 <_svfprintf_r+0x13dc>

   1ab74:	00813783          	ld	a5,8(sp)

   1ab78:	00090d13          	mv	s10,s2

   1ab7c:	00f71023          	sh	a5,0(a4)

   1ab80:	9e5fe06f          	j	19564 <_svfprintf_r+0x768>

   1ab84:	01013783          	ld	a5,16(sp)

   1ab88:	00040813          	mv	a6,s0

   1ab8c:	00d13823          	sd	a3,16(sp)

   1ab90:	0007aa83          	lw	s5,0(a5)

   1ab94:	000a8713          	mv	a4,s5

   1ab98:	f94fe06f          	j	1932c <_svfprintf_r+0x530>

   1ab9c:	02079a93          	slli	s5,a5,0x20

   1aba0:	020ada93          	srli	s5,s5,0x20

   1aba4:	00d13823          	sd	a3,16(sp)

   1aba8:	00040813          	mv	a6,s0

   1abac:	00100713          	li	a4,1

   1abb0:	cdcfe06f          	j	1908c <_svfprintf_r+0x290>

   1abb4:	02079a93          	slli	s5,a5,0x20

   1abb8:	020ada93          	srli	s5,s5,0x20

   1abbc:	00e13823          	sd	a4,16(sp)

   1abc0:	f00fe06f          	j	192c0 <_svfprintf_r+0x4c4>

   1abc4:	0df14783          	lbu	a5,223(sp)

   1abc8:	e8dff06f          	j	1aa54 <_svfprintf_r+0x1c58>

   1abcc:	11010613          	addi	a2,sp,272

   1abd0:	000c0593          	mv	a1,s8

   1abd4:	000b0513          	mv	a0,s6

   1abd8:	098030ef          	jal	ra,1dc70 <__ssprint_r>

   1abdc:	00050463          	beqz	a0,1abe4 <_svfprintf_r+0x1de8>

   1abe0:	bf8fe06f          	j	18fd8 <_svfprintf_r+0x1dc>

   1abe4:	0e812583          	lw	a1,232(sp)

   1abe8:	12013783          	ld	a5,288(sp)

   1abec:	11812683          	lw	a3,280(sp)

   1abf0:	000b8313          	mv	t1,s7

   1abf4:	ae05dee3          	bgez	a1,1a6f0 <_svfprintf_r+0x18f4>

   1abf8:	d49ff06f          	j	1a940 <_svfprintf_r+0x1b44>

   1abfc:	00600e93          	li	t4,6

   1ac00:	d81fe06f          	j	19980 <_svfprintf_r+0xb84>

   1ac04:	00040813          	mv	a6,s0

   1ac08:	fd5fe06f          	j	19bdc <_svfprintf_r+0xde0>

   1ac0c:	02813703          	ld	a4,40(sp)

   1ac10:	00ed06b3          	add	a3,s10,a4

   1ac14:	d296fa63          	bgeu	a3,s1,1a148 <_svfprintf_r+0x134c>

   1ac18:	00068493          	mv	s1,a3

   1ac1c:	d2cff06f          	j	1a148 <_svfprintf_r+0x134c>

   1ac20:	06013703          	ld	a4,96(sp)

   1ac24:	ffd00793          	li	a5,-3

   1ac28:	00f74463          	blt	a4,a5,1ac30 <_svfprintf_r+0x1e34>

   1ac2c:	00eeda63          	bge	t4,a4,1ac40 <_svfprintf_r+0x1e44>

   1ac30:	ffe4849b          	addiw	s1,s1,-2

   1ac34:	fdf4f793          	andi	a5,s1,-33

   1ac38:	0af13423          	sd	a5,168(sp)

   1ac3c:	e21fe06f          	j	19a5c <_svfprintf_r+0xc60>

   1ac40:	02813783          	ld	a5,40(sp)

   1ac44:	06013703          	ld	a4,96(sp)

   1ac48:	24f74e63          	blt	a4,a5,1aea4 <_svfprintf_r+0x20a8>

   1ac4c:	0b013783          	ld	a5,176(sp)

   1ac50:	00070c93          	mv	s9,a4

   1ac54:	0017f793          	andi	a5,a5,1

   1ac58:	00078663          	beqz	a5,1ac64 <_svfprintf_r+0x1e68>

   1ac5c:	07813783          	ld	a5,120(sp)

   1ac60:	00e78cbb          	addw	s9,a5,a4

   1ac64:	0b013783          	ld	a5,176(sp)

   1ac68:	4007f793          	andi	a5,a5,1024

   1ac6c:	00078663          	beqz	a5,1ac78 <_svfprintf_r+0x1e7c>

   1ac70:	06013783          	ld	a5,96(sp)

   1ac74:	6ef04e63          	bgtz	a5,1b370 <_svfprintf_r+0x2574>

   1ac78:	fffcca93          	not	s5,s9

   1ac7c:	43fada93          	srai	s5,s5,0x3f

   1ac80:	015cfab3          	and	s5,s9,s5

   1ac84:	000a8a9b          	sext.w	s5,s5

   1ac88:	06700493          	li	s1,103

   1ac8c:	04013c23          	sd	zero,88(sp)

   1ac90:	06013423          	sd	zero,104(sp)

   1ac94:	f0dfe06f          	j	19ba0 <_svfprintf_r+0xda4>

   1ac98:	0df14783          	lbu	a5,223(sp)

   1ac9c:	00000e93          	li	t4,0

   1aca0:	00078463          	beqz	a5,1aca8 <_svfprintf_r+0x1eac>

   1aca4:	c40fe06f          	j	190e4 <_svfprintf_r+0x2e8>

   1aca8:	f98fe06f          	j	19440 <_svfprintf_r+0x644>

   1acac:	0e810793          	addi	a5,sp,232

   1acb0:	000e8713          	mv	a4,t4

   1acb4:	00300693          	li	a3,3

   1acb8:	000f0593          	mv	a1,t5

   1acbc:	0f810893          	addi	a7,sp,248

   1acc0:	0ec10813          	addi	a6,sp,236

   1acc4:	000c8613          	mv	a2,s9

   1acc8:	000b0513          	mv	a0,s6

   1accc:	02613c23          	sd	t1,56(sp)

   1acd0:	03d13423          	sd	t4,40(sp)

   1acd4:	01e13c23          	sd	t5,24(sp)

   1acd8:	8d9fa0ef          	jal	ra,155b0 <_ldtoa_r>

   1acdc:	00054683          	lbu	a3,0(a0)

   1ace0:	03000793          	li	a5,48

   1ace4:	00050d13          	mv	s10,a0

   1ace8:	01813f03          	ld	t5,24(sp)

   1acec:	02813e83          	ld	t4,40(sp)

   1acf0:	03813303          	ld	t1,56(sp)

   1acf4:	0cf68863          	beq	a3,a5,1adc4 <_svfprintf_r+0x1fc8>

   1acf8:	0e812783          	lw	a5,232(sp)

   1acfc:	01d787b3          	add	a5,a5,t4

   1ad00:	00fd0ab3          	add	s5,s10,a5

   1ad04:	00000613          	li	a2,0

   1ad08:	00000693          	li	a3,0

   1ad0c:	000f0513          	mv	a0,t5

   1ad10:	000c8593          	mv	a1,s9

   1ad14:	02613423          	sd	t1,40(sp)

   1ad18:	01d13c23          	sd	t4,24(sp)

   1ad1c:	14c050ef          	jal	ra,1fe68 <__eqtf2>

   1ad20:	000a8793          	mv	a5,s5

   1ad24:	01813e83          	ld	t4,24(sp)

   1ad28:	02813303          	ld	t1,40(sp)

   1ad2c:	00051463          	bnez	a0,1ad34 <_svfprintf_r+0x1f38>

   1ad30:	cfdfe06f          	j	19a2c <_svfprintf_r+0xc30>

   1ad34:	0f813783          	ld	a5,248(sp)

   1ad38:	03000613          	li	a2,48

   1ad3c:	0157e463          	bltu	a5,s5,1ad44 <_svfprintf_r+0x1f48>

   1ad40:	cedfe06f          	j	19a2c <_svfprintf_r+0xc30>

   1ad44:	00178693          	addi	a3,a5,1

   1ad48:	0ed13c23          	sd	a3,248(sp)

   1ad4c:	00c78023          	sb	a2,0(a5)

   1ad50:	0f813783          	ld	a5,248(sp)

   1ad54:	ff57e8e3          	bltu	a5,s5,1ad44 <_svfprintf_r+0x1f48>

   1ad58:	cd5fe06f          	j	19a2c <_svfprintf_r+0xc30>

   1ad5c:	11010613          	addi	a2,sp,272

   1ad60:	000c0593          	mv	a1,s8

   1ad64:	000b0513          	mv	a0,s6

   1ad68:	709020ef          	jal	ra,1dc70 <__ssprint_r>

   1ad6c:	00050463          	beqz	a0,1ad74 <_svfprintf_r+0x1f78>

   1ad70:	a68fe06f          	j	18fd8 <_svfprintf_r+0x1dc>

   1ad74:	07013783          	ld	a5,112(sp)

   1ad78:	000b8313          	mv	t1,s7

   1ad7c:	00700813          	li	a6,7

   1ad80:	0007c603          	lbu	a2,0(a5)

   1ad84:	12013783          	ld	a5,288(sp)

   1ad88:	00c484b3          	add	s1,s1,a2

   1ad8c:	fd8ff06f          	j	1a564 <_svfprintf_r+0x1768>

   1ad90:	02d00793          	li	a5,45

   1ad94:	0cf10fa3          	sb	a5,223(sp)

   1ad98:	ae9ff06f          	j	1a880 <_svfprintf_r+0x1a84>

   1ad9c:	11010613          	addi	a2,sp,272

   1ada0:	000c0593          	mv	a1,s8

   1ada4:	000b0513          	mv	a0,s6

   1ada8:	6c9020ef          	jal	ra,1dc70 <__ssprint_r>

   1adac:	00050463          	beqz	a0,1adb4 <_svfprintf_r+0x1fb8>

   1adb0:	a28fe06f          	j	18fd8 <_svfprintf_r+0x1dc>

   1adb4:	0e812683          	lw	a3,232(sp)

   1adb8:	12013783          	ld	a5,288(sp)

   1adbc:	000b8313          	mv	t1,s7

   1adc0:	bccff06f          	j	1a18c <_svfprintf_r+0x1390>

   1adc4:	000f0513          	mv	a0,t5

   1adc8:	00000613          	li	a2,0

   1adcc:	00000693          	li	a3,0

   1add0:	000c8593          	mv	a1,s9

   1add4:	02613c23          	sd	t1,56(sp)

   1add8:	03d13423          	sd	t4,40(sp)

   1addc:	01e13c23          	sd	t5,24(sp)

   1ade0:	088050ef          	jal	ra,1fe68 <__eqtf2>

   1ade4:	01813f03          	ld	t5,24(sp)

   1ade8:	02813e83          	ld	t4,40(sp)

   1adec:	03813303          	ld	t1,56(sp)

   1adf0:	f00504e3          	beqz	a0,1acf8 <_svfprintf_r+0x1efc>

   1adf4:	00100693          	li	a3,1

   1adf8:	41d687bb          	subw	a5,a3,t4

   1adfc:	0ef12423          	sw	a5,232(sp)

   1ae00:	efdff06f          	j	1acfc <_svfprintf_r+0x1f00>

   1ae04:	0df14783          	lbu	a5,223(sp)

   1ae08:	00d13823          	sd	a3,16(sp)

   1ae0c:	04013c23          	sd	zero,88(sp)

   1ae10:	06013423          	sd	zero,104(sp)

   1ae14:	06013023          	sd	zero,96(sp)

   1ae18:	000e8a93          	mv	s5,t4

   1ae1c:	000e8c93          	mv	s9,t4

   1ae20:	00000e93          	li	t4,0

   1ae24:	00078463          	beqz	a5,1ae2c <_svfprintf_r+0x2030>

   1ae28:	abcfe06f          	j	190e4 <_svfprintf_r+0x2e8>

   1ae2c:	e14fe06f          	j	19440 <_svfprintf_r+0x644>

   1ae30:	11010613          	addi	a2,sp,272

   1ae34:	000c0593          	mv	a1,s8

   1ae38:	000b0513          	mv	a0,s6

   1ae3c:	635020ef          	jal	ra,1dc70 <__ssprint_r>

   1ae40:	00050463          	beqz	a0,1ae48 <_svfprintf_r+0x204c>

   1ae44:	994fe06f          	j	18fd8 <_svfprintf_r+0x1dc>

   1ae48:	0e812703          	lw	a4,232(sp)

   1ae4c:	02813683          	ld	a3,40(sp)

   1ae50:	12013783          	ld	a5,288(sp)

   1ae54:	000b8313          	mv	t1,s7

   1ae58:	40e6873b          	subw	a4,a3,a4

   1ae5c:	b7cff06f          	j	1a1d8 <_svfprintf_r+0x13dc>

   1ae60:	0b013783          	ld	a5,176(sp)

   1ae64:	06013703          	ld	a4,96(sp)

   1ae68:	0017f793          	andi	a5,a5,1

   1ae6c:	00fee7b3          	or	a5,t4,a5

   1ae70:	0007879b          	sext.w	a5,a5

   1ae74:	5ce05263          	blez	a4,1b438 <_svfprintf_r+0x263c>

   1ae78:	58079c63          	bnez	a5,1b410 <_svfprintf_r+0x2614>

   1ae7c:	06013c83          	ld	s9,96(sp)

   1ae80:	06600493          	li	s1,102

   1ae84:	0b013783          	ld	a5,176(sp)

   1ae88:	4007f793          	andi	a5,a5,1024

   1ae8c:	4e079463          	bnez	a5,1b374 <_svfprintf_r+0x2578>

   1ae90:	fffcca93          	not	s5,s9

   1ae94:	43fada93          	srai	s5,s5,0x3f

   1ae98:	015cfab3          	and	s5,s9,s5

   1ae9c:	000a8a9b          	sext.w	s5,s5

   1aea0:	dedff06f          	j	1ac8c <_svfprintf_r+0x1e90>

   1aea4:	02813703          	ld	a4,40(sp)

   1aea8:	07813783          	ld	a5,120(sp)

   1aeac:	06700493          	li	s1,103

   1aeb0:	00e78cbb          	addw	s9,a5,a4

   1aeb4:	06013703          	ld	a4,96(sp)

   1aeb8:	fce046e3          	bgtz	a4,1ae84 <_svfprintf_r+0x2088>

   1aebc:	40ec87bb          	subw	a5,s9,a4

   1aec0:	0017879b          	addiw	a5,a5,1

   1aec4:	00078c9b          	sext.w	s9,a5

   1aec8:	fffcca93          	not	s5,s9

   1aecc:	43fada93          	srai	s5,s5,0x3f

   1aed0:	0157f7b3          	and	a5,a5,s5

   1aed4:	00078a9b          	sext.w	s5,a5

   1aed8:	db5ff06f          	j	1ac8c <_svfprintf_r+0x1e90>

   1aedc:	03000793          	li	a5,48

   1aee0:	0ef10023          	sb	a5,224(sp)

   1aee4:	05800713          	li	a4,88

   1aee8:	00246793          	ori	a5,s0,2

   1aeec:	0007879b          	sext.w	a5,a5

   1aef0:	0ee100a3          	sb	a4,225(sp)

   1aef4:	06300693          	li	a3,99

   1aef8:	0af13823          	sd	a5,176(sp)

   1aefc:	02013023          	sd	zero,32(sp)

   1af00:	12810d13          	addi	s10,sp,296

   1af04:	2dd6c663          	blt	a3,t4,1b1d0 <_svfprintf_r+0x23d4>

   1af08:	10813c83          	ld	s9,264(sp)

   1af0c:	fdf4f793          	andi	a5,s1,-33

   1af10:	10246413          	ori	s0,s0,258

   1af14:	0af13423          	sd	a5,168(sp)

   1af18:	0c013423          	sd	zero,200(sp)

   1af1c:	0004041b          	sext.w	s0,s0

   1af20:	10013f03          	ld	t5,256(sp)

   1af24:	220cca63          	bltz	s9,1b158 <_svfprintf_r+0x235c>

   1af28:	06100793          	li	a5,97

   1af2c:	3cf48863          	beq	s1,a5,1b2fc <_svfprintf_r+0x2500>

   1af30:	04100793          	li	a5,65

   1af34:	00f48463          	beq	s1,a5,1af3c <_svfprintf_r+0x2140>

   1af38:	a71fe06f          	j	199a8 <_svfprintf_r+0xbac>

   1af3c:	000f0513          	mv	a0,t5

   1af40:	000c8593          	mv	a1,s9

   1af44:	04613023          	sd	t1,64(sp)

   1af48:	03d13c23          	sd	t4,56(sp)

   1af4c:	7d0060ef          	jal	ra,2171c <__trunctfdf2>

   1af50:	0e810593          	addi	a1,sp,232

   1af54:	ff0fd0ef          	jal	ra,18744 <frexp>

   1af58:	6a4060ef          	jal	ra,215fc <__extenddftf2>

   1af5c:	00007797          	auipc	a5,0x7

   1af60:	ea478793          	addi	a5,a5,-348 # 21e00 <zeroes.4541+0x30>

   1af64:	0087b683          	ld	a3,8(a5)

   1af68:	00000613          	li	a2,0

   1af6c:	1a4050ef          	jal	ra,20110 <__multf3>

   1af70:	00000613          	li	a2,0

   1af74:	00000693          	li	a3,0

   1af78:	02a13423          	sd	a0,40(sp)

   1af7c:	00b13c23          	sd	a1,24(sp)

   1af80:	6e9040ef          	jal	ra,1fe68 <__eqtf2>

   1af84:	01813f83          	ld	t6,24(sp)

   1af88:	02813f03          	ld	t5,40(sp)

   1af8c:	03813e83          	ld	t4,56(sp)

   1af90:	04013303          	ld	t1,64(sp)

   1af94:	00051663          	bnez	a0,1afa0 <_svfprintf_r+0x21a4>

   1af98:	00100793          	li	a5,1

   1af9c:	0ef12423          	sw	a5,232(sp)

   1afa0:	00007797          	auipc	a5,0x7

   1afa4:	ea878793          	addi	a5,a5,-344 # 21e48 <zeroes.4541+0x78>

   1afa8:	06f13423          	sd	a5,104(sp)

   1afac:	000e879b          	sext.w	a5,t4

   1afb0:	02079c93          	slli	s9,a5,0x20

   1afb4:	00fd07bb          	addw	a5,s10,a5

   1afb8:	0af12e23          	sw	a5,188(sp)

   1afbc:	00007797          	auipc	a5,0x7

   1afc0:	e2478793          	addi	a5,a5,-476 # 21de0 <zeroes.4541+0x10>

   1afc4:	0087b783          	ld	a5,8(a5)

   1afc8:	020cdc93          	srli	s9,s9,0x20

   1afcc:	001c8c93          	addi	s9,s9,1

   1afd0:	019d0cb3          	add	s9,s10,s9

   1afd4:	01a13c23          	sd	s10,24(sp)

   1afd8:	0cf13023          	sd	a5,192(sp)

   1afdc:	03c0006f          	j	1b018 <_svfprintf_r+0x221c>

   1afe0:	00000613          	li	a2,0

   1afe4:	00000693          	li	a3,0

   1afe8:	06b13023          	sd	a1,96(sp)

   1afec:	04a13c23          	sd	a0,88(sp)

   1aff0:	679040ef          	jal	ra,1fe68 <__eqtf2>

   1aff4:	04013e83          	ld	t4,64(sp)

   1aff8:	04813303          	ld	t1,72(sp)

   1affc:	05813883          	ld	a7,88(sp)

   1b000:	06013803          	ld	a6,96(sp)

   1b004:	02813783          	ld	a5,40(sp)

   1b008:	03813f83          	ld	t6,56(sp)

   1b00c:	05013f03          	ld	t5,80(sp)

   1b010:	2a050463          	beqz	a0,1b2b8 <_svfprintf_r+0x24bc>

   1b014:	00f13c23          	sd	a5,24(sp)

   1b018:	0c013683          	ld	a3,192(sp)

   1b01c:	00000613          	li	a2,0

   1b020:	000f0513          	mv	a0,t5

   1b024:	000f8593          	mv	a1,t6

   1b028:	04613423          	sd	t1,72(sp)

   1b02c:	05d13023          	sd	t4,64(sp)

   1b030:	0e0050ef          	jal	ra,20110 <__multf3>

   1b034:	02b13423          	sd	a1,40(sp)

   1b038:	02a13c23          	sd	a0,56(sp)

   1b03c:	45c060ef          	jal	ra,21498 <__fixtfsi>

   1b040:	00050a9b          	sext.w	s5,a0

   1b044:	000a8513          	mv	a0,s5

   1b048:	524060ef          	jal	ra,2156c <__floatsitf>

   1b04c:	03813803          	ld	a6,56(sp)

   1b050:	02813783          	ld	a5,40(sp)

   1b054:	00058693          	mv	a3,a1

   1b058:	00050613          	mv	a2,a0

   1b05c:	00078593          	mv	a1,a5

   1b060:	00080513          	mv	a0,a6

   1b064:	19d050ef          	jal	ra,20a00 <__subtf3>

   1b068:	06813783          	ld	a5,104(sp)

   1b06c:	0bc12703          	lw	a4,188(sp)

   1b070:	04a13823          	sd	a0,80(sp)

   1b074:	015787b3          	add	a5,a5,s5

   1b078:	0007c683          	lbu	a3,0(a5)

   1b07c:	01813783          	ld	a5,24(sp)

   1b080:	02b13c23          	sd	a1,56(sp)

   1b084:	00050893          	mv	a7,a0

   1b088:	00d78023          	sb	a3,0(a5)

   1b08c:	00178793          	addi	a5,a5,1

   1b090:	40f7073b          	subw	a4,a4,a5

   1b094:	0ae13023          	sd	a4,160(sp)

   1b098:	02f13423          	sd	a5,40(sp)

   1b09c:	00058813          	mv	a6,a1

   1b0a0:	04013e83          	ld	t4,64(sp)

   1b0a4:	04813303          	ld	t1,72(sp)

   1b0a8:	f2fc9ce3          	bne	s9,a5,1afe0 <_svfprintf_r+0x21e4>

   1b0ac:	fff00793          	li	a5,-1

   1b0b0:	0af13023          	sd	a5,160(sp)

   1b0b4:	00007797          	auipc	a5,0x7

   1b0b8:	d3c78793          	addi	a5,a5,-708 # 21df0 <zeroes.4541+0x20>

   1b0bc:	0087b783          	ld	a5,8(a5)

   1b0c0:	00000613          	li	a2,0

   1b0c4:	00088513          	mv	a0,a7

   1b0c8:	00078693          	mv	a3,a5

   1b0cc:	00080593          	mv	a1,a6

   1b0d0:	04613023          	sd	t1,64(sp)

   1b0d4:	03d13c23          	sd	t4,56(sp)

   1b0d8:	02f13423          	sd	a5,40(sp)

   1b0dc:	05113823          	sd	a7,80(sp)

   1b0e0:	05013423          	sd	a6,72(sp)

   1b0e4:	65d040ef          	jal	ra,1ff40 <__getf2>

   1b0e8:	03813e83          	ld	t4,56(sp)

   1b0ec:	04013303          	ld	t1,64(sp)

   1b0f0:	08a04063          	bgtz	a0,1b170 <_svfprintf_r+0x2374>

   1b0f4:	05013883          	ld	a7,80(sp)

   1b0f8:	04813803          	ld	a6,72(sp)

   1b0fc:	02813683          	ld	a3,40(sp)

   1b100:	00000613          	li	a2,0

   1b104:	00088513          	mv	a0,a7

   1b108:	00080593          	mv	a1,a6

   1b10c:	55d040ef          	jal	ra,1fe68 <__eqtf2>

   1b110:	03813e83          	ld	t4,56(sp)

   1b114:	04013303          	ld	t1,64(sp)

   1b118:	00051663          	bnez	a0,1b124 <_svfprintf_r+0x2328>

   1b11c:	001afa93          	andi	s5,s5,1

   1b120:	040a9863          	bnez	s5,1b170 <_svfprintf_r+0x2374>

   1b124:	0a013703          	ld	a4,160(sp)

   1b128:	03000693          	li	a3,48

   1b12c:	00170793          	addi	a5,a4,1

   1b130:	00fc87b3          	add	a5,s9,a5

   1b134:	00074863          	bltz	a4,1b144 <_svfprintf_r+0x2348>

   1b138:	001c8c93          	addi	s9,s9,1

   1b13c:	fedc8fa3          	sb	a3,-1(s9)

   1b140:	ff979ce3          	bne	a5,s9,1b138 <_svfprintf_r+0x233c>

   1b144:	41ac87bb          	subw	a5,s9,s10

   1b148:	02f13423          	sd	a5,40(sp)

   1b14c:	8e9fe06f          	j	19a34 <_svfprintf_r+0xc38>

   1b150:	02013023          	sd	zero,32(sp)

   1b154:	00078413          	mv	s0,a5

   1b158:	fff00793          	li	a5,-1

   1b15c:	03f79793          	slli	a5,a5,0x3f

   1b160:	00fcccb3          	xor	s9,s9,a5

   1b164:	02d00793          	li	a5,45

   1b168:	0cf13423          	sd	a5,200(sp)

   1b16c:	dbdff06f          	j	1af28 <_svfprintf_r+0x212c>

   1b170:	01813783          	ld	a5,24(sp)

   1b174:	0ef13c23          	sd	a5,248(sp)

   1b178:	06813783          	ld	a5,104(sp)

   1b17c:	fffcc683          	lbu	a3,-1(s9)

   1b180:	00f7c603          	lbu	a2,15(a5)

   1b184:	000c8793          	mv	a5,s9

   1b188:	02d61063          	bne	a2,a3,1b1a8 <_svfprintf_r+0x23ac>

   1b18c:	03000593          	li	a1,48

   1b190:	feb78fa3          	sb	a1,-1(a5)

   1b194:	0f813783          	ld	a5,248(sp)

   1b198:	fff78693          	addi	a3,a5,-1

   1b19c:	0ed13c23          	sd	a3,248(sp)

   1b1a0:	fff7c683          	lbu	a3,-1(a5)

   1b1a4:	fed606e3          	beq	a2,a3,1b190 <_svfprintf_r+0x2394>

   1b1a8:	0016861b          	addiw	a2,a3,1

   1b1ac:	03900593          	li	a1,57

   1b1b0:	0ff67613          	andi	a2,a2,255

   1b1b4:	00b68663          	beq	a3,a1,1b1c0 <_svfprintf_r+0x23c4>

   1b1b8:	fec78fa3          	sb	a2,-1(a5)

   1b1bc:	f89ff06f          	j	1b144 <_svfprintf_r+0x2348>

   1b1c0:	06813703          	ld	a4,104(sp)

   1b1c4:	00a74603          	lbu	a2,10(a4)

   1b1c8:	fec78fa3          	sb	a2,-1(a5)

   1b1cc:	f79ff06f          	j	1b144 <_svfprintf_r+0x2348>

   1b1d0:	001e859b          	addiw	a1,t4,1

   1b1d4:	000b0513          	mv	a0,s6

   1b1d8:	02613023          	sd	t1,32(sp)

   1b1dc:	01d13c23          	sd	t4,24(sp)

   1b1e0:	9ddfb0ef          	jal	ra,16bbc <_malloc_r>

   1b1e4:	00050d13          	mv	s10,a0

   1b1e8:	01813e83          	ld	t4,24(sp)

   1b1ec:	02013303          	ld	t1,32(sp)

   1b1f0:	2c050463          	beqz	a0,1b4b8 <_svfprintf_r+0x26bc>

   1b1f4:	02a13023          	sd	a0,32(sp)

   1b1f8:	d11ff06f          	j	1af08 <_svfprintf_r+0x210c>

   1b1fc:	001e8a9b          	addiw	s5,t4,1

   1b200:	000a8713          	mv	a4,s5

   1b204:	000f0593          	mv	a1,t5

   1b208:	0f810893          	addi	a7,sp,248

   1b20c:	0ec10813          	addi	a6,sp,236

   1b210:	0e810793          	addi	a5,sp,232

   1b214:	00200693          	li	a3,2

   1b218:	000c8613          	mv	a2,s9

   1b21c:	000b0513          	mv	a0,s6

   1b220:	03d13423          	sd	t4,40(sp)

   1b224:	01e13c23          	sd	t5,24(sp)

   1b228:	b88fa0ef          	jal	ra,155b0 <_ldtoa_r>

   1b22c:	00050d13          	mv	s10,a0

   1b230:	01813f03          	ld	t5,24(sp)

   1b234:	02813e83          	ld	t4,40(sp)

   1b238:	03813303          	ld	t1,56(sp)

   1b23c:	015d0ab3          	add	s5,s10,s5

   1b240:	ac5ff06f          	j	1ad04 <_svfprintf_r+0x1f08>

   1b244:	0016869b          	addiw	a3,a3,1

   1b248:	009787b3          	add	a5,a5,s1

   1b24c:	01333023          	sd	s3,0(t1)

   1b250:	00933423          	sd	s1,8(t1)

   1b254:	12f13023          	sd	a5,288(sp)

   1b258:	10d12c23          	sw	a3,280(sp)

   1b25c:	00700613          	li	a2,7

   1b260:	c8d65663          	bge	a2,a3,1a6ec <_svfprintf_r+0x18f0>

   1b264:	11010613          	addi	a2,sp,272

   1b268:	000c0593          	mv	a1,s8

   1b26c:	000b0513          	mv	a0,s6

   1b270:	201020ef          	jal	ra,1dc70 <__ssprint_r>

   1b274:	00050463          	beqz	a0,1b27c <_svfprintf_r+0x2480>

   1b278:	d61fd06f          	j	18fd8 <_svfprintf_r+0x1dc>

   1b27c:	12013783          	ld	a5,288(sp)

   1b280:	11812683          	lw	a3,280(sp)

   1b284:	000b8313          	mv	t1,s7

   1b288:	c68ff06f          	j	1a6f0 <_svfprintf_r+0x18f4>

   1b28c:	03000793          	li	a5,48

   1b290:	0ef10023          	sb	a5,224(sp)

   1b294:	07800713          	li	a4,120

   1b298:	c51ff06f          	j	1aee8 <_svfprintf_r+0x20ec>

   1b29c:	000e8463          	beqz	t4,1b2a4 <_svfprintf_r+0x24a8>

   1b2a0:	ee0fe06f          	j	19980 <_svfprintf_r+0xb84>

   1b2a4:	00100e93          	li	t4,1

   1b2a8:	ed8fe06f          	j	19980 <_svfprintf_r+0xb84>

   1b2ac:	00f72023          	sw	a5,0(a4)

   1b2b0:	00090d13          	mv	s10,s2

   1b2b4:	ab0fe06f          	j	19564 <_svfprintf_r+0x768>

   1b2b8:	00078c93          	mv	s9,a5

   1b2bc:	df9ff06f          	j	1b0b4 <_svfprintf_r+0x22b8>

   1b2c0:	fff00793          	li	a5,-1

   1b2c4:	00f13423          	sd	a5,8(sp)

   1b2c8:	d35fd06f          	j	18ffc <_svfprintf_r+0x200>

   1b2cc:	0f210693          	addi	a3,sp,242

   1b2d0:	00061863          	bnez	a2,1b2e0 <_svfprintf_r+0x24e4>

   1b2d4:	03000793          	li	a5,48

   1b2d8:	0ef10923          	sb	a5,242(sp)

   1b2dc:	0f310693          	addi	a3,sp,243

   1b2e0:	21010713          	addi	a4,sp,528

   1b2e4:	030a879b          	addiw	a5,s5,48

   1b2e8:	40e68633          	sub	a2,a3,a4

   1b2ec:	00f68023          	sb	a5,0(a3)

   1b2f0:	1216079b          	addiw	a5,a2,289

   1b2f4:	08f13823          	sd	a5,144(sp)

   1b2f8:	859fe06f          	j	19b50 <_svfprintf_r+0xd54>

   1b2fc:	000f0513          	mv	a0,t5

   1b300:	000c8593          	mv	a1,s9

   1b304:	04613023          	sd	t1,64(sp)

   1b308:	03d13c23          	sd	t4,56(sp)

   1b30c:	410060ef          	jal	ra,2171c <__trunctfdf2>

   1b310:	0e810593          	addi	a1,sp,232

   1b314:	c30fd0ef          	jal	ra,18744 <frexp>

   1b318:	2e4060ef          	jal	ra,215fc <__extenddftf2>

   1b31c:	00007797          	auipc	a5,0x7

   1b320:	ae478793          	addi	a5,a5,-1308 # 21e00 <zeroes.4541+0x30>

   1b324:	0087b683          	ld	a3,8(a5)

   1b328:	00000613          	li	a2,0

   1b32c:	5e5040ef          	jal	ra,20110 <__multf3>

   1b330:	00000613          	li	a2,0

   1b334:	00000693          	li	a3,0

   1b338:	02a13423          	sd	a0,40(sp)

   1b33c:	00b13c23          	sd	a1,24(sp)

   1b340:	329040ef          	jal	ra,1fe68 <__eqtf2>

   1b344:	01813f83          	ld	t6,24(sp)

   1b348:	02813f03          	ld	t5,40(sp)

   1b34c:	03813e83          	ld	t4,56(sp)

   1b350:	04013303          	ld	t1,64(sp)

   1b354:	00051663          	bnez	a0,1b360 <_svfprintf_r+0x2564>

   1b358:	00100793          	li	a5,1

   1b35c:	0ef12423          	sw	a5,232(sp)

   1b360:	00007797          	auipc	a5,0x7

   1b364:	ad078793          	addi	a5,a5,-1328 # 21e30 <zeroes.4541+0x60>

   1b368:	06f13423          	sd	a5,104(sp)

   1b36c:	c41ff06f          	j	1afac <_svfprintf_r+0x21b0>

   1b370:	06700493          	li	s1,103

   1b374:	07013783          	ld	a5,112(sp)

   1b378:	04013c23          	sd	zero,88(sp)

   1b37c:	06013423          	sd	zero,104(sp)

   1b380:	0007c783          	lbu	a5,0(a5)

   1b384:	0ff00593          	li	a1,255

   1b388:	04b78863          	beq	a5,a1,1b3d8 <_svfprintf_r+0x25dc>

   1b38c:	06013703          	ld	a4,96(sp)

   1b390:	0007869b          	sext.w	a3,a5

   1b394:	04e6d263          	bge	a3,a4,1b3d8 <_svfprintf_r+0x25dc>

   1b398:	07013503          	ld	a0,112(sp)

   1b39c:	40d7073b          	subw	a4,a4,a3

   1b3a0:	06e13023          	sd	a4,96(sp)

   1b3a4:	00154603          	lbu	a2,1(a0)

   1b3a8:	02060063          	beqz	a2,1b3c8 <_svfprintf_r+0x25cc>

   1b3ac:	06813783          	ld	a5,104(sp)

   1b3b0:	0017879b          	addiw	a5,a5,1

   1b3b4:	06f13423          	sd	a5,104(sp)

   1b3b8:	00150793          	addi	a5,a0,1

   1b3bc:	06f13823          	sd	a5,112(sp)

   1b3c0:	00060793          	mv	a5,a2

   1b3c4:	fc5ff06f          	j	1b388 <_svfprintf_r+0x258c>

   1b3c8:	05813703          	ld	a4,88(sp)

   1b3cc:	0017071b          	addiw	a4,a4,1

   1b3d0:	04e13c23          	sd	a4,88(sp)

   1b3d4:	fb5ff06f          	j	1b388 <_svfprintf_r+0x258c>

   1b3d8:	06813783          	ld	a5,104(sp)

   1b3dc:	05813703          	ld	a4,88(sp)

   1b3e0:	08813583          	ld	a1,136(sp)

   1b3e4:	00613c23          	sd	t1,24(sp)

   1b3e8:	00e7853b          	addw	a0,a5,a4

   1b3ec:	628060ef          	jal	ra,21a14 <__muldi3>

   1b3f0:	0195053b          	addw	a0,a0,s9

   1b3f4:	00050c9b          	sext.w	s9,a0

   1b3f8:	fffcca93          	not	s5,s9

   1b3fc:	43fada93          	srai	s5,s5,0x3f

   1b400:	01557533          	and	a0,a0,s5

   1b404:	00050a9b          	sext.w	s5,a0

   1b408:	01813303          	ld	t1,24(sp)

   1b40c:	f94fe06f          	j	19ba0 <_svfprintf_r+0xda4>

   1b410:	07813783          	ld	a5,120(sp)

   1b414:	06600493          	li	s1,102

   1b418:	00e78cbb          	addw	s9,a5,a4

   1b41c:	01dc8cbb          	addw	s9,s9,t4

   1b420:	a65ff06f          	j	1ae84 <_svfprintf_r+0x2088>

   1b424:	0b013703          	ld	a4,176(sp)

   1b428:	00177693          	andi	a3,a4,1

   1b42c:	00069463          	bnez	a3,1b434 <_svfprintf_r+0x2638>

   1b430:	f44fe06f          	j	19b74 <_svfprintf_r+0xd78>

   1b434:	f38fe06f          	j	19b6c <_svfprintf_r+0xd70>

   1b438:	00079a63          	bnez	a5,1b44c <_svfprintf_r+0x2650>

   1b43c:	00100a93          	li	s5,1

   1b440:	06600493          	li	s1,102

   1b444:	00100c93          	li	s9,1

   1b448:	845ff06f          	j	1ac8c <_svfprintf_r+0x1e90>

   1b44c:	07813783          	ld	a5,120(sp)

   1b450:	06600493          	li	s1,102

   1b454:	0017879b          	addiw	a5,a5,1

   1b458:	01d78ebb          	addw	t4,a5,t4

   1b45c:	000e8c9b          	sext.w	s9,t4

   1b460:	fffcca93          	not	s5,s9

   1b464:	43fada93          	srai	s5,s5,0x3f

   1b468:	015efeb3          	and	t4,t4,s5

   1b46c:	000e8a9b          	sext.w	s5,t4

   1b470:	81dff06f          	j	1ac8c <_svfprintf_r+0x1e90>

   1b474:	00030793          	mv	a5,t1

   1b478:	d34ff06f          	j	1a9ac <_svfprintf_r+0x1bb0>

   1b47c:	01013703          	ld	a4,16(sp)

   1b480:	00072e83          	lw	t4,0(a4)

   1b484:	00870693          	addi	a3,a4,8

   1b488:	000ed463          	bgez	t4,1b490 <_svfprintf_r+0x2694>

   1b48c:	fff00e93          	li	t4,-1

   1b490:	00194483          	lbu	s1,1(s2)

   1b494:	00d13823          	sd	a3,16(sp)

   1b498:	00078913          	mv	s2,a5

   1b49c:	ab9fd06f          	j	18f54 <_svfprintf_r+0x158>

   1b4a0:	00200793          	li	a5,2

   1b4a4:	08f13823          	sd	a5,144(sp)

   1b4a8:	ea8fe06f          	j	19b50 <_svfprintf_r+0xd54>

   1b4ac:	000e8a93          	mv	s5,t4

   1b4b0:	015d0ab3          	add	s5,s10,s5

   1b4b4:	851ff06f          	j	1ad04 <_svfprintf_r+0x1f08>

   1b4b8:	010c5783          	lhu	a5,16(s8)

   1b4bc:	0407e713          	ori	a4,a5,64

   1b4c0:	00070793          	mv	a5,a4

   1b4c4:	00ec1823          	sh	a4,16(s8)

   1b4c8:	b29fd06f          	j	18ff0 <_svfprintf_r+0x1f4>

   1b4cc:	00c00793          	li	a5,12

   1b4d0:	00fb2023          	sw	a5,0(s6)

   1b4d4:	fff00793          	li	a5,-1

   1b4d8:	00f13423          	sd	a5,8(sp)

   1b4dc:	b21fd06f          	j	18ffc <_svfprintf_r+0x200>



000000000001b4e0 <__sprint_r.part.0>:

   1b4e0:	0ac5a783          	lw	a5,172(a1)

   1b4e4:	fb010113          	addi	sp,sp,-80

   1b4e8:	01513c23          	sd	s5,24(sp)

   1b4ec:	04113423          	sd	ra,72(sp)

   1b4f0:	04813023          	sd	s0,64(sp)

   1b4f4:	02913c23          	sd	s1,56(sp)

   1b4f8:	03213823          	sd	s2,48(sp)

   1b4fc:	03313423          	sd	s3,40(sp)

   1b500:	03413023          	sd	s4,32(sp)

   1b504:	01613823          	sd	s6,16(sp)

   1b508:	01713423          	sd	s7,8(sp)

   1b50c:	03279713          	slli	a4,a5,0x32

   1b510:	00060a93          	mv	s5,a2

   1b514:	0c075063          	bgez	a4,1b5d4 <__sprint_r.part.0+0xf4>

   1b518:	01063703          	ld	a4,16(a2)

   1b51c:	00058913          	mv	s2,a1

   1b520:	00050993          	mv	s3,a0

   1b524:	00063b03          	ld	s6,0(a2)

   1b528:	fff00a13          	li	s4,-1

   1b52c:	0a070063          	beqz	a4,1b5cc <__sprint_r.part.0+0xec>

   1b530:	008b3783          	ld	a5,8(s6)

   1b534:	000b3403          	ld	s0,0(s6)

   1b538:	0027d793          	srli	a5,a5,0x2

   1b53c:	00078b9b          	sext.w	s7,a5

   1b540:	07705c63          	blez	s7,1b5b8 <__sprint_r.part.0+0xd8>

   1b544:	fff7849b          	addiw	s1,a5,-1

   1b548:	02049493          	slli	s1,s1,0x20

   1b54c:	01e4d493          	srli	s1,s1,0x1e

   1b550:	00440793          	addi	a5,s0,4

   1b554:	00f484b3          	add	s1,s1,a5

   1b558:	0080006f          	j	1b560 <__sprint_r.part.0+0x80>

   1b55c:	04848c63          	beq	s1,s0,1b5b4 <__sprint_r.part.0+0xd4>

   1b560:	00042583          	lw	a1,0(s0)

   1b564:	00090613          	mv	a2,s2

   1b568:	00098513          	mv	a0,s3

   1b56c:	6ec010ef          	jal	ra,1cc58 <_fputwc_r>

   1b570:	0005051b          	sext.w	a0,a0

   1b574:	00440413          	addi	s0,s0,4

   1b578:	ff4512e3          	bne	a0,s4,1b55c <__sprint_r.part.0+0x7c>

   1b57c:	fff00513          	li	a0,-1

   1b580:	04813083          	ld	ra,72(sp)

   1b584:	04013403          	ld	s0,64(sp)

   1b588:	000ab823          	sd	zero,16(s5)

   1b58c:	000aa423          	sw	zero,8(s5)

   1b590:	03813483          	ld	s1,56(sp)

   1b594:	03013903          	ld	s2,48(sp)

   1b598:	02813983          	ld	s3,40(sp)

   1b59c:	02013a03          	ld	s4,32(sp)

   1b5a0:	01813a83          	ld	s5,24(sp)

   1b5a4:	01013b03          	ld	s6,16(sp)

   1b5a8:	00813b83          	ld	s7,8(sp)

   1b5ac:	05010113          	addi	sp,sp,80

   1b5b0:	00008067          	ret

   1b5b4:	010ab703          	ld	a4,16(s5)

   1b5b8:	002b9b93          	slli	s7,s7,0x2

   1b5bc:	41770733          	sub	a4,a4,s7

   1b5c0:	00eab823          	sd	a4,16(s5)

   1b5c4:	010b0b13          	addi	s6,s6,16

   1b5c8:	f60714e3          	bnez	a4,1b530 <__sprint_r.part.0+0x50>

   1b5cc:	00000513          	li	a0,0

   1b5d0:	fb1ff06f          	j	1b580 <__sprint_r.part.0+0xa0>

   1b5d4:	798010ef          	jal	ra,1cd6c <__sfvwrite_r>

   1b5d8:	fa9ff06f          	j	1b580 <__sprint_r.part.0+0xa0>



000000000001b5dc <__sprint_r>:

   1b5dc:	01063703          	ld	a4,16(a2)

   1b5e0:	00070463          	beqz	a4,1b5e8 <__sprint_r+0xc>

   1b5e4:	efdff06f          	j	1b4e0 <__sprint_r.part.0>

   1b5e8:	00062423          	sw	zero,8(a2)

   1b5ec:	00000513          	li	a0,0

   1b5f0:	00008067          	ret



000000000001b5f4 <_vfiprintf_r>:

   1b5f4:	e2010113          	addi	sp,sp,-480

   1b5f8:	1d213023          	sd	s2,448(sp)

   1b5fc:	1b313c23          	sd	s3,440(sp)

   1b600:	19a13023          	sd	s10,384(sp)

   1b604:	1c113c23          	sd	ra,472(sp)

   1b608:	1c813823          	sd	s0,464(sp)

   1b60c:	1c913423          	sd	s1,456(sp)

   1b610:	1b413823          	sd	s4,432(sp)

   1b614:	1b513423          	sd	s5,424(sp)

   1b618:	1b613023          	sd	s6,416(sp)

   1b61c:	19713c23          	sd	s7,408(sp)

   1b620:	19813823          	sd	s8,400(sp)

   1b624:	19913423          	sd	s9,392(sp)

   1b628:	17b13c23          	sd	s11,376(sp)

   1b62c:	00d13823          	sd	a3,16(sp)

   1b630:	00050993          	mv	s3,a0

   1b634:	00058913          	mv	s2,a1

   1b638:	00060d13          	mv	s10,a2

   1b63c:	00050663          	beqz	a0,1b648 <_vfiprintf_r+0x54>

   1b640:	05052783          	lw	a5,80(a0)

   1b644:	0a078ce3          	beqz	a5,1befc <_vfiprintf_r+0x908>

   1b648:	01091703          	lh	a4,16(s2)

   1b64c:	03071793          	slli	a5,a4,0x30

   1b650:	0307d793          	srli	a5,a5,0x30

   1b654:	03279693          	slli	a3,a5,0x32

   1b658:	0206c663          	bltz	a3,1b684 <_vfiprintf_r+0x90>

   1b65c:	0ac92683          	lw	a3,172(s2)

   1b660:	000027b7          	lui	a5,0x2

   1b664:	00f767b3          	or	a5,a4,a5

   1b668:	ffffe737          	lui	a4,0xffffe

   1b66c:	fff70713          	addi	a4,a4,-1 # ffffffffffffdfff <__BSS_END__+0xfffffffffffd953f>

   1b670:	00e6f733          	and	a4,a3,a4

   1b674:	00f91823          	sh	a5,16(s2)

   1b678:	03079793          	slli	a5,a5,0x30

   1b67c:	0ae92623          	sw	a4,172(s2)

   1b680:	0307d793          	srli	a5,a5,0x30

   1b684:	0087f713          	andi	a4,a5,8

   1b688:	14070263          	beqz	a4,1b7cc <_vfiprintf_r+0x1d8>

   1b68c:	01893703          	ld	a4,24(s2)

   1b690:	12070e63          	beqz	a4,1b7cc <_vfiprintf_r+0x1d8>

   1b694:	01a7f793          	andi	a5,a5,26

   1b698:	00a00713          	li	a4,10

   1b69c:	14e78863          	beq	a5,a4,1b7ec <_vfiprintf_r+0x1f8>

   1b6a0:	ffff87b7          	lui	a5,0xffff8

   1b6a4:	0f010413          	addi	s0,sp,240

   1b6a8:	8307c793          	xori	a5,a5,-2000

   1b6ac:	06813823          	sd	s0,112(sp)

   1b6b0:	08013023          	sd	zero,128(sp)

   1b6b4:	06012c23          	sw	zero,120(sp)

   1b6b8:	00040d93          	mv	s11,s0

   1b6bc:	02013023          	sd	zero,32(sp)

   1b6c0:	04013023          	sd	zero,64(sp)

   1b6c4:	04013823          	sd	zero,80(sp)

   1b6c8:	04013423          	sd	zero,72(sp)

   1b6cc:	00013423          	sd	zero,8(sp)

   1b6d0:	00007a97          	auipc	s5,0x7

   1b6d4:	d10a8a93          	addi	s5,s5,-752 # 223e0 <zeroes.4526+0x10>

   1b6d8:	04f13c23          	sd	a5,88(sp)

   1b6dc:	000d4783          	lbu	a5,0(s10)

   1b6e0:	12078e63          	beqz	a5,1b81c <_vfiprintf_r+0x228>

   1b6e4:	02500693          	li	a3,37

   1b6e8:	52d782e3          	beq	a5,a3,1c40c <_vfiprintf_r+0xe18>

   1b6ec:	000d0493          	mv	s1,s10

   1b6f0:	00c0006f          	j	1b6fc <_vfiprintf_r+0x108>

   1b6f4:	10d78e63          	beq	a5,a3,1b810 <_vfiprintf_r+0x21c>

   1b6f8:	000a0493          	mv	s1,s4

   1b6fc:	0014c783          	lbu	a5,1(s1)

   1b700:	00148a13          	addi	s4,s1,1

   1b704:	fe0798e3          	bnez	a5,1b6f4 <_vfiprintf_r+0x100>

   1b708:	41aa0b3b          	subw	s6,s4,s10

   1b70c:	100b0863          	beqz	s6,1b81c <_vfiprintf_r+0x228>

   1b710:	07812783          	lw	a5,120(sp)

   1b714:	08013683          	ld	a3,128(sp)

   1b718:	01adb023          	sd	s10,0(s11)

   1b71c:	0017861b          	addiw	a2,a5,1

   1b720:	00db06b3          	add	a3,s6,a3

   1b724:	016db423          	sd	s6,8(s11)

   1b728:	08d13023          	sd	a3,128(sp)

   1b72c:	06c12c23          	sw	a2,120(sp)

   1b730:	00700793          	li	a5,7

   1b734:	010d8d93          	addi	s11,s11,16

   1b738:	02c7d063          	bge	a5,a2,1b758 <_vfiprintf_r+0x164>

   1b73c:	48068ee3          	beqz	a3,1c3d8 <_vfiprintf_r+0xde4>

   1b740:	07010613          	addi	a2,sp,112

   1b744:	00090593          	mv	a1,s2

   1b748:	00098513          	mv	a0,s3

   1b74c:	d95ff0ef          	jal	ra,1b4e0 <__sprint_r.part.0>

   1b750:	0e051263          	bnez	a0,1b834 <_vfiprintf_r+0x240>

   1b754:	00040d93          	mv	s11,s0

   1b758:	00813703          	ld	a4,8(sp)

   1b75c:	0014c783          	lbu	a5,1(s1)

   1b760:	0167073b          	addw	a4,a4,s6

   1b764:	00e13423          	sd	a4,8(sp)

   1b768:	0a078a63          	beqz	a5,1b81c <_vfiprintf_r+0x228>

   1b76c:	001a0d13          	addi	s10,s4,1

   1b770:	001a4603          	lbu	a2,1(s4)

   1b774:	060103a3          	sb	zero,103(sp)

   1b778:	fff00c13          	li	s8,-1

   1b77c:	00000493          	li	s1,0

   1b780:	00000c93          	li	s9,0

   1b784:	00900a13          	li	s4,9

   1b788:	02a00b13          	li	s6,42

   1b78c:	001d0d13          	addi	s10,s10,1

   1b790:	0006061b          	sext.w	a2,a2

   1b794:	05a00513          	li	a0,90

   1b798:	fe06079b          	addiw	a5,a2,-32

   1b79c:	0007859b          	sext.w	a1,a5

   1b7a0:	1ab56a63          	bltu	a0,a1,1b954 <_vfiprintf_r+0x360>

   1b7a4:	02079793          	slli	a5,a5,0x20

   1b7a8:	01e7d793          	srli	a5,a5,0x1e

   1b7ac:	015787b3          	add	a5,a5,s5

   1b7b0:	0007a783          	lw	a5,0(a5) # ffffffffffff8000 <__BSS_END__+0xfffffffffffd3540>

   1b7b4:	015787b3          	add	a5,a5,s5

   1b7b8:	00078067          	jr	a5

   1b7bc:	010ce893          	ori	a7,s9,16

   1b7c0:	00088c9b          	sext.w	s9,a7

   1b7c4:	000d4603          	lbu	a2,0(s10)

   1b7c8:	fc5ff06f          	j	1b78c <_vfiprintf_r+0x198>

   1b7cc:	00090593          	mv	a1,s2

   1b7d0:	00098513          	mv	a0,s3

   1b7d4:	ddcf70ef          	jal	ra,12db0 <__swsetup_r>

   1b7d8:	740510e3          	bnez	a0,1c718 <_vfiprintf_r+0x1124>

   1b7dc:	01095783          	lhu	a5,16(s2)

   1b7e0:	00a00713          	li	a4,10

   1b7e4:	01a7f793          	andi	a5,a5,26

   1b7e8:	eae79ce3          	bne	a5,a4,1b6a0 <_vfiprintf_r+0xac>

   1b7ec:	01291783          	lh	a5,18(s2)

   1b7f0:	ea07c8e3          	bltz	a5,1b6a0 <_vfiprintf_r+0xac>

   1b7f4:	01013683          	ld	a3,16(sp)

   1b7f8:	000d0613          	mv	a2,s10

   1b7fc:	00090593          	mv	a1,s2

   1b800:	00098513          	mv	a0,s3

   1b804:	77d000ef          	jal	ra,1c780 <__sbprintf>

   1b808:	00a13423          	sd	a0,8(sp)

   1b80c:	0340006f          	j	1b840 <_vfiprintf_r+0x24c>

   1b810:	41aa0b3b          	subw	s6,s4,s10

   1b814:	f40b0ce3          	beqz	s6,1b76c <_vfiprintf_r+0x178>

   1b818:	ef9ff06f          	j	1b710 <_vfiprintf_r+0x11c>

   1b81c:	08013783          	ld	a5,128(sp)

   1b820:	00078a63          	beqz	a5,1b834 <_vfiprintf_r+0x240>

   1b824:	07010613          	addi	a2,sp,112

   1b828:	00090593          	mv	a1,s2

   1b82c:	00098513          	mv	a0,s3

   1b830:	cb1ff0ef          	jal	ra,1b4e0 <__sprint_r.part.0>

   1b834:	01095783          	lhu	a5,16(s2)

   1b838:	0407f793          	andi	a5,a5,64

   1b83c:	6c079ee3          	bnez	a5,1c718 <_vfiprintf_r+0x1124>

   1b840:	1d813083          	ld	ra,472(sp)

   1b844:	1d013403          	ld	s0,464(sp)

   1b848:	00813503          	ld	a0,8(sp)

   1b84c:	1c813483          	ld	s1,456(sp)

   1b850:	1c013903          	ld	s2,448(sp)

   1b854:	1b813983          	ld	s3,440(sp)

   1b858:	1b013a03          	ld	s4,432(sp)

   1b85c:	1a813a83          	ld	s5,424(sp)

   1b860:	1a013b03          	ld	s6,416(sp)

   1b864:	19813b83          	ld	s7,408(sp)

   1b868:	19013c03          	ld	s8,400(sp)

   1b86c:	18813c83          	ld	s9,392(sp)

   1b870:	18013d03          	ld	s10,384(sp)

   1b874:	17813d83          	ld	s11,376(sp)

   1b878:	1e010113          	addi	sp,sp,480

   1b87c:	00008067          	ret

   1b880:	01013703          	ld	a4,16(sp)

   1b884:	00006797          	auipc	a5,0x6

   1b888:	5c478793          	addi	a5,a5,1476 # 21e48 <zeroes.4541+0x78>

   1b88c:	02f13023          	sd	a5,32(sp)

   1b890:	020cf793          	andi	a5,s9,32

   1b894:	00870593          	addi	a1,a4,8

   1b898:	64078063          	beqz	a5,1bed8 <_vfiprintf_r+0x8e4>

   1b89c:	00073b03          	ld	s6,0(a4)

   1b8a0:	001cf513          	andi	a0,s9,1

   1b8a4:	00050e63          	beqz	a0,1b8c0 <_vfiprintf_r+0x2cc>

   1b8a8:	000b0c63          	beqz	s6,1b8c0 <_vfiprintf_r+0x2cc>

   1b8ac:	002ce893          	ori	a7,s9,2

   1b8b0:	03000513          	li	a0,48

   1b8b4:	06a10423          	sb	a0,104(sp)

   1b8b8:	06c104a3          	sb	a2,105(sp)

   1b8bc:	00088c9b          	sext.w	s9,a7

   1b8c0:	bffcf893          	andi	a7,s9,-1025

   1b8c4:	00088a1b          	sext.w	s4,a7

   1b8c8:	00b13823          	sd	a1,16(sp)

   1b8cc:	00200613          	li	a2,2

   1b8d0:	060103a3          	sb	zero,103(sp)

   1b8d4:	fff00593          	li	a1,-1

   1b8d8:	58bc0263          	beq	s8,a1,1be5c <_vfiprintf_r+0x868>

   1b8dc:	f7fa7893          	andi	a7,s4,-129

   1b8e0:	00088c9b          	sext.w	s9,a7

   1b8e4:	0c0b18e3          	bnez	s6,1c1b4 <_vfiprintf_r+0xbc0>

   1b8e8:	620c1463          	bnez	s8,1bf10 <_vfiprintf_r+0x91c>

   1b8ec:	2e061ee3          	bnez	a2,1c3e8 <_vfiprintf_r+0xdf4>

   1b8f0:	001a7b13          	andi	s6,s4,1

   1b8f4:	0ec10b93          	addi	s7,sp,236

   1b8f8:	320b18e3          	bnez	s6,1c428 <_vfiprintf_r+0xe34>

   1b8fc:	000c0793          	mv	a5,s8

   1b900:	016c5463          	bge	s8,s6,1b908 <_vfiprintf_r+0x314>

   1b904:	000b0793          	mv	a5,s6

   1b908:	06714603          	lbu	a2,103(sp)

   1b90c:	00078a1b          	sext.w	s4,a5

   1b910:	06060063          	beqz	a2,1b970 <_vfiprintf_r+0x37c>

   1b914:	00178a1b          	addiw	s4,a5,1

   1b918:	0580006f          	j	1b970 <_vfiprintf_r+0x37c>

   1b91c:	00000493          	li	s1,0

   1b920:	001d0d13          	addi	s10,s10,1

   1b924:	fffd4583          	lbu	a1,-1(s10)

   1b928:	0024979b          	slliw	a5,s1,0x2

   1b92c:	009784bb          	addw	s1,a5,s1

   1b930:	fd06061b          	addiw	a2,a2,-48

   1b934:	0014949b          	slliw	s1,s1,0x1

   1b938:	fd05879b          	addiw	a5,a1,-48

   1b93c:	009604bb          	addw	s1,a2,s1

   1b940:	0005861b          	sext.w	a2,a1

   1b944:	fcfa7ee3          	bgeu	s4,a5,1b920 <_vfiprintf_r+0x32c>

   1b948:	fe06079b          	addiw	a5,a2,-32

   1b94c:	0007859b          	sext.w	a1,a5

   1b950:	e4b57ae3          	bgeu	a0,a1,1b7a4 <_vfiprintf_r+0x1b0>

   1b954:	ec0604e3          	beqz	a2,1b81c <_vfiprintf_r+0x228>

   1b958:	08c10423          	sb	a2,136(sp)

   1b95c:	060103a3          	sb	zero,103(sp)

   1b960:	00100a13          	li	s4,1

   1b964:	00100b13          	li	s6,1

   1b968:	08810b93          	addi	s7,sp,136

   1b96c:	00000c13          	li	s8,0

   1b970:	002cfe93          	andi	t4,s9,2

   1b974:	000e8e9b          	sext.w	t4,t4

   1b978:	000e8463          	beqz	t4,1b980 <_vfiprintf_r+0x38c>

   1b97c:	002a0a1b          	addiw	s4,s4,2

   1b980:	07812603          	lw	a2,120(sp)

   1b984:	084cf293          	andi	t0,s9,132

   1b988:	08013783          	ld	a5,128(sp)

   1b98c:	0016051b          	addiw	a0,a2,1

   1b990:	00050593          	mv	a1,a0

   1b994:	00029663          	bnez	t0,1b9a0 <_vfiprintf_r+0x3ac>

   1b998:	41448e3b          	subw	t3,s1,s4

   1b99c:	03c040e3          	bgtz	t3,1c1bc <_vfiprintf_r+0xbc8>

   1b9a0:	06714e03          	lbu	t3,103(sp)

   1b9a4:	010d8593          	addi	a1,s11,16

   1b9a8:	020e0c63          	beqz	t3,1b9e0 <_vfiprintf_r+0x3ec>

   1b9ac:	06710613          	addi	a2,sp,103

   1b9b0:	00178793          	addi	a5,a5,1

   1b9b4:	00cdb023          	sd	a2,0(s11)

   1b9b8:	00100613          	li	a2,1

   1b9bc:	00cdb423          	sd	a2,8(s11)

   1b9c0:	08f13023          	sd	a5,128(sp)

   1b9c4:	06a12c23          	sw	a0,120(sp)

   1b9c8:	00700713          	li	a4,7

   1b9cc:	76a74663          	blt	a4,a0,1c138 <_vfiprintf_r+0xb44>

   1b9d0:	00050613          	mv	a2,a0

   1b9d4:	00058d93          	mv	s11,a1

   1b9d8:	0015051b          	addiw	a0,a0,1

   1b9dc:	01058593          	addi	a1,a1,16

   1b9e0:	040e8e63          	beqz	t4,1ba3c <_vfiprintf_r+0x448>

   1b9e4:	06810613          	addi	a2,sp,104

   1b9e8:	00278793          	addi	a5,a5,2

   1b9ec:	00cdb023          	sd	a2,0(s11)

   1b9f0:	00200613          	li	a2,2

   1b9f4:	00cdb423          	sd	a2,8(s11)

   1b9f8:	08f13023          	sd	a5,128(sp)

   1b9fc:	06a12c23          	sw	a0,120(sp)

   1ba00:	00700713          	li	a4,7

   1ba04:	78a75e63          	bge	a4,a0,1c1a0 <_vfiprintf_r+0xbac>

   1ba08:	1e0788e3          	beqz	a5,1c3f8 <_vfiprintf_r+0xe04>

   1ba0c:	07010613          	addi	a2,sp,112

   1ba10:	00090593          	mv	a1,s2

   1ba14:	00098513          	mv	a0,s3

   1ba18:	00513c23          	sd	t0,24(sp)

   1ba1c:	ac5ff0ef          	jal	ra,1b4e0 <__sprint_r.part.0>

   1ba20:	e0051ae3          	bnez	a0,1b834 <_vfiprintf_r+0x240>

   1ba24:	07812603          	lw	a2,120(sp)

   1ba28:	08013783          	ld	a5,128(sp)

   1ba2c:	01813283          	ld	t0,24(sp)

   1ba30:	10010593          	addi	a1,sp,256

   1ba34:	0016051b          	addiw	a0,a2,1

   1ba38:	00040d93          	mv	s11,s0

   1ba3c:	08000e13          	li	t3,128

   1ba40:	51c28c63          	beq	t0,t3,1bf58 <_vfiprintf_r+0x964>

   1ba44:	416c0c3b          	subw	s8,s8,s6

   1ba48:	61804063          	bgtz	s8,1c048 <_vfiprintf_r+0xa54>

   1ba4c:	00fb07b3          	add	a5,s6,a5

   1ba50:	017db023          	sd	s7,0(s11)

   1ba54:	016db423          	sd	s6,8(s11)

   1ba58:	08f13023          	sd	a5,128(sp)

   1ba5c:	06a12c23          	sw	a0,120(sp)

   1ba60:	00700713          	li	a4,7

   1ba64:	02a75263          	bge	a4,a0,1ba88 <_vfiprintf_r+0x494>

   1ba68:	02078ce3          	beqz	a5,1c2a0 <_vfiprintf_r+0xcac>

   1ba6c:	07010613          	addi	a2,sp,112

   1ba70:	00090593          	mv	a1,s2

   1ba74:	00098513          	mv	a0,s3

   1ba78:	a69ff0ef          	jal	ra,1b4e0 <__sprint_r.part.0>

   1ba7c:	da051ce3          	bnez	a0,1b834 <_vfiprintf_r+0x240>

   1ba80:	08013783          	ld	a5,128(sp)

   1ba84:	00040593          	mv	a1,s0

   1ba88:	004cf893          	andi	a7,s9,4

   1ba8c:	00088663          	beqz	a7,1ba98 <_vfiprintf_r+0x4a4>

   1ba90:	41448b3b          	subw	s6,s1,s4

   1ba94:	036042e3          	bgtz	s6,1c2b8 <_vfiprintf_r+0xcc4>

   1ba98:	00048713          	mv	a4,s1

   1ba9c:	0144d463          	bge	s1,s4,1baa4 <_vfiprintf_r+0x4b0>

   1baa0:	000a0713          	mv	a4,s4

   1baa4:	00813683          	ld	a3,8(sp)

   1baa8:	00d7073b          	addw	a4,a4,a3

   1baac:	00e13423          	sd	a4,8(sp)

   1bab0:	66079063          	bnez	a5,1c110 <_vfiprintf_r+0xb1c>

   1bab4:	06012c23          	sw	zero,120(sp)

   1bab8:	00040d93          	mv	s11,s0

   1babc:	c21ff06f          	j	1b6dc <_vfiprintf_r+0xe8>

   1bac0:	01013703          	ld	a4,16(sp)

   1bac4:	060103a3          	sb	zero,103(sp)

   1bac8:	00100a13          	li	s4,1

   1bacc:	00072783          	lw	a5,0(a4)

   1bad0:	00870713          	addi	a4,a4,8

   1bad4:	00e13823          	sd	a4,16(sp)

   1bad8:	08f10423          	sb	a5,136(sp)

   1badc:	00100b13          	li	s6,1

   1bae0:	08810b93          	addi	s7,sp,136

   1bae4:	e89ff06f          	j	1b96c <_vfiprintf_r+0x378>

   1bae8:	01013703          	ld	a4,16(sp)

   1baec:	020cf793          	andi	a5,s9,32

   1baf0:	00870593          	addi	a1,a4,8

   1baf4:	18079ce3          	bnez	a5,1c48c <_vfiprintf_r+0xe98>

   1baf8:	010cf793          	andi	a5,s9,16

   1bafc:	180798e3          	bnez	a5,1c48c <_vfiprintf_r+0xe98>

   1bb00:	01013783          	ld	a5,16(sp)

   1bb04:	040cf613          	andi	a2,s9,64

   1bb08:	0007a783          	lw	a5,0(a5)

   1bb0c:	320602e3          	beqz	a2,1c630 <_vfiprintf_r+0x103c>

   1bb10:	03079b13          	slli	s6,a5,0x30

   1bb14:	030b5b13          	srli	s6,s6,0x30

   1bb18:	00b13823          	sd	a1,16(sp)

   1bb1c:	000c8a13          	mv	s4,s9

   1bb20:	00100613          	li	a2,1

   1bb24:	dadff06f          	j	1b8d0 <_vfiprintf_r+0x2dc>

   1bb28:	080ce893          	ori	a7,s9,128

   1bb2c:	00088c9b          	sext.w	s9,a7

   1bb30:	000d4603          	lbu	a2,0(s10)

   1bb34:	c59ff06f          	j	1b78c <_vfiprintf_r+0x198>

   1bb38:	000d4603          	lbu	a2,0(s10)

   1bb3c:	001d0793          	addi	a5,s10,1

   1bb40:	416600e3          	beq	a2,s6,1c740 <_vfiprintf_r+0x114c>

   1bb44:	fd06059b          	addiw	a1,a2,-48

   1bb48:	00078d13          	mv	s10,a5

   1bb4c:	00000c13          	li	s8,0

   1bb50:	c4ba64e3          	bltu	s4,a1,1b798 <_vfiprintf_r+0x1a4>

   1bb54:	001d0d13          	addi	s10,s10,1

   1bb58:	002c179b          	slliw	a5,s8,0x2

   1bb5c:	fffd4603          	lbu	a2,-1(s10)

   1bb60:	018786bb          	addw	a3,a5,s8

   1bb64:	0016969b          	slliw	a3,a3,0x1

   1bb68:	00b68c3b          	addw	s8,a3,a1

   1bb6c:	fd06059b          	addiw	a1,a2,-48

   1bb70:	feba72e3          	bgeu	s4,a1,1bb54 <_vfiprintf_r+0x560>

   1bb74:	c25ff06f          	j	1b798 <_vfiprintf_r+0x1a4>

   1bb78:	000d4603          	lbu	a2,0(s10)

   1bb7c:	004ce893          	ori	a7,s9,4

   1bb80:	00088c9b          	sext.w	s9,a7

   1bb84:	c09ff06f          	j	1b78c <_vfiprintf_r+0x198>

   1bb88:	02b00793          	li	a5,43

   1bb8c:	06f103a3          	sb	a5,103(sp)

   1bb90:	000d4603          	lbu	a2,0(s10)

   1bb94:	bf9ff06f          	j	1b78c <_vfiprintf_r+0x198>

   1bb98:	01013783          	ld	a5,16(sp)

   1bb9c:	000d4603          	lbu	a2,0(s10)

   1bba0:	0007a483          	lw	s1,0(a5)

   1bba4:	00878793          	addi	a5,a5,8

   1bba8:	00f13823          	sd	a5,16(sp)

   1bbac:	be04d0e3          	bgez	s1,1b78c <_vfiprintf_r+0x198>

   1bbb0:	409004bb          	negw	s1,s1

   1bbb4:	fc9ff06f          	j	1bb7c <_vfiprintf_r+0x588>

   1bbb8:	00098513          	mv	a0,s3

   1bbbc:	d69fa0ef          	jal	ra,16924 <_localeconv_r>

   1bbc0:	00853783          	ld	a5,8(a0)

   1bbc4:	00078513          	mv	a0,a5

   1bbc8:	04f13423          	sd	a5,72(sp)

   1bbcc:	890fd0ef          	jal	ra,18c5c <strlen>

   1bbd0:	04a13823          	sd	a0,80(sp)

   1bbd4:	00050b93          	mv	s7,a0

   1bbd8:	00098513          	mv	a0,s3

   1bbdc:	d49fa0ef          	jal	ra,16924 <_localeconv_r>

   1bbe0:	01053783          	ld	a5,16(a0)

   1bbe4:	000d4603          	lbu	a2,0(s10)

   1bbe8:	04f13023          	sd	a5,64(sp)

   1bbec:	ba0b80e3          	beqz	s7,1b78c <_vfiprintf_r+0x198>

   1bbf0:	b8078ee3          	beqz	a5,1b78c <_vfiprintf_r+0x198>

   1bbf4:	0007c783          	lbu	a5,0(a5)

   1bbf8:	b8078ae3          	beqz	a5,1b78c <_vfiprintf_r+0x198>

   1bbfc:	400ce893          	ori	a7,s9,1024

   1bc00:	00088c9b          	sext.w	s9,a7

   1bc04:	b89ff06f          	j	1b78c <_vfiprintf_r+0x198>

   1bc08:	001ce893          	ori	a7,s9,1

   1bc0c:	00088c9b          	sext.w	s9,a7

   1bc10:	000d4603          	lbu	a2,0(s10)

   1bc14:	b79ff06f          	j	1b78c <_vfiprintf_r+0x198>

   1bc18:	06714783          	lbu	a5,103(sp)

   1bc1c:	000d4603          	lbu	a2,0(s10)

   1bc20:	b60796e3          	bnez	a5,1b78c <_vfiprintf_r+0x198>

   1bc24:	02000793          	li	a5,32

   1bc28:	06f103a3          	sb	a5,103(sp)

   1bc2c:	b61ff06f          	j	1b78c <_vfiprintf_r+0x198>

   1bc30:	010ce793          	ori	a5,s9,16

   1bc34:	0007889b          	sext.w	a7,a5

   1bc38:	01013783          	ld	a5,16(sp)

   1bc3c:	00878613          	addi	a2,a5,8

   1bc40:	01013783          	ld	a5,16(sp)

   1bc44:	0007bb03          	ld	s6,0(a5)

   1bc48:	00c13823          	sd	a2,16(sp)

   1bc4c:	bff8f893          	andi	a7,a7,-1025

   1bc50:	00088a1b          	sext.w	s4,a7

   1bc54:	00000613          	li	a2,0

   1bc58:	c79ff06f          	j	1b8d0 <_vfiprintf_r+0x2dc>

   1bc5c:	01013783          	ld	a5,16(sp)

   1bc60:	010cee13          	ori	t3,s9,16

   1bc64:	000e0a1b          	sext.w	s4,t3

   1bc68:	00878593          	addi	a1,a5,8

   1bc6c:	01013783          	ld	a5,16(sp)

   1bc70:	0007b603          	ld	a2,0(a5)

   1bc74:	00b13823          	sd	a1,16(sp)

   1bc78:	00060b13          	mv	s6,a2

   1bc7c:	1c064463          	bltz	a2,1be44 <_vfiprintf_r+0x850>

   1bc80:	fff00613          	li	a2,-1

   1bc84:	00cc0a63          	beq	s8,a2,1bc98 <_vfiprintf_r+0x6a4>

   1bc88:	f7fa7893          	andi	a7,s4,-129

   1bc8c:	00088c9b          	sext.w	s9,a7

   1bc90:	740b0a63          	beqz	s6,1c3e4 <_vfiprintf_r+0xdf0>

   1bc94:	000c8a13          	mv	s4,s9

   1bc98:	00900613          	li	a2,9

   1bc9c:	056660e3          	bltu	a2,s6,1c4dc <_vfiprintf_r+0xee8>

   1bca0:	030b079b          	addiw	a5,s6,48

   1bca4:	0ef105a3          	sb	a5,235(sp)

   1bca8:	000a0c93          	mv	s9,s4

   1bcac:	00100b13          	li	s6,1

   1bcb0:	0eb10b93          	addi	s7,sp,235

   1bcb4:	c49ff06f          	j	1b8fc <_vfiprintf_r+0x308>

   1bcb8:	01013783          	ld	a5,16(sp)

   1bcbc:	010cee13          	ori	t3,s9,16

   1bcc0:	000e0a1b          	sext.w	s4,t3

   1bcc4:	00878593          	addi	a1,a5,8

   1bcc8:	01013783          	ld	a5,16(sp)

   1bccc:	00100613          	li	a2,1

   1bcd0:	0007bb03          	ld	s6,0(a5)

   1bcd4:	00b13823          	sd	a1,16(sp)

   1bcd8:	bf9ff06f          	j	1b8d0 <_vfiprintf_r+0x2dc>

   1bcdc:	01013783          	ld	a5,16(sp)

   1bce0:	060103a3          	sb	zero,103(sp)

   1bce4:	0007bb83          	ld	s7,0(a5)

   1bce8:	00878713          	addi	a4,a5,8

   1bcec:	0c0b86e3          	beqz	s7,1c5b8 <_vfiprintf_r+0xfc4>

   1bcf0:	fff00793          	li	a5,-1

   1bcf4:	00e13823          	sd	a4,16(sp)

   1bcf8:	7afc0863          	beq	s8,a5,1c4a8 <_vfiprintf_r+0xeb4>

   1bcfc:	000c0613          	mv	a2,s8

   1bd00:	00000593          	li	a1,0

   1bd04:	000b8513          	mv	a0,s7

   1bd08:	f80fb0ef          	jal	ra,17488 <memchr>

   1bd0c:	01013703          	ld	a4,16(sp)

   1bd10:	1c050ee3          	beqz	a0,1c6ec <_vfiprintf_r+0x10f8>

   1bd14:	41750b3b          	subw	s6,a0,s7

   1bd18:	00000c13          	li	s8,0

   1bd1c:	be1ff06f          	j	1b8fc <_vfiprintf_r+0x308>

   1bd20:	020ce893          	ori	a7,s9,32

   1bd24:	00088c9b          	sext.w	s9,a7

   1bd28:	000d4603          	lbu	a2,0(s10)

   1bd2c:	a61ff06f          	j	1b78c <_vfiprintf_r+0x198>

   1bd30:	01013783          	ld	a5,16(sp)

   1bd34:	05813703          	ld	a4,88(sp)

   1bd38:	002ce893          	ori	a7,s9,2

   1bd3c:	0007bb03          	ld	s6,0(a5)

   1bd40:	00878793          	addi	a5,a5,8

   1bd44:	00f13823          	sd	a5,16(sp)

   1bd48:	00006797          	auipc	a5,0x6

   1bd4c:	0e878793          	addi	a5,a5,232 # 21e30 <zeroes.4541+0x60>

   1bd50:	00088a1b          	sext.w	s4,a7

   1bd54:	06e11423          	sh	a4,104(sp)

   1bd58:	02f13023          	sd	a5,32(sp)

   1bd5c:	00200613          	li	a2,2

   1bd60:	b71ff06f          	j	1b8d0 <_vfiprintf_r+0x2dc>

   1bd64:	01013703          	ld	a4,16(sp)

   1bd68:	020cf793          	andi	a5,s9,32

   1bd6c:	00870613          	addi	a2,a4,8

   1bd70:	70079a63          	bnez	a5,1c484 <_vfiprintf_r+0xe90>

   1bd74:	010cf793          	andi	a5,s9,16

   1bd78:	70079663          	bnez	a5,1c484 <_vfiprintf_r+0xe90>

   1bd7c:	01013783          	ld	a5,16(sp)

   1bd80:	040cf593          	andi	a1,s9,64

   1bd84:	0007a783          	lw	a5,0(a5)

   1bd88:	080588e3          	beqz	a1,1c618 <_vfiprintf_r+0x1024>

   1bd8c:	03079b13          	slli	s6,a5,0x30

   1bd90:	030b5b13          	srli	s6,s6,0x30

   1bd94:	000c8893          	mv	a7,s9

   1bd98:	00c13823          	sd	a2,16(sp)

   1bd9c:	eb1ff06f          	j	1bc4c <_vfiprintf_r+0x658>

   1bda0:	01013703          	ld	a4,16(sp)

   1bda4:	020cf793          	andi	a5,s9,32

   1bda8:	00073683          	ld	a3,0(a4)

   1bdac:	00870713          	addi	a4,a4,8

   1bdb0:	00e13823          	sd	a4,16(sp)

   1bdb4:	14079863          	bnez	a5,1bf04 <_vfiprintf_r+0x910>

   1bdb8:	010cf793          	andi	a5,s9,16

   1bdbc:	14079463          	bnez	a5,1bf04 <_vfiprintf_r+0x910>

   1bdc0:	040cf793          	andi	a5,s9,64

   1bdc4:	0c0798e3          	bnez	a5,1c694 <_vfiprintf_r+0x10a0>

   1bdc8:	200cf893          	andi	a7,s9,512

   1bdcc:	00813783          	ld	a5,8(sp)

   1bdd0:	160884e3          	beqz	a7,1c738 <_vfiprintf_r+0x1144>

   1bdd4:	00f68023          	sb	a5,0(a3)

   1bdd8:	905ff06f          	j	1b6dc <_vfiprintf_r+0xe8>

   1bddc:	000d4603          	lbu	a2,0(s10)

   1bde0:	06c00793          	li	a5,108

   1bde4:	7cf60063          	beq	a2,a5,1c5a4 <_vfiprintf_r+0xfb0>

   1bde8:	010ce893          	ori	a7,s9,16

   1bdec:	00088c9b          	sext.w	s9,a7

   1bdf0:	99dff06f          	j	1b78c <_vfiprintf_r+0x198>

   1bdf4:	000d4603          	lbu	a2,0(s10)

   1bdf8:	06800793          	li	a5,104

   1bdfc:	78f60a63          	beq	a2,a5,1c590 <_vfiprintf_r+0xf9c>

   1be00:	040ce893          	ori	a7,s9,64

   1be04:	00088c9b          	sext.w	s9,a7

   1be08:	985ff06f          	j	1b78c <_vfiprintf_r+0x198>

   1be0c:	01013703          	ld	a4,16(sp)

   1be10:	020cf793          	andi	a5,s9,32

   1be14:	00870593          	addi	a1,a4,8

   1be18:	68079463          	bnez	a5,1c4a0 <_vfiprintf_r+0xeac>

   1be1c:	010cf793          	andi	a5,s9,16

   1be20:	68079063          	bnez	a5,1c4a0 <_vfiprintf_r+0xeac>

   1be24:	040cf793          	andi	a5,s9,64

   1be28:	7c078863          	beqz	a5,1c5f8 <_vfiprintf_r+0x1004>

   1be2c:	01013783          	ld	a5,16(sp)

   1be30:	00b13823          	sd	a1,16(sp)

   1be34:	000c8a13          	mv	s4,s9

   1be38:	00079b03          	lh	s6,0(a5)

   1be3c:	000b0613          	mv	a2,s6

   1be40:	e40650e3          	bgez	a2,1bc80 <_vfiprintf_r+0x68c>

   1be44:	02d00613          	li	a2,45

   1be48:	06c103a3          	sb	a2,103(sp)

   1be4c:	fff00593          	li	a1,-1

   1be50:	41600b33          	neg	s6,s6

   1be54:	00100613          	li	a2,1

   1be58:	a8bc12e3          	bne	s8,a1,1b8dc <_vfiprintf_r+0x2e8>

   1be5c:	00100593          	li	a1,1

   1be60:	e2b60ce3          	beq	a2,a1,1bc98 <_vfiprintf_r+0x6a4>

   1be64:	00200593          	li	a1,2

   1be68:	0ab60e63          	beq	a2,a1,1bf24 <_vfiprintf_r+0x930>

   1be6c:	0ec10593          	addi	a1,sp,236

   1be70:	0080006f          	j	1be78 <_vfiprintf_r+0x884>

   1be74:	000b8593          	mv	a1,s7

   1be78:	007b7613          	andi	a2,s6,7

   1be7c:	03060613          	addi	a2,a2,48

   1be80:	fec58fa3          	sb	a2,-1(a1)

   1be84:	003b5b13          	srli	s6,s6,0x3

   1be88:	fff58b93          	addi	s7,a1,-1

   1be8c:	fe0b14e3          	bnez	s6,1be74 <_vfiprintf_r+0x880>

   1be90:	001a7793          	andi	a5,s4,1

   1be94:	0a078a63          	beqz	a5,1bf48 <_vfiprintf_r+0x954>

   1be98:	03000793          	li	a5,48

   1be9c:	0af60663          	beq	a2,a5,1bf48 <_vfiprintf_r+0x954>

   1bea0:	ffe58593          	addi	a1,a1,-2

   1bea4:	fefb8fa3          	sb	a5,-1(s7)

   1bea8:	0ec10793          	addi	a5,sp,236

   1beac:	40b78b3b          	subw	s6,a5,a1

   1beb0:	000a0c93          	mv	s9,s4

   1beb4:	00058b93          	mv	s7,a1

   1beb8:	a45ff06f          	j	1b8fc <_vfiprintf_r+0x308>

   1bebc:	01013703          	ld	a4,16(sp)

   1bec0:	00006797          	auipc	a5,0x6

   1bec4:	f7078793          	addi	a5,a5,-144 # 21e30 <zeroes.4541+0x60>

   1bec8:	02f13023          	sd	a5,32(sp)

   1becc:	020cf793          	andi	a5,s9,32

   1bed0:	00870593          	addi	a1,a4,8

   1bed4:	9c0794e3          	bnez	a5,1b89c <_vfiprintf_r+0x2a8>

   1bed8:	010cf793          	andi	a5,s9,16

   1bedc:	5a079c63          	bnez	a5,1c494 <_vfiprintf_r+0xea0>

   1bee0:	01013783          	ld	a5,16(sp)

   1bee4:	040cf513          	andi	a0,s9,64

   1bee8:	0007a783          	lw	a5,0(a5)

   1beec:	6e050a63          	beqz	a0,1c5e0 <_vfiprintf_r+0xfec>

   1bef0:	03079b13          	slli	s6,a5,0x30

   1bef4:	030b5b13          	srli	s6,s6,0x30

   1bef8:	9a9ff06f          	j	1b8a0 <_vfiprintf_r+0x2ac>

   1befc:	ff0f70ef          	jal	ra,136ec <__sinit>

   1bf00:	f48ff06f          	j	1b648 <_vfiprintf_r+0x54>

   1bf04:	00813783          	ld	a5,8(sp)

   1bf08:	00f6b023          	sd	a5,0(a3)

   1bf0c:	fd0ff06f          	j	1b6dc <_vfiprintf_r+0xe8>

   1bf10:	00100593          	li	a1,1

   1bf14:	7cb60863          	beq	a2,a1,1c6e4 <_vfiprintf_r+0x10f0>

   1bf18:	00200593          	li	a1,2

   1bf1c:	000c8a13          	mv	s4,s9

   1bf20:	f4b616e3          	bne	a2,a1,1be6c <_vfiprintf_r+0x878>

   1bf24:	0ec10b93          	addi	s7,sp,236

   1bf28:	02013783          	ld	a5,32(sp)

   1bf2c:	00fb7613          	andi	a2,s6,15

   1bf30:	fffb8b93          	addi	s7,s7,-1

   1bf34:	00c78633          	add	a2,a5,a2

   1bf38:	00064603          	lbu	a2,0(a2)

   1bf3c:	004b5b13          	srli	s6,s6,0x4

   1bf40:	00cb8023          	sb	a2,0(s7)

   1bf44:	fe0b12e3          	bnez	s6,1bf28 <_vfiprintf_r+0x934>

   1bf48:	0ec10793          	addi	a5,sp,236

   1bf4c:	41778b3b          	subw	s6,a5,s7

   1bf50:	000a0c93          	mv	s9,s4

   1bf54:	9a9ff06f          	j	1b8fc <_vfiprintf_r+0x308>

   1bf58:	41448e3b          	subw	t3,s1,s4

   1bf5c:	afc054e3          	blez	t3,1ba44 <_vfiprintf_r+0x450>

   1bf60:	01000e93          	li	t4,16

   1bf64:	7dced063          	bge	t4,t3,1c724 <_vfiprintf_r+0x1130>

   1bf68:	00006e97          	auipc	t4,0x6

   1bf6c:	5f8e8e93          	addi	t4,t4,1528 # 22560 <zeroes.4517>

   1bf70:	01000f13          	li	t5,16

   1bf74:	00700f93          	li	t6,7

   1bf78:	0180006f          	j	1bf90 <_vfiprintf_r+0x99c>

   1bf7c:	0026029b          	addiw	t0,a2,2

   1bf80:	010d8d93          	addi	s11,s11,16

   1bf84:	00050613          	mv	a2,a0

   1bf88:	ff0e0e1b          	addiw	t3,t3,-16

   1bf8c:	07cf5463          	bge	t5,t3,1bff4 <_vfiprintf_r+0xa00>

   1bf90:	0016051b          	addiw	a0,a2,1

   1bf94:	01078793          	addi	a5,a5,16

   1bf98:	01ddb023          	sd	t4,0(s11)

   1bf9c:	01edb423          	sd	t5,8(s11)

   1bfa0:	08f13023          	sd	a5,128(sp)

   1bfa4:	06a12c23          	sw	a0,120(sp)

   1bfa8:	fcafdae3          	bge	t6,a0,1bf7c <_vfiprintf_r+0x988>

   1bfac:	16078e63          	beqz	a5,1c128 <_vfiprintf_r+0xb34>

   1bfb0:	07010613          	addi	a2,sp,112

   1bfb4:	00090593          	mv	a1,s2

   1bfb8:	00098513          	mv	a0,s3

   1bfbc:	03d13423          	sd	t4,40(sp)

   1bfc0:	01c13c23          	sd	t3,24(sp)

   1bfc4:	d1cff0ef          	jal	ra,1b4e0 <__sprint_r.part.0>

   1bfc8:	860516e3          	bnez	a0,1b834 <_vfiprintf_r+0x240>

   1bfcc:	01813e03          	ld	t3,24(sp)

   1bfd0:	07812603          	lw	a2,120(sp)

   1bfd4:	01000f13          	li	t5,16

   1bfd8:	ff0e0e1b          	addiw	t3,t3,-16

   1bfdc:	08013783          	ld	a5,128(sp)

   1bfe0:	00040d93          	mv	s11,s0

   1bfe4:	0016029b          	addiw	t0,a2,1

   1bfe8:	02813e83          	ld	t4,40(sp)

   1bfec:	00700f93          	li	t6,7

   1bff0:	fbcf40e3          	blt	t5,t3,1bf90 <_vfiprintf_r+0x99c>

   1bff4:	010d8f13          	addi	t5,s11,16

   1bff8:	01c787b3          	add	a5,a5,t3

   1bffc:	01ddb023          	sd	t4,0(s11)

   1c000:	01cdb423          	sd	t3,8(s11)

   1c004:	08f13023          	sd	a5,128(sp)

   1c008:	06512c23          	sw	t0,120(sp)

   1c00c:	00700713          	li	a4,7

   1c010:	46575063          	bge	a4,t0,1c470 <_vfiprintf_r+0xe7c>

   1c014:	64078463          	beqz	a5,1c65c <_vfiprintf_r+0x1068>

   1c018:	07010613          	addi	a2,sp,112

   1c01c:	00090593          	mv	a1,s2

   1c020:	00098513          	mv	a0,s3

   1c024:	cbcff0ef          	jal	ra,1b4e0 <__sprint_r.part.0>

   1c028:	800516e3          	bnez	a0,1b834 <_vfiprintf_r+0x240>

   1c02c:	07812603          	lw	a2,120(sp)

   1c030:	416c0c3b          	subw	s8,s8,s6

   1c034:	08013783          	ld	a5,128(sp)

   1c038:	10010593          	addi	a1,sp,256

   1c03c:	0016051b          	addiw	a0,a2,1

   1c040:	00040d93          	mv	s11,s0

   1c044:	a18054e3          	blez	s8,1ba4c <_vfiprintf_r+0x458>

   1c048:	01000e13          	li	t3,16

   1c04c:	618e5063          	bge	t3,s8,1c64c <_vfiprintf_r+0x1058>

   1c050:	00006e97          	auipc	t4,0x6

   1c054:	510e8e93          	addi	t4,t4,1296 # 22560 <zeroes.4517>

   1c058:	00700f13          	li	t5,7

   1c05c:	0180006f          	j	1c074 <_vfiprintf_r+0xa80>

   1c060:	0026051b          	addiw	a0,a2,2

   1c064:	010d8d93          	addi	s11,s11,16

   1c068:	000f8613          	mv	a2,t6

   1c06c:	ff0c0c1b          	addiw	s8,s8,-16

   1c070:	078e5063          	bge	t3,s8,1c0d0 <_vfiprintf_r+0xadc>

   1c074:	00160f9b          	addiw	t6,a2,1

   1c078:	01078793          	addi	a5,a5,16

   1c07c:	01ddb023          	sd	t4,0(s11)

   1c080:	01cdb423          	sd	t3,8(s11)

   1c084:	08f13023          	sd	a5,128(sp)

   1c088:	07f12c23          	sw	t6,120(sp)

   1c08c:	fdff5ae3          	bge	t5,t6,1c060 <_vfiprintf_r+0xa6c>

   1c090:	06078863          	beqz	a5,1c100 <_vfiprintf_r+0xb0c>

   1c094:	07010613          	addi	a2,sp,112

   1c098:	00090593          	mv	a1,s2

   1c09c:	00098513          	mv	a0,s3

   1c0a0:	01d13c23          	sd	t4,24(sp)

   1c0a4:	c3cff0ef          	jal	ra,1b4e0 <__sprint_r.part.0>

   1c0a8:	f8051663          	bnez	a0,1b834 <_vfiprintf_r+0x240>

   1c0ac:	07812603          	lw	a2,120(sp)

   1c0b0:	01000e13          	li	t3,16

   1c0b4:	ff0c0c1b          	addiw	s8,s8,-16

   1c0b8:	08013783          	ld	a5,128(sp)

   1c0bc:	00040d93          	mv	s11,s0

   1c0c0:	0016051b          	addiw	a0,a2,1

   1c0c4:	01813e83          	ld	t4,24(sp)

   1c0c8:	00700f13          	li	t5,7

   1c0cc:	fb8e44e3          	blt	t3,s8,1c074 <_vfiprintf_r+0xa80>

   1c0d0:	010d8613          	addi	a2,s11,16

   1c0d4:	018787b3          	add	a5,a5,s8

   1c0d8:	01ddb023          	sd	t4,0(s11)

   1c0dc:	018db423          	sd	s8,8(s11)

   1c0e0:	08f13023          	sd	a5,128(sp)

   1c0e4:	06a12c23          	sw	a0,120(sp)

   1c0e8:	00700713          	li	a4,7

   1c0ec:	2aa74e63          	blt	a4,a0,1c3a8 <_vfiprintf_r+0xdb4>

   1c0f0:	0015051b          	addiw	a0,a0,1

   1c0f4:	01060593          	addi	a1,a2,16

   1c0f8:	00060d93          	mv	s11,a2

   1c0fc:	951ff06f          	j	1ba4c <_vfiprintf_r+0x458>

   1c100:	00100513          	li	a0,1

   1c104:	00000613          	li	a2,0

   1c108:	00040d93          	mv	s11,s0

   1c10c:	f61ff06f          	j	1c06c <_vfiprintf_r+0xa78>

   1c110:	07010613          	addi	a2,sp,112

   1c114:	00090593          	mv	a1,s2

   1c118:	00098513          	mv	a0,s3

   1c11c:	bc4ff0ef          	jal	ra,1b4e0 <__sprint_r.part.0>

   1c120:	98050ae3          	beqz	a0,1bab4 <_vfiprintf_r+0x4c0>

   1c124:	f10ff06f          	j	1b834 <_vfiprintf_r+0x240>

   1c128:	00100293          	li	t0,1

   1c12c:	00000613          	li	a2,0

   1c130:	00040d93          	mv	s11,s0

   1c134:	e55ff06f          	j	1bf88 <_vfiprintf_r+0x994>

   1c138:	04078663          	beqz	a5,1c184 <_vfiprintf_r+0xb90>

   1c13c:	07010613          	addi	a2,sp,112

   1c140:	00090593          	mv	a1,s2

   1c144:	00098513          	mv	a0,s3

   1c148:	02513423          	sd	t0,40(sp)

   1c14c:	01d13c23          	sd	t4,24(sp)

   1c150:	b90ff0ef          	jal	ra,1b4e0 <__sprint_r.part.0>

   1c154:	ee051063          	bnez	a0,1b834 <_vfiprintf_r+0x240>

   1c158:	07812603          	lw	a2,120(sp)

   1c15c:	08013783          	ld	a5,128(sp)

   1c160:	10010593          	addi	a1,sp,256

   1c164:	0016051b          	addiw	a0,a2,1

   1c168:	00040d93          	mv	s11,s0

   1c16c:	02813283          	ld	t0,40(sp)

   1c170:	01813e83          	ld	t4,24(sp)

   1c174:	86dff06f          	j	1b9e0 <_vfiprintf_r+0x3ec>

   1c178:	2c079063          	bnez	a5,1c438 <_vfiprintf_r+0xe44>

   1c17c:	06714703          	lbu	a4,103(sp)

   1c180:	4e071c63          	bnez	a4,1c678 <_vfiprintf_r+0x1084>

   1c184:	280e8863          	beqz	t4,1c414 <_vfiprintf_r+0xe20>

   1c188:	06810793          	addi	a5,sp,104

   1c18c:	0ef13823          	sd	a5,240(sp)

   1c190:	00200793          	li	a5,2

   1c194:	0ef13c23          	sd	a5,248(sp)

   1c198:	00100513          	li	a0,1

   1c19c:	10010593          	addi	a1,sp,256

   1c1a0:	00050613          	mv	a2,a0

   1c1a4:	00058d93          	mv	s11,a1

   1c1a8:	0015051b          	addiw	a0,a0,1

   1c1ac:	01058593          	addi	a1,a1,16

   1c1b0:	88dff06f          	j	1ba3c <_vfiprintf_r+0x448>

   1c1b4:	000c8a13          	mv	s4,s9

   1c1b8:	ca5ff06f          	j	1be5c <_vfiprintf_r+0x868>

   1c1bc:	01000f13          	li	t5,16

   1c1c0:	53cf5e63          	bge	t5,t3,1c6fc <_vfiprintf_r+0x1108>

   1c1c4:	00006f17          	auipc	t5,0x6

   1c1c8:	38cf0f13          	addi	t5,t5,908 # 22550 <blanks.4516>

   1c1cc:	01000f93          	li	t6,16

   1c1d0:	00700393          	li	t2,7

   1c1d4:	01c0006f          	j	1c1f0 <_vfiprintf_r+0xbfc>

   1c1d8:	0026059b          	addiw	a1,a2,2

   1c1dc:	010d8d93          	addi	s11,s11,16

   1c1e0:	00050613          	mv	a2,a0

   1c1e4:	ff0e0e1b          	addiw	t3,t3,-16

   1c1e8:	07cfde63          	bge	t6,t3,1c264 <_vfiprintf_r+0xc70>

   1c1ec:	0016059b          	addiw	a1,a2,1

   1c1f0:	01078793          	addi	a5,a5,16

   1c1f4:	01edb023          	sd	t5,0(s11)

   1c1f8:	01fdb423          	sd	t6,8(s11)

   1c1fc:	08f13023          	sd	a5,128(sp)

   1c200:	0005851b          	sext.w	a0,a1

   1c204:	06b12c23          	sw	a1,120(sp)

   1c208:	fca3d8e3          	bge	t2,a0,1c1d8 <_vfiprintf_r+0xbe4>

   1c20c:	08078263          	beqz	a5,1c290 <_vfiprintf_r+0xc9c>

   1c210:	07010613          	addi	a2,sp,112

   1c214:	00090593          	mv	a1,s2

   1c218:	00098513          	mv	a0,s3

   1c21c:	03e13c23          	sd	t5,56(sp)

   1c220:	03c13823          	sd	t3,48(sp)

   1c224:	02513423          	sd	t0,40(sp)

   1c228:	01d13c23          	sd	t4,24(sp)

   1c22c:	ab4ff0ef          	jal	ra,1b4e0 <__sprint_r.part.0>

   1c230:	e0051263          	bnez	a0,1b834 <_vfiprintf_r+0x240>

   1c234:	03013e03          	ld	t3,48(sp)

   1c238:	07812603          	lw	a2,120(sp)

   1c23c:	01000f93          	li	t6,16

   1c240:	ff0e0e1b          	addiw	t3,t3,-16

   1c244:	08013783          	ld	a5,128(sp)

   1c248:	00040d93          	mv	s11,s0

   1c24c:	0016059b          	addiw	a1,a2,1

   1c250:	03813f03          	ld	t5,56(sp)

   1c254:	00700393          	li	t2,7

   1c258:	02813283          	ld	t0,40(sp)

   1c25c:	01813e83          	ld	t4,24(sp)

   1c260:	f9cfc6e3          	blt	t6,t3,1c1ec <_vfiprintf_r+0xbf8>

   1c264:	01c787b3          	add	a5,a5,t3

   1c268:	01edb023          	sd	t5,0(s11)

   1c26c:	01cdb423          	sd	t3,8(s11)

   1c270:	08f13023          	sd	a5,128(sp)

   1c274:	06b12c23          	sw	a1,120(sp)

   1c278:	00700613          	li	a2,7

   1c27c:	eeb64ee3          	blt	a2,a1,1c178 <_vfiprintf_r+0xb84>

   1c280:	010d8d93          	addi	s11,s11,16

   1c284:	0015851b          	addiw	a0,a1,1

   1c288:	00058613          	mv	a2,a1

   1c28c:	f14ff06f          	j	1b9a0 <_vfiprintf_r+0x3ac>

   1c290:	00000613          	li	a2,0

   1c294:	00100593          	li	a1,1

   1c298:	00040d93          	mv	s11,s0

   1c29c:	f49ff06f          	j	1c1e4 <_vfiprintf_r+0xbf0>

   1c2a0:	06012c23          	sw	zero,120(sp)

   1c2a4:	004cf893          	andi	a7,s9,4

   1c2a8:	0e088263          	beqz	a7,1c38c <_vfiprintf_r+0xd98>

   1c2ac:	41448b3b          	subw	s6,s1,s4

   1c2b0:	0d605e63          	blez	s6,1c38c <_vfiprintf_r+0xd98>

   1c2b4:	00040593          	mv	a1,s0

   1c2b8:	01000713          	li	a4,16

   1c2bc:	07812683          	lw	a3,120(sp)

   1c2c0:	45675463          	bge	a4,s6,1c708 <_vfiprintf_r+0x1114>

   1c2c4:	00006f17          	auipc	t5,0x6

   1c2c8:	28cf0f13          	addi	t5,t5,652 # 22550 <blanks.4516>

   1c2cc:	01000c13          	li	s8,16

   1c2d0:	00700b93          	li	s7,7

   1c2d4:	0180006f          	j	1c2ec <_vfiprintf_r+0xcf8>

   1c2d8:	0026871b          	addiw	a4,a3,2

   1c2dc:	01058593          	addi	a1,a1,16

   1c2e0:	00060693          	mv	a3,a2

   1c2e4:	ff0b0b1b          	addiw	s6,s6,-16

   1c2e8:	056c5c63          	bge	s8,s6,1c340 <_vfiprintf_r+0xd4c>

   1c2ec:	0016861b          	addiw	a2,a3,1

   1c2f0:	01078793          	addi	a5,a5,16

   1c2f4:	01e5b023          	sd	t5,0(a1)

   1c2f8:	0185b423          	sd	s8,8(a1)

   1c2fc:	08f13023          	sd	a5,128(sp)

   1c300:	06c12c23          	sw	a2,120(sp)

   1c304:	fccbdae3          	bge	s7,a2,1c2d8 <_vfiprintf_r+0xce4>

   1c308:	06078a63          	beqz	a5,1c37c <_vfiprintf_r+0xd88>

   1c30c:	07010613          	addi	a2,sp,112

   1c310:	00090593          	mv	a1,s2

   1c314:	00098513          	mv	a0,s3

   1c318:	01e13c23          	sd	t5,24(sp)

   1c31c:	9c4ff0ef          	jal	ra,1b4e0 <__sprint_r.part.0>

   1c320:	d0051a63          	bnez	a0,1b834 <_vfiprintf_r+0x240>

   1c324:	07812683          	lw	a3,120(sp)

   1c328:	ff0b0b1b          	addiw	s6,s6,-16

   1c32c:	08013783          	ld	a5,128(sp)

   1c330:	00040593          	mv	a1,s0

   1c334:	0016871b          	addiw	a4,a3,1

   1c338:	01813f03          	ld	t5,24(sp)

   1c33c:	fb6c48e3          	blt	s8,s6,1c2ec <_vfiprintf_r+0xcf8>

   1c340:	016787b3          	add	a5,a5,s6

   1c344:	01e5b023          	sd	t5,0(a1)

   1c348:	0165b423          	sd	s6,8(a1)

   1c34c:	08f13023          	sd	a5,128(sp)

   1c350:	06e12c23          	sw	a4,120(sp)

   1c354:	00700693          	li	a3,7

   1c358:	f4e6d063          	bge	a3,a4,1ba98 <_vfiprintf_r+0x4a4>

   1c35c:	02078863          	beqz	a5,1c38c <_vfiprintf_r+0xd98>

   1c360:	07010613          	addi	a2,sp,112

   1c364:	00090593          	mv	a1,s2

   1c368:	00098513          	mv	a0,s3

   1c36c:	974ff0ef          	jal	ra,1b4e0 <__sprint_r.part.0>

   1c370:	cc051263          	bnez	a0,1b834 <_vfiprintf_r+0x240>

   1c374:	08013783          	ld	a5,128(sp)

   1c378:	f20ff06f          	j	1ba98 <_vfiprintf_r+0x4a4>

   1c37c:	00100713          	li	a4,1

   1c380:	00000693          	li	a3,0

   1c384:	00040593          	mv	a1,s0

   1c388:	f5dff06f          	j	1c2e4 <_vfiprintf_r+0xcf0>

   1c38c:	00048793          	mv	a5,s1

   1c390:	0144d463          	bge	s1,s4,1c398 <_vfiprintf_r+0xda4>

   1c394:	000a0793          	mv	a5,s4

   1c398:	00813703          	ld	a4,8(sp)

   1c39c:	00e787bb          	addw	a5,a5,a4

   1c3a0:	00f13423          	sd	a5,8(sp)

   1c3a4:	f10ff06f          	j	1bab4 <_vfiprintf_r+0x4c0>

   1c3a8:	10078a63          	beqz	a5,1c4bc <_vfiprintf_r+0xec8>

   1c3ac:	07010613          	addi	a2,sp,112

   1c3b0:	00090593          	mv	a1,s2

   1c3b4:	00098513          	mv	a0,s3

   1c3b8:	928ff0ef          	jal	ra,1b4e0 <__sprint_r.part.0>

   1c3bc:	c6051c63          	bnez	a0,1b834 <_vfiprintf_r+0x240>

   1c3c0:	07812503          	lw	a0,120(sp)

   1c3c4:	08013783          	ld	a5,128(sp)

   1c3c8:	10010593          	addi	a1,sp,256

   1c3cc:	0015051b          	addiw	a0,a0,1

   1c3d0:	00040d93          	mv	s11,s0

   1c3d4:	e78ff06f          	j	1ba4c <_vfiprintf_r+0x458>

   1c3d8:	06012c23          	sw	zero,120(sp)

   1c3dc:	00040d93          	mv	s11,s0

   1c3e0:	b78ff06f          	j	1b758 <_vfiprintf_r+0x164>

   1c3e4:	300c1063          	bnez	s8,1c6e4 <_vfiprintf_r+0x10f0>

   1c3e8:	00000c13          	li	s8,0

   1c3ec:	00000b13          	li	s6,0

   1c3f0:	0ec10b93          	addi	s7,sp,236

   1c3f4:	d08ff06f          	j	1b8fc <_vfiprintf_r+0x308>

   1c3f8:	10010593          	addi	a1,sp,256

   1c3fc:	00100513          	li	a0,1

   1c400:	00000613          	li	a2,0

   1c404:	00040d93          	mv	s11,s0

   1c408:	e34ff06f          	j	1ba3c <_vfiprintf_r+0x448>

   1c40c:	000d0a13          	mv	s4,s10

   1c410:	b5cff06f          	j	1b76c <_vfiprintf_r+0x178>

   1c414:	00000613          	li	a2,0

   1c418:	10010593          	addi	a1,sp,256

   1c41c:	00100513          	li	a0,1

   1c420:	00040d93          	mv	s11,s0

   1c424:	e18ff06f          	j	1ba3c <_vfiprintf_r+0x448>

   1c428:	03000793          	li	a5,48

   1c42c:	0ef105a3          	sb	a5,235(sp)

   1c430:	0eb10b93          	addi	s7,sp,235

   1c434:	cc8ff06f          	j	1b8fc <_vfiprintf_r+0x308>

   1c438:	07010613          	addi	a2,sp,112

   1c43c:	00090593          	mv	a1,s2

   1c440:	00098513          	mv	a0,s3

   1c444:	02513423          	sd	t0,40(sp)

   1c448:	01d13c23          	sd	t4,24(sp)

   1c44c:	894ff0ef          	jal	ra,1b4e0 <__sprint_r.part.0>

   1c450:	be051263          	bnez	a0,1b834 <_vfiprintf_r+0x240>

   1c454:	07812603          	lw	a2,120(sp)

   1c458:	08013783          	ld	a5,128(sp)

   1c45c:	00040d93          	mv	s11,s0

   1c460:	0016051b          	addiw	a0,a2,1

   1c464:	02813283          	ld	t0,40(sp)

   1c468:	01813e83          	ld	t4,24(sp)

   1c46c:	d34ff06f          	j	1b9a0 <_vfiprintf_r+0x3ac>

   1c470:	0012851b          	addiw	a0,t0,1

   1c474:	010f0593          	addi	a1,t5,16

   1c478:	00028613          	mv	a2,t0

   1c47c:	000f0d93          	mv	s11,t5

   1c480:	dc4ff06f          	j	1ba44 <_vfiprintf_r+0x450>

   1c484:	000c8893          	mv	a7,s9

   1c488:	fb8ff06f          	j	1bc40 <_vfiprintf_r+0x64c>

   1c48c:	000c8a13          	mv	s4,s9

   1c490:	839ff06f          	j	1bcc8 <_vfiprintf_r+0x6d4>

   1c494:	01013783          	ld	a5,16(sp)

   1c498:	0007bb03          	ld	s6,0(a5)

   1c49c:	c04ff06f          	j	1b8a0 <_vfiprintf_r+0x2ac>

   1c4a0:	000c8a13          	mv	s4,s9

   1c4a4:	fc8ff06f          	j	1bc6c <_vfiprintf_r+0x678>

   1c4a8:	000b8513          	mv	a0,s7

   1c4ac:	fb0fc0ef          	jal	ra,18c5c <strlen>

   1c4b0:	00050b1b          	sext.w	s6,a0

   1c4b4:	00000c13          	li	s8,0

   1c4b8:	c44ff06f          	j	1b8fc <_vfiprintf_r+0x308>

   1c4bc:	00100713          	li	a4,1

   1c4c0:	000b0793          	mv	a5,s6

   1c4c4:	0f713823          	sd	s7,240(sp)

   1c4c8:	0f613c23          	sd	s6,248(sp)

   1c4cc:	09613023          	sd	s6,128(sp)

   1c4d0:	06e12c23          	sw	a4,120(sp)

   1c4d4:	10010593          	addi	a1,sp,256

   1c4d8:	db0ff06f          	j	1ba88 <_vfiprintf_r+0x494>

   1c4dc:	400a7793          	andi	a5,s4,1024

   1c4e0:	0007879b          	sext.w	a5,a5

   1c4e4:	00f13c23          	sd	a5,24(sp)

   1c4e8:	00000c93          	li	s9,0

   1c4ec:	0ec10b93          	addi	s7,sp,236

   1c4f0:	00a00593          	li	a1,10

   1c4f4:	000b0513          	mv	a0,s6

   1c4f8:	5d0050ef          	jal	ra,21ac8 <__umoddi3>

   1c4fc:	01813783          	ld	a5,24(sp)

   1c500:	0305051b          	addiw	a0,a0,48

   1c504:	feab8fa3          	sb	a0,-1(s7)

   1c508:	001c8c9b          	addiw	s9,s9,1

   1c50c:	fffb8b93          	addi	s7,s7,-1

   1c510:	00078863          	beqz	a5,1c520 <_vfiprintf_r+0xf2c>

   1c514:	04013783          	ld	a5,64(sp)

   1c518:	0007c603          	lbu	a2,0(a5)

   1c51c:	03960063          	beq	a2,s9,1c53c <_vfiprintf_r+0xf48>

   1c520:	00a00593          	li	a1,10

   1c524:	000b0513          	mv	a0,s6

   1c528:	558050ef          	jal	ra,21a80 <__udivdi3>

   1c52c:	00900793          	li	a5,9

   1c530:	a167fce3          	bgeu	a5,s6,1bf48 <_vfiprintf_r+0x954>

   1c534:	00050b13          	mv	s6,a0

   1c538:	fb9ff06f          	j	1c4f0 <_vfiprintf_r+0xefc>

   1c53c:	0ff00793          	li	a5,255

   1c540:	fef600e3          	beq	a2,a5,1c520 <_vfiprintf_r+0xf2c>

   1c544:	00900793          	li	a5,9

   1c548:	a167f0e3          	bgeu	a5,s6,1bf48 <_vfiprintf_r+0x954>

   1c54c:	05013783          	ld	a5,80(sp)

   1c550:	04813583          	ld	a1,72(sp)

   1c554:	00000c93          	li	s9,0

   1c558:	40fb8bb3          	sub	s7,s7,a5

   1c55c:	00078613          	mv	a2,a5

   1c560:	000b8513          	mv	a0,s7

   1c564:	fc8fc0ef          	jal	ra,18d2c <strncpy>

   1c568:	04013703          	ld	a4,64(sp)

   1c56c:	000b0513          	mv	a0,s6

   1c570:	00a00593          	li	a1,10

   1c574:	00174603          	lbu	a2,1(a4)

   1c578:	00c037b3          	snez	a5,a2

   1c57c:	00f707b3          	add	a5,a4,a5

   1c580:	04f13023          	sd	a5,64(sp)

   1c584:	4fc050ef          	jal	ra,21a80 <__udivdi3>

   1c588:	00050b13          	mv	s6,a0

   1c58c:	f65ff06f          	j	1c4f0 <_vfiprintf_r+0xefc>

   1c590:	200ce893          	ori	a7,s9,512

   1c594:	001d4603          	lbu	a2,1(s10)

   1c598:	00088c9b          	sext.w	s9,a7

   1c59c:	001d0d13          	addi	s10,s10,1

   1c5a0:	9ecff06f          	j	1b78c <_vfiprintf_r+0x198>

   1c5a4:	020ce893          	ori	a7,s9,32

   1c5a8:	001d4603          	lbu	a2,1(s10)

   1c5ac:	00088c9b          	sext.w	s9,a7

   1c5b0:	001d0d13          	addi	s10,s10,1

   1c5b4:	9d8ff06f          	j	1b78c <_vfiprintf_r+0x198>

   1c5b8:	000c061b          	sext.w	a2,s8

   1c5bc:	00600793          	li	a5,6

   1c5c0:	000c0693          	mv	a3,s8

   1c5c4:	0ac7e663          	bltu	a5,a2,1c670 <_vfiprintf_r+0x107c>

   1c5c8:	00068b1b          	sext.w	s6,a3

   1c5cc:	000b0a13          	mv	s4,s6

   1c5d0:	00e13823          	sd	a4,16(sp)

   1c5d4:	00006b97          	auipc	s7,0x6

   1c5d8:	88cb8b93          	addi	s7,s7,-1908 # 21e60 <zeroes.4541+0x90>

   1c5dc:	b90ff06f          	j	1b96c <_vfiprintf_r+0x378>

   1c5e0:	200cf513          	andi	a0,s9,512

   1c5e4:	0ff7fb13          	andi	s6,a5,255

   1c5e8:	aa051c63          	bnez	a0,1b8a0 <_vfiprintf_r+0x2ac>

   1c5ec:	02079b13          	slli	s6,a5,0x20

   1c5f0:	020b5b13          	srli	s6,s6,0x20

   1c5f4:	aacff06f          	j	1b8a0 <_vfiprintf_r+0x2ac>

   1c5f8:	200cf793          	andi	a5,s9,512

   1c5fc:	0c078863          	beqz	a5,1c6cc <_vfiprintf_r+0x10d8>

   1c600:	01013783          	ld	a5,16(sp)

   1c604:	000c8a13          	mv	s4,s9

   1c608:	00b13823          	sd	a1,16(sp)

   1c60c:	00078b03          	lb	s6,0(a5)

   1c610:	000b0613          	mv	a2,s6

   1c614:	e68ff06f          	j	1bc7c <_vfiprintf_r+0x688>

   1c618:	200cf593          	andi	a1,s9,512

   1c61c:	08058e63          	beqz	a1,1c6b8 <_vfiprintf_r+0x10c4>

   1c620:	0ff7fb13          	andi	s6,a5,255

   1c624:	000c8893          	mv	a7,s9

   1c628:	00c13823          	sd	a2,16(sp)

   1c62c:	e20ff06f          	j	1bc4c <_vfiprintf_r+0x658>

   1c630:	200cf613          	andi	a2,s9,512

   1c634:	06060663          	beqz	a2,1c6a0 <_vfiprintf_r+0x10ac>

   1c638:	0ff7fb13          	andi	s6,a5,255

   1c63c:	00b13823          	sd	a1,16(sp)

   1c640:	000c8a13          	mv	s4,s9

   1c644:	00100613          	li	a2,1

   1c648:	a88ff06f          	j	1b8d0 <_vfiprintf_r+0x2dc>

   1c64c:	00058613          	mv	a2,a1

   1c650:	00006e97          	auipc	t4,0x6

   1c654:	f10e8e93          	addi	t4,t4,-240 # 22560 <zeroes.4517>

   1c658:	a7dff06f          	j	1c0d4 <_vfiprintf_r+0xae0>

   1c65c:	10010593          	addi	a1,sp,256

   1c660:	00100513          	li	a0,1

   1c664:	00000613          	li	a2,0

   1c668:	00040d93          	mv	s11,s0

   1c66c:	bd8ff06f          	j	1ba44 <_vfiprintf_r+0x450>

   1c670:	00600693          	li	a3,6

   1c674:	f55ff06f          	j	1c5c8 <_vfiprintf_r+0xfd4>

   1c678:	06710793          	addi	a5,sp,103

   1c67c:	0ef13823          	sd	a5,240(sp)

   1c680:	00100793          	li	a5,1

   1c684:	0ef13c23          	sd	a5,248(sp)

   1c688:	00100513          	li	a0,1

   1c68c:	10010593          	addi	a1,sp,256

   1c690:	b40ff06f          	j	1b9d0 <_vfiprintf_r+0x3dc>

   1c694:	00813783          	ld	a5,8(sp)

   1c698:	00f69023          	sh	a5,0(a3)

   1c69c:	840ff06f          	j	1b6dc <_vfiprintf_r+0xe8>

   1c6a0:	02079b13          	slli	s6,a5,0x20

   1c6a4:	020b5b13          	srli	s6,s6,0x20

   1c6a8:	00b13823          	sd	a1,16(sp)

   1c6ac:	000c8a13          	mv	s4,s9

   1c6b0:	00100613          	li	a2,1

   1c6b4:	a1cff06f          	j	1b8d0 <_vfiprintf_r+0x2dc>

   1c6b8:	02079b13          	slli	s6,a5,0x20

   1c6bc:	020b5b13          	srli	s6,s6,0x20

   1c6c0:	000c8893          	mv	a7,s9

   1c6c4:	00c13823          	sd	a2,16(sp)

   1c6c8:	d84ff06f          	j	1bc4c <_vfiprintf_r+0x658>

   1c6cc:	01013783          	ld	a5,16(sp)

   1c6d0:	000c8a13          	mv	s4,s9

   1c6d4:	00b13823          	sd	a1,16(sp)

   1c6d8:	0007ab03          	lw	s6,0(a5)

   1c6dc:	000b0613          	mv	a2,s6

   1c6e0:	d9cff06f          	j	1bc7c <_vfiprintf_r+0x688>

   1c6e4:	000c8a13          	mv	s4,s9

   1c6e8:	db8ff06f          	j	1bca0 <_vfiprintf_r+0x6ac>

   1c6ec:	000c0b13          	mv	s6,s8

   1c6f0:	00e13823          	sd	a4,16(sp)

   1c6f4:	00000c13          	li	s8,0

   1c6f8:	a04ff06f          	j	1b8fc <_vfiprintf_r+0x308>

   1c6fc:	00006f17          	auipc	t5,0x6

   1c700:	e54f0f13          	addi	t5,t5,-428 # 22550 <blanks.4516>

   1c704:	b61ff06f          	j	1c264 <_vfiprintf_r+0xc70>

   1c708:	0016871b          	addiw	a4,a3,1

   1c70c:	00006f17          	auipc	t5,0x6

   1c710:	e44f0f13          	addi	t5,t5,-444 # 22550 <blanks.4516>

   1c714:	c2dff06f          	j	1c340 <_vfiprintf_r+0xd4c>

   1c718:	fff00793          	li	a5,-1

   1c71c:	00f13423          	sd	a5,8(sp)

   1c720:	920ff06f          	j	1b840 <_vfiprintf_r+0x24c>

   1c724:	00058f13          	mv	t5,a1

   1c728:	00050293          	mv	t0,a0

   1c72c:	00006e97          	auipc	t4,0x6

   1c730:	e34e8e93          	addi	t4,t4,-460 # 22560 <zeroes.4517>

   1c734:	8c5ff06f          	j	1bff8 <_vfiprintf_r+0xa04>

   1c738:	00f6a023          	sw	a5,0(a3)

   1c73c:	fa1fe06f          	j	1b6dc <_vfiprintf_r+0xe8>

   1c740:	01013703          	ld	a4,16(sp)

   1c744:	00072683          	lw	a3,0(a4)

   1c748:	00870b93          	addi	s7,a4,8

   1c74c:	0006d463          	bgez	a3,1c754 <_vfiprintf_r+0x1160>

   1c750:	fff00693          	li	a3,-1

   1c754:	001d4603          	lbu	a2,1(s10)

   1c758:	00068c13          	mv	s8,a3

   1c75c:	01713823          	sd	s7,16(sp)

   1c760:	00078d13          	mv	s10,a5

   1c764:	828ff06f          	j	1b78c <_vfiprintf_r+0x198>



000000000001c768 <vfiprintf>:

   1c768:	75818793          	addi	a5,gp,1880 # 24a18 <_impure_ptr>

   1c76c:	00060693          	mv	a3,a2

   1c770:	00058613          	mv	a2,a1

   1c774:	00050593          	mv	a1,a0

   1c778:	0007b503          	ld	a0,0(a5)

   1c77c:	e79fe06f          	j	1b5f4 <_vfiprintf_r>



000000000001c780 <__sbprintf>:

   1c780:	0105d783          	lhu	a5,16(a1)

   1c784:	0ac5ae03          	lw	t3,172(a1)

   1c788:	0125d303          	lhu	t1,18(a1)

   1c78c:	0305b883          	ld	a7,48(a1)

   1c790:	0405b803          	ld	a6,64(a1)

   1c794:	b3010113          	addi	sp,sp,-1232

   1c798:	ffd7f793          	andi	a5,a5,-3

   1c79c:	40000713          	li	a4,1024

   1c7a0:	4c813023          	sd	s0,1216(sp)

   1c7a4:	00f11823          	sh	a5,16(sp)

   1c7a8:	00058413          	mv	s0,a1

   1c7ac:	0b010793          	addi	a5,sp,176

   1c7b0:	00010593          	mv	a1,sp

   1c7b4:	4a913c23          	sd	s1,1208(sp)

   1c7b8:	4b213823          	sd	s2,1200(sp)

   1c7bc:	4c113423          	sd	ra,1224(sp)

   1c7c0:	00050913          	mv	s2,a0

   1c7c4:	0bc12623          	sw	t3,172(sp)

   1c7c8:	00611923          	sh	t1,18(sp)

   1c7cc:	03113823          	sd	a7,48(sp)

   1c7d0:	05013023          	sd	a6,64(sp)

   1c7d4:	00f13023          	sd	a5,0(sp)

   1c7d8:	00f13c23          	sd	a5,24(sp)

   1c7dc:	00e12623          	sw	a4,12(sp)

   1c7e0:	02e12023          	sw	a4,32(sp)

   1c7e4:	02012423          	sw	zero,40(sp)

   1c7e8:	e0dfe0ef          	jal	ra,1b5f4 <_vfiprintf_r>

   1c7ec:	00050493          	mv	s1,a0

   1c7f0:	02055c63          	bgez	a0,1c828 <__sbprintf+0xa8>

   1c7f4:	01015783          	lhu	a5,16(sp)

   1c7f8:	0407f793          	andi	a5,a5,64

   1c7fc:	00078863          	beqz	a5,1c80c <__sbprintf+0x8c>

   1c800:	01045783          	lhu	a5,16(s0)

   1c804:	0407e793          	ori	a5,a5,64

   1c808:	00f41823          	sh	a5,16(s0)

   1c80c:	4c813083          	ld	ra,1224(sp)

   1c810:	4c013403          	ld	s0,1216(sp)

   1c814:	00048513          	mv	a0,s1

   1c818:	4b013903          	ld	s2,1200(sp)

   1c81c:	4b813483          	ld	s1,1208(sp)

   1c820:	4d010113          	addi	sp,sp,1232

   1c824:	00008067          	ret

   1c828:	00010593          	mv	a1,sp

   1c82c:	00090513          	mv	a0,s2

   1c830:	b15f60ef          	jal	ra,13344 <_fflush_r>

   1c834:	fc0500e3          	beqz	a0,1c7f4 <__sbprintf+0x74>

   1c838:	fff00493          	li	s1,-1

   1c83c:	fb9ff06f          	j	1c7f4 <__sbprintf+0x74>



000000000001c840 <_wctomb_r>:

   1c840:	d6018793          	addi	a5,gp,-672 # 24020 <__global_locale>

   1c844:	0e07b303          	ld	t1,224(a5)

   1c848:	00030067          	jr	t1



000000000001c84c <__ascii_wctomb>:

   1c84c:	0006079b          	sext.w	a5,a2

   1c850:	02058463          	beqz	a1,1c878 <__ascii_wctomb+0x2c>

   1c854:	0ff00713          	li	a4,255

   1c858:	00f76863          	bltu	a4,a5,1c868 <__ascii_wctomb+0x1c>

   1c85c:	00c58023          	sb	a2,0(a1)

   1c860:	00100513          	li	a0,1

   1c864:	00008067          	ret

   1c868:	08a00793          	li	a5,138

   1c86c:	00f52023          	sw	a5,0(a0)

   1c870:	fff00513          	li	a0,-1

   1c874:	00008067          	ret

   1c878:	00000513          	li	a0,0

   1c87c:	00008067          	ret



000000000001c880 <_write_r>:

   1c880:	00058793          	mv	a5,a1

   1c884:	ff010113          	addi	sp,sp,-16

   1c888:	00813023          	sd	s0,0(sp)

   1c88c:	00060593          	mv	a1,a2

   1c890:	00050413          	mv	s0,a0

   1c894:	00068613          	mv	a2,a3

   1c898:	00078513          	mv	a0,a5

   1c89c:	00113423          	sd	ra,8(sp)

   1c8a0:	00008797          	auipc	a5,0x8

   1c8a4:	2007ac23          	sw	zero,536(a5) # 24ab8 <errno>

   1c8a8:	26d020ef          	jal	ra,1f314 <_write>

   1c8ac:	fff00793          	li	a5,-1

   1c8b0:	00f50a63          	beq	a0,a5,1c8c4 <_write_r+0x44>

   1c8b4:	00813083          	ld	ra,8(sp)

   1c8b8:	00013403          	ld	s0,0(sp)

   1c8bc:	01010113          	addi	sp,sp,16

   1c8c0:	00008067          	ret

   1c8c4:	00008797          	auipc	a5,0x8

   1c8c8:	1f478793          	addi	a5,a5,500 # 24ab8 <errno>

   1c8cc:	0007a783          	lw	a5,0(a5)

   1c8d0:	fe0782e3          	beqz	a5,1c8b4 <_write_r+0x34>

   1c8d4:	00f42023          	sw	a5,0(s0)

   1c8d8:	00813083          	ld	ra,8(sp)

   1c8dc:	00013403          	ld	s0,0(sp)

   1c8e0:	01010113          	addi	sp,sp,16

   1c8e4:	00008067          	ret



000000000001c8e8 <_calloc_r>:

   1c8e8:	ff010113          	addi	sp,sp,-16

   1c8ec:	00058793          	mv	a5,a1

   1c8f0:	00813023          	sd	s0,0(sp)

   1c8f4:	00060593          	mv	a1,a2

   1c8f8:	00050413          	mv	s0,a0

   1c8fc:	00078513          	mv	a0,a5

   1c900:	00113423          	sd	ra,8(sp)

   1c904:	110050ef          	jal	ra,21a14 <__muldi3>

   1c908:	00050593          	mv	a1,a0

   1c90c:	00040513          	mv	a0,s0

   1c910:	aacfa0ef          	jal	ra,16bbc <_malloc_r>

   1c914:	00050413          	mv	s0,a0

   1c918:	02050863          	beqz	a0,1c948 <_calloc_r+0x60>

   1c91c:	ff853603          	ld	a2,-8(a0)

   1c920:	04800713          	li	a4,72

   1c924:	ffc67613          	andi	a2,a2,-4

   1c928:	ff860613          	addi	a2,a2,-8

   1c92c:	06c76063          	bltu	a4,a2,1c98c <_calloc_r+0xa4>

   1c930:	02700693          	li	a3,39

   1c934:	00050793          	mv	a5,a0

   1c938:	02c6e263          	bltu	a3,a2,1c95c <_calloc_r+0x74>

   1c93c:	0007b023          	sd	zero,0(a5)

   1c940:	0007b423          	sd	zero,8(a5)

   1c944:	0007b823          	sd	zero,16(a5)

   1c948:	00040513          	mv	a0,s0

   1c94c:	00813083          	ld	ra,8(sp)

   1c950:	00013403          	ld	s0,0(sp)

   1c954:	01010113          	addi	sp,sp,16

   1c958:	00008067          	ret

   1c95c:	00053023          	sd	zero,0(a0)

   1c960:	00053423          	sd	zero,8(a0)

   1c964:	03700793          	li	a5,55

   1c968:	04c7f063          	bgeu	a5,a2,1c9a8 <_calloc_r+0xc0>

   1c96c:	00053823          	sd	zero,16(a0)

   1c970:	00053c23          	sd	zero,24(a0)

   1c974:	02050793          	addi	a5,a0,32

   1c978:	fce612e3          	bne	a2,a4,1c93c <_calloc_r+0x54>

   1c97c:	02053023          	sd	zero,32(a0)

   1c980:	03050793          	addi	a5,a0,48

   1c984:	02053423          	sd	zero,40(a0)

   1c988:	fb5ff06f          	j	1c93c <_calloc_r+0x54>

   1c98c:	00000593          	li	a1,0

   1c990:	abdf30ef          	jal	ra,1044c <memset>

   1c994:	00040513          	mv	a0,s0

   1c998:	00813083          	ld	ra,8(sp)

   1c99c:	00013403          	ld	s0,0(sp)

   1c9a0:	01010113          	addi	sp,sp,16

   1c9a4:	00008067          	ret

   1c9a8:	01050793          	addi	a5,a0,16

   1c9ac:	f91ff06f          	j	1c93c <_calloc_r+0x54>



000000000001c9b0 <_close_r>:

   1c9b0:	ff010113          	addi	sp,sp,-16

   1c9b4:	00813023          	sd	s0,0(sp)

   1c9b8:	00050413          	mv	s0,a0

   1c9bc:	00058513          	mv	a0,a1

   1c9c0:	00008797          	auipc	a5,0x8

   1c9c4:	0e07ac23          	sw	zero,248(a5) # 24ab8 <errno>

   1c9c8:	00113423          	sd	ra,8(sp)

   1c9cc:	6b8020ef          	jal	ra,1f084 <_close>

   1c9d0:	fff00793          	li	a5,-1

   1c9d4:	00f50a63          	beq	a0,a5,1c9e8 <_close_r+0x38>

   1c9d8:	00813083          	ld	ra,8(sp)

   1c9dc:	00013403          	ld	s0,0(sp)

   1c9e0:	01010113          	addi	sp,sp,16

   1c9e4:	00008067          	ret

   1c9e8:	00008797          	auipc	a5,0x8

   1c9ec:	0d078793          	addi	a5,a5,208 # 24ab8 <errno>

   1c9f0:	0007a783          	lw	a5,0(a5)

   1c9f4:	fe0782e3          	beqz	a5,1c9d8 <_close_r+0x28>

   1c9f8:	00f42023          	sw	a5,0(s0)

   1c9fc:	00813083          	ld	ra,8(sp)

   1ca00:	00013403          	ld	s0,0(sp)

   1ca04:	01010113          	addi	sp,sp,16

   1ca08:	00008067          	ret



000000000001ca0c <_fclose_r>:

   1ca0c:	fe010113          	addi	sp,sp,-32

   1ca10:	00113c23          	sd	ra,24(sp)

   1ca14:	00813823          	sd	s0,16(sp)

   1ca18:	00913423          	sd	s1,8(sp)

   1ca1c:	01213023          	sd	s2,0(sp)

   1ca20:	02058063          	beqz	a1,1ca40 <_fclose_r+0x34>

   1ca24:	00050493          	mv	s1,a0

   1ca28:	00058413          	mv	s0,a1

   1ca2c:	00050663          	beqz	a0,1ca38 <_fclose_r+0x2c>

   1ca30:	05052783          	lw	a5,80(a0)

   1ca34:	0a078c63          	beqz	a5,1caec <_fclose_r+0xe0>

   1ca38:	01041783          	lh	a5,16(s0)

   1ca3c:	02079263          	bnez	a5,1ca60 <_fclose_r+0x54>

   1ca40:	01813083          	ld	ra,24(sp)

   1ca44:	01013403          	ld	s0,16(sp)

   1ca48:	00000913          	li	s2,0

   1ca4c:	00090513          	mv	a0,s2

   1ca50:	00813483          	ld	s1,8(sp)

   1ca54:	00013903          	ld	s2,0(sp)

   1ca58:	02010113          	addi	sp,sp,32

   1ca5c:	00008067          	ret

   1ca60:	00040593          	mv	a1,s0

   1ca64:	00048513          	mv	a0,s1

   1ca68:	e80f60ef          	jal	ra,130e8 <__sflush_r>

   1ca6c:	05043783          	ld	a5,80(s0)

   1ca70:	00050913          	mv	s2,a0

   1ca74:	00078a63          	beqz	a5,1ca88 <_fclose_r+0x7c>

   1ca78:	03043583          	ld	a1,48(s0)

   1ca7c:	00048513          	mv	a0,s1

   1ca80:	000780e7          	jalr	a5

   1ca84:	06054c63          	bltz	a0,1cafc <_fclose_r+0xf0>

   1ca88:	01045783          	lhu	a5,16(s0)

   1ca8c:	0807f793          	andi	a5,a5,128

   1ca90:	06079e63          	bnez	a5,1cb0c <_fclose_r+0x100>

   1ca94:	05843583          	ld	a1,88(s0)

   1ca98:	00058c63          	beqz	a1,1cab0 <_fclose_r+0xa4>

   1ca9c:	07440793          	addi	a5,s0,116

   1caa0:	00f58663          	beq	a1,a5,1caac <_fclose_r+0xa0>

   1caa4:	00048513          	mv	a0,s1

   1caa8:	dc5f60ef          	jal	ra,1386c <_free_r>

   1caac:	04043c23          	sd	zero,88(s0)

   1cab0:	07843583          	ld	a1,120(s0)

   1cab4:	00058863          	beqz	a1,1cac4 <_fclose_r+0xb8>

   1cab8:	00048513          	mv	a0,s1

   1cabc:	db1f60ef          	jal	ra,1386c <_free_r>

   1cac0:	06043c23          	sd	zero,120(s0)

   1cac4:	c39f60ef          	jal	ra,136fc <__sfp_lock_acquire>

   1cac8:	00041823          	sh	zero,16(s0)

   1cacc:	c35f60ef          	jal	ra,13700 <__sfp_lock_release>

   1cad0:	01813083          	ld	ra,24(sp)

   1cad4:	01013403          	ld	s0,16(sp)

   1cad8:	00090513          	mv	a0,s2

   1cadc:	00813483          	ld	s1,8(sp)

   1cae0:	00013903          	ld	s2,0(sp)

   1cae4:	02010113          	addi	sp,sp,32

   1cae8:	00008067          	ret

   1caec:	c01f60ef          	jal	ra,136ec <__sinit>

   1caf0:	01041783          	lh	a5,16(s0)

   1caf4:	f40786e3          	beqz	a5,1ca40 <_fclose_r+0x34>

   1caf8:	f69ff06f          	j	1ca60 <_fclose_r+0x54>

   1cafc:	01045783          	lhu	a5,16(s0)

   1cb00:	fff00913          	li	s2,-1

   1cb04:	0807f793          	andi	a5,a5,128

   1cb08:	f80786e3          	beqz	a5,1ca94 <_fclose_r+0x88>

   1cb0c:	01843583          	ld	a1,24(s0)

   1cb10:	00048513          	mv	a0,s1

   1cb14:	d59f60ef          	jal	ra,1386c <_free_r>

   1cb18:	f7dff06f          	j	1ca94 <_fclose_r+0x88>



000000000001cb1c <fclose>:

   1cb1c:	75818793          	addi	a5,gp,1880 # 24a18 <_impure_ptr>

   1cb20:	00050593          	mv	a1,a0

   1cb24:	0007b503          	ld	a0,0(a5)

   1cb28:	ee5ff06f          	j	1ca0c <_fclose_r>



000000000001cb2c <__fputwc>:

   1cb2c:	fb010113          	addi	sp,sp,-80

   1cb30:	04813023          	sd	s0,64(sp)

   1cb34:	03213823          	sd	s2,48(sp)

   1cb38:	03313423          	sd	s3,40(sp)

   1cb3c:	04113423          	sd	ra,72(sp)

   1cb40:	02913c23          	sd	s1,56(sp)

   1cb44:	03413023          	sd	s4,32(sp)

   1cb48:	01513c23          	sd	s5,24(sp)

   1cb4c:	01613823          	sd	s6,16(sp)

   1cb50:	00050913          	mv	s2,a0

   1cb54:	00058993          	mv	s3,a1

   1cb58:	00060413          	mv	s0,a2

   1cb5c:	e55f90ef          	jal	ra,169b0 <__locale_mb_cur_max>

   1cb60:	00100793          	li	a5,1

   1cb64:	02f51063          	bne	a0,a5,1cb84 <__fputwc+0x58>

   1cb68:	fff9879b          	addiw	a5,s3,-1

   1cb6c:	0fe00713          	li	a4,254

   1cb70:	00f76a63          	bltu	a4,a5,1cb84 <__fputwc+0x58>

   1cb74:	0ff9f713          	andi	a4,s3,255

   1cb78:	00e10423          	sb	a4,8(sp)

   1cb7c:	00100a93          	li	s5,1

   1cb80:	02c0006f          	j	1cbac <__fputwc+0x80>

   1cb84:	0a440693          	addi	a3,s0,164

   1cb88:	00098613          	mv	a2,s3

   1cb8c:	00810593          	addi	a1,sp,8

   1cb90:	00090513          	mv	a0,s2

   1cb94:	3e8020ef          	jal	ra,1ef7c <_wcrtomb_r>

   1cb98:	fff00793          	li	a5,-1

   1cb9c:	00050a93          	mv	s5,a0

   1cba0:	0af50263          	beq	a0,a5,1cc44 <__fputwc+0x118>

   1cba4:	08050c63          	beqz	a0,1cc3c <__fputwc+0x110>

   1cba8:	00814703          	lbu	a4,8(sp)

   1cbac:	00000493          	li	s1,0

   1cbb0:	fff00a13          	li	s4,-1

   1cbb4:	00a00b13          	li	s6,10

   1cbb8:	0280006f          	j	1cbe0 <__fputwc+0xb4>

   1cbbc:	00043783          	ld	a5,0(s0)

   1cbc0:	00178693          	addi	a3,a5,1

   1cbc4:	00d43023          	sd	a3,0(s0)

   1cbc8:	00e78023          	sb	a4,0(a5)

   1cbcc:	00148493          	addi	s1,s1,1

   1cbd0:	00810793          	addi	a5,sp,8

   1cbd4:	009787b3          	add	a5,a5,s1

   1cbd8:	0754f263          	bgeu	s1,s5,1cc3c <__fputwc+0x110>

   1cbdc:	0007c703          	lbu	a4,0(a5)

   1cbe0:	00c42783          	lw	a5,12(s0)

   1cbe4:	fff7879b          	addiw	a5,a5,-1

   1cbe8:	00f42623          	sw	a5,12(s0)

   1cbec:	fc07d8e3          	bgez	a5,1cbbc <__fputwc+0x90>

   1cbf0:	02842683          	lw	a3,40(s0)

   1cbf4:	00070593          	mv	a1,a4

   1cbf8:	00040613          	mv	a2,s0

   1cbfc:	00090513          	mv	a0,s2

   1cc00:	00d7c463          	blt	a5,a3,1cc08 <__fputwc+0xdc>

   1cc04:	fb671ce3          	bne	a4,s6,1cbbc <__fputwc+0x90>

   1cc08:	1dc020ef          	jal	ra,1ede4 <__swbuf_r>

   1cc0c:	fd4510e3          	bne	a0,s4,1cbcc <__fputwc+0xa0>

   1cc10:	fff00513          	li	a0,-1

   1cc14:	04813083          	ld	ra,72(sp)

   1cc18:	04013403          	ld	s0,64(sp)

   1cc1c:	03813483          	ld	s1,56(sp)

   1cc20:	03013903          	ld	s2,48(sp)

   1cc24:	02813983          	ld	s3,40(sp)

   1cc28:	02013a03          	ld	s4,32(sp)

   1cc2c:	01813a83          	ld	s5,24(sp)

   1cc30:	01013b03          	ld	s6,16(sp)

   1cc34:	05010113          	addi	sp,sp,80

   1cc38:	00008067          	ret

   1cc3c:	0009851b          	sext.w	a0,s3

   1cc40:	fd5ff06f          	j	1cc14 <__fputwc+0xe8>

   1cc44:	01045783          	lhu	a5,16(s0)

   1cc48:	fff00513          	li	a0,-1

   1cc4c:	0407e793          	ori	a5,a5,64

   1cc50:	00f41823          	sh	a5,16(s0)

   1cc54:	fc1ff06f          	j	1cc14 <__fputwc+0xe8>



000000000001cc58 <_fputwc_r>:

   1cc58:	01061783          	lh	a5,16(a2)

   1cc5c:	03279713          	slli	a4,a5,0x32

   1cc60:	02074063          	bltz	a4,1cc80 <_fputwc_r+0x28>

   1cc64:	0ac62703          	lw	a4,172(a2)

   1cc68:	000026b7          	lui	a3,0x2

   1cc6c:	00d7e7b3          	or	a5,a5,a3

   1cc70:	000026b7          	lui	a3,0x2

   1cc74:	00d76733          	or	a4,a4,a3

   1cc78:	00f61823          	sh	a5,16(a2)

   1cc7c:	0ae62623          	sw	a4,172(a2)

   1cc80:	eadff06f          	j	1cb2c <__fputwc>



000000000001cc84 <fputwc>:

   1cc84:	fd010113          	addi	sp,sp,-48

   1cc88:	75818793          	addi	a5,gp,1880 # 24a18 <_impure_ptr>

   1cc8c:	02813023          	sd	s0,32(sp)

   1cc90:	0007b403          	ld	s0,0(a5)

   1cc94:	00913c23          	sd	s1,24(sp)

   1cc98:	02113423          	sd	ra,40(sp)

   1cc9c:	00050493          	mv	s1,a0

   1cca0:	00058613          	mv	a2,a1

   1cca4:	00040663          	beqz	s0,1ccb0 <fputwc+0x2c>

   1cca8:	05042783          	lw	a5,80(s0)

   1ccac:	04078463          	beqz	a5,1ccf4 <fputwc+0x70>

   1ccb0:	01061783          	lh	a5,16(a2)

   1ccb4:	03279713          	slli	a4,a5,0x32

   1ccb8:	02074063          	bltz	a4,1ccd8 <fputwc+0x54>

   1ccbc:	0ac62703          	lw	a4,172(a2)

   1ccc0:	000026b7          	lui	a3,0x2

   1ccc4:	00d7e7b3          	or	a5,a5,a3

   1ccc8:	000026b7          	lui	a3,0x2

   1cccc:	00d76733          	or	a4,a4,a3

   1ccd0:	00f61823          	sh	a5,16(a2)

   1ccd4:	0ae62623          	sw	a4,172(a2)

   1ccd8:	00040513          	mv	a0,s0

   1ccdc:	02013403          	ld	s0,32(sp)

   1cce0:	02813083          	ld	ra,40(sp)

   1cce4:	00048593          	mv	a1,s1

   1cce8:	01813483          	ld	s1,24(sp)

   1ccec:	03010113          	addi	sp,sp,48

   1ccf0:	e3dff06f          	j	1cb2c <__fputwc>

   1ccf4:	00040513          	mv	a0,s0

   1ccf8:	00b13423          	sd	a1,8(sp)

   1ccfc:	9f1f60ef          	jal	ra,136ec <__sinit>

   1cd00:	00813603          	ld	a2,8(sp)

   1cd04:	fadff06f          	j	1ccb0 <fputwc+0x2c>



000000000001cd08 <_fstat_r>:

   1cd08:	00058793          	mv	a5,a1

   1cd0c:	ff010113          	addi	sp,sp,-16

   1cd10:	00813023          	sd	s0,0(sp)

   1cd14:	00060593          	mv	a1,a2

   1cd18:	00050413          	mv	s0,a0

   1cd1c:	00078513          	mv	a0,a5

   1cd20:	00113423          	sd	ra,8(sp)

   1cd24:	00008797          	auipc	a5,0x8

   1cd28:	d807aa23          	sw	zero,-620(a5) # 24ab8 <errno>

   1cd2c:	3f4020ef          	jal	ra,1f120 <_fstat>

   1cd30:	fff00793          	li	a5,-1

   1cd34:	00f50a63          	beq	a0,a5,1cd48 <_fstat_r+0x40>

   1cd38:	00813083          	ld	ra,8(sp)

   1cd3c:	00013403          	ld	s0,0(sp)

   1cd40:	01010113          	addi	sp,sp,16

   1cd44:	00008067          	ret

   1cd48:	00008797          	auipc	a5,0x8

   1cd4c:	d7078793          	addi	a5,a5,-656 # 24ab8 <errno>

   1cd50:	0007a783          	lw	a5,0(a5)

   1cd54:	fe0782e3          	beqz	a5,1cd38 <_fstat_r+0x30>

   1cd58:	00f42023          	sw	a5,0(s0)

   1cd5c:	00813083          	ld	ra,8(sp)

   1cd60:	00013403          	ld	s0,0(sp)

   1cd64:	01010113          	addi	sp,sp,16

   1cd68:	00008067          	ret



000000000001cd6c <__sfvwrite_r>:

   1cd6c:	01063783          	ld	a5,16(a2)

   1cd70:	28078c63          	beqz	a5,1d008 <__sfvwrite_r+0x29c>

   1cd74:	0105d783          	lhu	a5,16(a1)

   1cd78:	fa010113          	addi	sp,sp,-96

   1cd7c:	04813823          	sd	s0,80(sp)

   1cd80:	03413823          	sd	s4,48(sp)

   1cd84:	03513423          	sd	s5,40(sp)

   1cd88:	04113c23          	sd	ra,88(sp)

   1cd8c:	04913423          	sd	s1,72(sp)

   1cd90:	05213023          	sd	s2,64(sp)

   1cd94:	03313c23          	sd	s3,56(sp)

   1cd98:	03613023          	sd	s6,32(sp)

   1cd9c:	01713c23          	sd	s7,24(sp)

   1cda0:	01813823          	sd	s8,16(sp)

   1cda4:	01913423          	sd	s9,8(sp)

   1cda8:	01a13023          	sd	s10,0(sp)

   1cdac:	0087f713          	andi	a4,a5,8

   1cdb0:	00058413          	mv	s0,a1

   1cdb4:	00050a93          	mv	s5,a0

   1cdb8:	00060a13          	mv	s4,a2

   1cdbc:	08070c63          	beqz	a4,1ce54 <__sfvwrite_r+0xe8>

   1cdc0:	0185b703          	ld	a4,24(a1)

   1cdc4:	08070863          	beqz	a4,1ce54 <__sfvwrite_r+0xe8>

   1cdc8:	0027f713          	andi	a4,a5,2

   1cdcc:	000a3903          	ld	s2,0(s4)

   1cdd0:	0a070263          	beqz	a4,1ce74 <__sfvwrite_r+0x108>

   1cdd4:	04043703          	ld	a4,64(s0)

   1cdd8:	03043783          	ld	a5,48(s0)

   1cddc:	80000b37          	lui	s6,0x80000

   1cde0:	00000993          	li	s3,0

   1cde4:	00000493          	li	s1,0

   1cde8:	c00b4b13          	xori	s6,s6,-1024

   1cdec:	00098613          	mv	a2,s3

   1cdf0:	00078593          	mv	a1,a5

   1cdf4:	000a8513          	mv	a0,s5

   1cdf8:	04048663          	beqz	s1,1ce44 <__sfvwrite_r+0xd8>

   1cdfc:	00048693          	mv	a3,s1

   1ce00:	009b7463          	bgeu	s6,s1,1ce08 <__sfvwrite_r+0x9c>

   1ce04:	000b0693          	mv	a3,s6

   1ce08:	0006869b          	sext.w	a3,a3

   1ce0c:	000700e7          	jalr	a4

   1ce10:	1ea05263          	blez	a0,1cff4 <__sfvwrite_r+0x288>

   1ce14:	010a3783          	ld	a5,16(s4)

   1ce18:	00a989b3          	add	s3,s3,a0

   1ce1c:	40a484b3          	sub	s1,s1,a0

   1ce20:	40a78533          	sub	a0,a5,a0

   1ce24:	00aa3823          	sd	a0,16(s4)

   1ce28:	18050063          	beqz	a0,1cfa8 <__sfvwrite_r+0x23c>

   1ce2c:	03043783          	ld	a5,48(s0)

   1ce30:	04043703          	ld	a4,64(s0)

   1ce34:	00098613          	mv	a2,s3

   1ce38:	00078593          	mv	a1,a5

   1ce3c:	000a8513          	mv	a0,s5

   1ce40:	fa049ee3          	bnez	s1,1cdfc <__sfvwrite_r+0x90>

   1ce44:	00093983          	ld	s3,0(s2)

   1ce48:	00893483          	ld	s1,8(s2)

   1ce4c:	01090913          	addi	s2,s2,16

   1ce50:	f9dff06f          	j	1cdec <__sfvwrite_r+0x80>

   1ce54:	00040593          	mv	a1,s0

   1ce58:	000a8513          	mv	a0,s5

   1ce5c:	f55f50ef          	jal	ra,12db0 <__swsetup_r>

   1ce60:	3c051663          	bnez	a0,1d22c <__sfvwrite_r+0x4c0>

   1ce64:	01045783          	lhu	a5,16(s0)

   1ce68:	000a3903          	ld	s2,0(s4)

   1ce6c:	0027f713          	andi	a4,a5,2

   1ce70:	f60712e3          	bnez	a4,1cdd4 <__sfvwrite_r+0x68>

   1ce74:	0017f713          	andi	a4,a5,1

   1ce78:	0a071263          	bnez	a4,1cf1c <__sfvwrite_r+0x1b0>

   1ce7c:	00c42483          	lw	s1,12(s0)

   1ce80:	00043503          	ld	a0,0(s0)

   1ce84:	80000b37          	lui	s6,0x80000

   1ce88:	ffeb4b93          	xori	s7,s6,-2

   1ce8c:	00000c13          	li	s8,0

   1ce90:	00000993          	li	s3,0

   1ce94:	fffb4b13          	not	s6,s6

   1ce98:	00048c93          	mv	s9,s1

   1ce9c:	06098863          	beqz	s3,1cf0c <__sfvwrite_r+0x1a0>

   1cea0:	2007f713          	andi	a4,a5,512

   1cea4:	1c070863          	beqz	a4,1d074 <__sfvwrite_r+0x308>

   1cea8:	00048d13          	mv	s10,s1

   1ceac:	2699f663          	bgeu	s3,s1,1d118 <__sfvwrite_r+0x3ac>

   1ceb0:	00098c93          	mv	s9,s3

   1ceb4:	00098d13          	mv	s10,s3

   1ceb8:	000d0613          	mv	a2,s10

   1cebc:	000c0593          	mv	a1,s8

   1cec0:	554000ef          	jal	ra,1d414 <memmove>

   1cec4:	00c42783          	lw	a5,12(s0)

   1cec8:	00043603          	ld	a2,0(s0)

   1cecc:	00098493          	mv	s1,s3

   1ced0:	41978cbb          	subw	s9,a5,s9

   1ced4:	01a60633          	add	a2,a2,s10

   1ced8:	01942623          	sw	s9,12(s0)

   1cedc:	00c43023          	sd	a2,0(s0)

   1cee0:	00000993          	li	s3,0

   1cee4:	010a3783          	ld	a5,16(s4)

   1cee8:	009c0c33          	add	s8,s8,s1

   1ceec:	409784b3          	sub	s1,a5,s1

   1cef0:	009a3823          	sd	s1,16(s4)

   1cef4:	0a048a63          	beqz	s1,1cfa8 <__sfvwrite_r+0x23c>

   1cef8:	00c42483          	lw	s1,12(s0)

   1cefc:	00043503          	ld	a0,0(s0)

   1cf00:	01045783          	lhu	a5,16(s0)

   1cf04:	00048c93          	mv	s9,s1

   1cf08:	f8099ce3          	bnez	s3,1cea0 <__sfvwrite_r+0x134>

   1cf0c:	00093c03          	ld	s8,0(s2)

   1cf10:	00893983          	ld	s3,8(s2)

   1cf14:	01090913          	addi	s2,s2,16

   1cf18:	f81ff06f          	j	1ce98 <__sfvwrite_r+0x12c>

   1cf1c:	00000993          	li	s3,0

   1cf20:	00000513          	li	a0,0

   1cf24:	00000c93          	li	s9,0

   1cf28:	00000493          	li	s1,0

   1cf2c:	0e048263          	beqz	s1,1d010 <__sfvwrite_r+0x2a4>

   1cf30:	0e050863          	beqz	a0,1d020 <__sfvwrite_r+0x2b4>

   1cf34:	00098c13          	mv	s8,s3

   1cf38:	0134f463          	bgeu	s1,s3,1cf40 <__sfvwrite_r+0x1d4>

   1cf3c:	00048c13          	mv	s8,s1

   1cf40:	00043503          	ld	a0,0(s0)

   1cf44:	01843783          	ld	a5,24(s0)

   1cf48:	000c0b13          	mv	s6,s8

   1cf4c:	02042683          	lw	a3,32(s0)

   1cf50:	00a7f863          	bgeu	a5,a0,1cf60 <__sfvwrite_r+0x1f4>

   1cf54:	00c42603          	lw	a2,12(s0)

   1cf58:	00d60bbb          	addw	s7,a2,a3

   1cf5c:	0f8bc263          	blt	s7,s8,1d040 <__sfvwrite_r+0x2d4>

   1cf60:	24dc4a63          	blt	s8,a3,1d1b4 <__sfvwrite_r+0x448>

   1cf64:	04043783          	ld	a5,64(s0)

   1cf68:	03043583          	ld	a1,48(s0)

   1cf6c:	000c8613          	mv	a2,s9

   1cf70:	000a8513          	mv	a0,s5

   1cf74:	000780e7          	jalr	a5

   1cf78:	00050b13          	mv	s6,a0

   1cf7c:	06a05c63          	blez	a0,1cff4 <__sfvwrite_r+0x288>

   1cf80:	0005061b          	sext.w	a2,a0

   1cf84:	40c989bb          	subw	s3,s3,a2

   1cf88:	00100513          	li	a0,1

   1cf8c:	04098c63          	beqz	s3,1cfe4 <__sfvwrite_r+0x278>

   1cf90:	010a3783          	ld	a5,16(s4)

   1cf94:	016c8cb3          	add	s9,s9,s6

   1cf98:	416484b3          	sub	s1,s1,s6

   1cf9c:	41678b33          	sub	s6,a5,s6

   1cfa0:	016a3823          	sd	s6,16(s4)

   1cfa4:	f80b14e3          	bnez	s6,1cf2c <__sfvwrite_r+0x1c0>

   1cfa8:	00000513          	li	a0,0

   1cfac:	05813083          	ld	ra,88(sp)

   1cfb0:	05013403          	ld	s0,80(sp)

   1cfb4:	04813483          	ld	s1,72(sp)

   1cfb8:	04013903          	ld	s2,64(sp)

   1cfbc:	03813983          	ld	s3,56(sp)

   1cfc0:	03013a03          	ld	s4,48(sp)

   1cfc4:	02813a83          	ld	s5,40(sp)

   1cfc8:	02013b03          	ld	s6,32(sp)

   1cfcc:	01813b83          	ld	s7,24(sp)

   1cfd0:	01013c03          	ld	s8,16(sp)

   1cfd4:	00813c83          	ld	s9,8(sp)

   1cfd8:	00013d03          	ld	s10,0(sp)

   1cfdc:	06010113          	addi	sp,sp,96

   1cfe0:	00008067          	ret

   1cfe4:	00040593          	mv	a1,s0

   1cfe8:	000a8513          	mv	a0,s5

   1cfec:	b58f60ef          	jal	ra,13344 <_fflush_r>

   1cff0:	fa0500e3          	beqz	a0,1cf90 <__sfvwrite_r+0x224>

   1cff4:	01041783          	lh	a5,16(s0)

   1cff8:	0407e793          	ori	a5,a5,64

   1cffc:	00f41823          	sh	a5,16(s0)

   1d000:	fff00513          	li	a0,-1

   1d004:	fa9ff06f          	j	1cfac <__sfvwrite_r+0x240>

   1d008:	00000513          	li	a0,0

   1d00c:	00008067          	ret

   1d010:	00893483          	ld	s1,8(s2)

   1d014:	00093c83          	ld	s9,0(s2)

   1d018:	01090913          	addi	s2,s2,16

   1d01c:	fe048ae3          	beqz	s1,1d010 <__sfvwrite_r+0x2a4>

   1d020:	00048613          	mv	a2,s1

   1d024:	00a00593          	li	a1,10

   1d028:	000c8513          	mv	a0,s9

   1d02c:	c5cfa0ef          	jal	ra,17488 <memchr>

   1d030:	1e050263          	beqz	a0,1d214 <__sfvwrite_r+0x4a8>

   1d034:	00150513          	addi	a0,a0,1

   1d038:	419509bb          	subw	s3,a0,s9

   1d03c:	ef9ff06f          	j	1cf34 <__sfvwrite_r+0x1c8>

   1d040:	000c8593          	mv	a1,s9

   1d044:	000b8613          	mv	a2,s7

   1d048:	3cc000ef          	jal	ra,1d414 <memmove>

   1d04c:	00043783          	ld	a5,0(s0)

   1d050:	00040593          	mv	a1,s0

   1d054:	000a8513          	mv	a0,s5

   1d058:	017787b3          	add	a5,a5,s7

   1d05c:	00f43023          	sd	a5,0(s0)

   1d060:	ae4f60ef          	jal	ra,13344 <_fflush_r>

   1d064:	f80518e3          	bnez	a0,1cff4 <__sfvwrite_r+0x288>

   1d068:	000b8613          	mv	a2,s7

   1d06c:	000b8b13          	mv	s6,s7

   1d070:	f15ff06f          	j	1cf84 <__sfvwrite_r+0x218>

   1d074:	01843783          	ld	a5,24(s0)

   1d078:	04a7ec63          	bltu	a5,a0,1d0d0 <__sfvwrite_r+0x364>

   1d07c:	02042c83          	lw	s9,32(s0)

   1d080:	0599e863          	bltu	s3,s9,1d0d0 <__sfvwrite_r+0x364>

   1d084:	00098513          	mv	a0,s3

   1d088:	013bf463          	bgeu	s7,s3,1d090 <__sfvwrite_r+0x324>

   1d08c:	000b0513          	mv	a0,s6

   1d090:	000c8593          	mv	a1,s9

   1d094:	0005051b          	sext.w	a0,a0

   1d098:	1e1040ef          	jal	ra,21a78 <__divdi3>

   1d09c:	00050593          	mv	a1,a0

   1d0a0:	000c8513          	mv	a0,s9

   1d0a4:	171040ef          	jal	ra,21a14 <__muldi3>

   1d0a8:	03043583          	ld	a1,48(s0)

   1d0ac:	04043783          	ld	a5,64(s0)

   1d0b0:	0005069b          	sext.w	a3,a0

   1d0b4:	000c0613          	mv	a2,s8

   1d0b8:	000a8513          	mv	a0,s5

   1d0bc:	000780e7          	jalr	a5

   1d0c0:	f2a05ae3          	blez	a0,1cff4 <__sfvwrite_r+0x288>

   1d0c4:	00050493          	mv	s1,a0

   1d0c8:	409989b3          	sub	s3,s3,s1

   1d0cc:	e19ff06f          	j	1cee4 <__sfvwrite_r+0x178>

   1d0d0:	0099f463          	bgeu	s3,s1,1d0d8 <__sfvwrite_r+0x36c>

   1d0d4:	00098493          	mv	s1,s3

   1d0d8:	00048613          	mv	a2,s1

   1d0dc:	000c0593          	mv	a1,s8

   1d0e0:	334000ef          	jal	ra,1d414 <memmove>

   1d0e4:	00c42783          	lw	a5,12(s0)

   1d0e8:	00043703          	ld	a4,0(s0)

   1d0ec:	409786bb          	subw	a3,a5,s1

   1d0f0:	00970733          	add	a4,a4,s1

   1d0f4:	00d42623          	sw	a3,12(s0)

   1d0f8:	00e43023          	sd	a4,0(s0)

   1d0fc:	fc0696e3          	bnez	a3,1d0c8 <__sfvwrite_r+0x35c>

   1d100:	00040593          	mv	a1,s0

   1d104:	000a8513          	mv	a0,s5

   1d108:	a3cf60ef          	jal	ra,13344 <_fflush_r>

   1d10c:	ee0514e3          	bnez	a0,1cff4 <__sfvwrite_r+0x288>

   1d110:	409989b3          	sub	s3,s3,s1

   1d114:	dd1ff06f          	j	1cee4 <__sfvwrite_r+0x178>

   1d118:	4807f713          	andi	a4,a5,1152

   1d11c:	d8070ee3          	beqz	a4,1ceb8 <__sfvwrite_r+0x14c>

   1d120:	02042683          	lw	a3,32(s0)

   1d124:	01843583          	ld	a1,24(s0)

   1d128:	00198713          	addi	a4,s3,1

   1d12c:	0016949b          	slliw	s1,a3,0x1

   1d130:	00d486bb          	addw	a3,s1,a3

   1d134:	40b50533          	sub	a0,a0,a1

   1d138:	01f6d49b          	srliw	s1,a3,0x1f

   1d13c:	00050c9b          	sext.w	s9,a0

   1d140:	00d484bb          	addw	s1,s1,a3

   1d144:	4014d49b          	sraiw	s1,s1,0x1

   1d148:	01970733          	add	a4,a4,s9

   1d14c:	00e4f663          	bgeu	s1,a4,1d158 <__sfvwrite_r+0x3ec>

   1d150:	0019849b          	addiw	s1,s3,1

   1d154:	00a484bb          	addw	s1,s1,a0

   1d158:	4007f793          	andi	a5,a5,1024

   1d15c:	08078263          	beqz	a5,1d1e0 <__sfvwrite_r+0x474>

   1d160:	00048593          	mv	a1,s1

   1d164:	000a8513          	mv	a0,s5

   1d168:	a55f90ef          	jal	ra,16bbc <_malloc_r>

   1d16c:	00050d13          	mv	s10,a0

   1d170:	0a050663          	beqz	a0,1d21c <__sfvwrite_r+0x4b0>

   1d174:	01843583          	ld	a1,24(s0)

   1d178:	000c8613          	mv	a2,s9

   1d17c:	17c000ef          	jal	ra,1d2f8 <memcpy>

   1d180:	01045783          	lhu	a5,16(s0)

   1d184:	b7f7f793          	andi	a5,a5,-1153

   1d188:	0807e793          	ori	a5,a5,128

   1d18c:	00f41823          	sh	a5,16(s0)

   1d190:	019d0533          	add	a0,s10,s9

   1d194:	419487bb          	subw	a5,s1,s9

   1d198:	01a43c23          	sd	s10,24(s0)

   1d19c:	00a43023          	sd	a0,0(s0)

   1d1a0:	02942023          	sw	s1,32(s0)

   1d1a4:	00098c93          	mv	s9,s3

   1d1a8:	00f42623          	sw	a5,12(s0)

   1d1ac:	00098d13          	mv	s10,s3

   1d1b0:	d09ff06f          	j	1ceb8 <__sfvwrite_r+0x14c>

   1d1b4:	000c0613          	mv	a2,s8

   1d1b8:	000c8593          	mv	a1,s9

   1d1bc:	258000ef          	jal	ra,1d414 <memmove>

   1d1c0:	00c42703          	lw	a4,12(s0)

   1d1c4:	00043783          	ld	a5,0(s0)

   1d1c8:	000c061b          	sext.w	a2,s8

   1d1cc:	40c7073b          	subw	a4,a4,a2

   1d1d0:	01878c33          	add	s8,a5,s8

   1d1d4:	00e42623          	sw	a4,12(s0)

   1d1d8:	01843023          	sd	s8,0(s0)

   1d1dc:	da9ff06f          	j	1cf84 <__sfvwrite_r+0x218>

   1d1e0:	00048613          	mv	a2,s1

   1d1e4:	000a8513          	mv	a0,s5

   1d1e8:	3b4000ef          	jal	ra,1d59c <_realloc_r>

   1d1ec:	00050d13          	mv	s10,a0

   1d1f0:	fa0510e3          	bnez	a0,1d190 <__sfvwrite_r+0x424>

   1d1f4:	01843583          	ld	a1,24(s0)

   1d1f8:	000a8513          	mv	a0,s5

   1d1fc:	e70f60ef          	jal	ra,1386c <_free_r>

   1d200:	01041783          	lh	a5,16(s0)

   1d204:	00c00713          	li	a4,12

   1d208:	00eaa023          	sw	a4,0(s5)

   1d20c:	f7f7f793          	andi	a5,a5,-129

   1d210:	de9ff06f          	j	1cff8 <__sfvwrite_r+0x28c>

   1d214:	0014899b          	addiw	s3,s1,1

   1d218:	d1dff06f          	j	1cf34 <__sfvwrite_r+0x1c8>

   1d21c:	00c00793          	li	a5,12

   1d220:	00faa023          	sw	a5,0(s5)

   1d224:	01041783          	lh	a5,16(s0)

   1d228:	dd1ff06f          	j	1cff8 <__sfvwrite_r+0x28c>

   1d22c:	fff00513          	li	a0,-1

   1d230:	d7dff06f          	j	1cfac <__sfvwrite_r+0x240>



000000000001d234 <_isatty_r>:

   1d234:	ff010113          	addi	sp,sp,-16

   1d238:	00813023          	sd	s0,0(sp)

   1d23c:	00050413          	mv	s0,a0

   1d240:	00058513          	mv	a0,a1

   1d244:	00008797          	auipc	a5,0x8

   1d248:	8607aa23          	sw	zero,-1932(a5) # 24ab8 <errno>

   1d24c:	00113423          	sd	ra,8(sp)

   1d250:	745010ef          	jal	ra,1f194 <_isatty>

   1d254:	fff00793          	li	a5,-1

   1d258:	00f50a63          	beq	a0,a5,1d26c <_isatty_r+0x38>

   1d25c:	00813083          	ld	ra,8(sp)

   1d260:	00013403          	ld	s0,0(sp)

   1d264:	01010113          	addi	sp,sp,16

   1d268:	00008067          	ret

   1d26c:	00008797          	auipc	a5,0x8

   1d270:	84c78793          	addi	a5,a5,-1972 # 24ab8 <errno>

   1d274:	0007a783          	lw	a5,0(a5)

   1d278:	fe0782e3          	beqz	a5,1d25c <_isatty_r+0x28>

   1d27c:	00f42023          	sw	a5,0(s0)

   1d280:	00813083          	ld	ra,8(sp)

   1d284:	00013403          	ld	s0,0(sp)

   1d288:	01010113          	addi	sp,sp,16

   1d28c:	00008067          	ret



000000000001d290 <_lseek_r>:

   1d290:	00058793          	mv	a5,a1

   1d294:	ff010113          	addi	sp,sp,-16

   1d298:	00813023          	sd	s0,0(sp)

   1d29c:	00060593          	mv	a1,a2

   1d2a0:	00050413          	mv	s0,a0

   1d2a4:	00068613          	mv	a2,a3

   1d2a8:	00078513          	mv	a0,a5

   1d2ac:	00113423          	sd	ra,8(sp)

   1d2b0:	00008797          	auipc	a5,0x8

   1d2b4:	8007a423          	sw	zero,-2040(a5) # 24ab8 <errno>

   1d2b8:	71d010ef          	jal	ra,1f1d4 <_lseek>

   1d2bc:	fff00793          	li	a5,-1

   1d2c0:	00f50a63          	beq	a0,a5,1d2d4 <_lseek_r+0x44>

   1d2c4:	00813083          	ld	ra,8(sp)

   1d2c8:	00013403          	ld	s0,0(sp)

   1d2cc:	01010113          	addi	sp,sp,16

   1d2d0:	00008067          	ret

   1d2d4:	00007797          	auipc	a5,0x7

   1d2d8:	7e478793          	addi	a5,a5,2020 # 24ab8 <errno>

   1d2dc:	0007a783          	lw	a5,0(a5)

   1d2e0:	fe0782e3          	beqz	a5,1d2c4 <_lseek_r+0x34>

   1d2e4:	00f42023          	sw	a5,0(s0)

   1d2e8:	00813083          	ld	ra,8(sp)

   1d2ec:	00013403          	ld	s0,0(sp)

   1d2f0:	01010113          	addi	sp,sp,16

   1d2f4:	00008067          	ret



000000000001d2f8 <memcpy>:

   1d2f8:	00a5c7b3          	xor	a5,a1,a0

   1d2fc:	0077f793          	andi	a5,a5,7

   1d300:	00c508b3          	add	a7,a0,a2

   1d304:	06079263          	bnez	a5,1d368 <memcpy+0x70>

   1d308:	00700793          	li	a5,7

   1d30c:	04c7fe63          	bgeu	a5,a2,1d368 <memcpy+0x70>

   1d310:	00757793          	andi	a5,a0,7

   1d314:	00050713          	mv	a4,a0

   1d318:	06079863          	bnez	a5,1d388 <memcpy+0x90>

   1d31c:	ff88f613          	andi	a2,a7,-8

   1d320:	fc060793          	addi	a5,a2,-64

   1d324:	08f76c63          	bltu	a4,a5,1d3bc <memcpy+0xc4>

   1d328:	02c77c63          	bgeu	a4,a2,1d360 <memcpy+0x68>

   1d32c:	00058693          	mv	a3,a1

   1d330:	00070793          	mv	a5,a4

   1d334:	0006b803          	ld	a6,0(a3) # 2000 <register_fini-0xe0b0>

   1d338:	00878793          	addi	a5,a5,8

   1d33c:	00868693          	addi	a3,a3,8

   1d340:	ff07bc23          	sd	a6,-8(a5)

   1d344:	fec7e8e3          	bltu	a5,a2,1d334 <memcpy+0x3c>

   1d348:	fff60793          	addi	a5,a2,-1

   1d34c:	40e787b3          	sub	a5,a5,a4

   1d350:	ff87f793          	andi	a5,a5,-8

   1d354:	00878793          	addi	a5,a5,8

   1d358:	00f70733          	add	a4,a4,a5

   1d35c:	00f585b3          	add	a1,a1,a5

   1d360:	01176863          	bltu	a4,a7,1d370 <memcpy+0x78>

   1d364:	00008067          	ret

   1d368:	00050713          	mv	a4,a0

   1d36c:	ff157ce3          	bgeu	a0,a7,1d364 <memcpy+0x6c>

   1d370:	0005c783          	lbu	a5,0(a1)

   1d374:	00170713          	addi	a4,a4,1

   1d378:	00158593          	addi	a1,a1,1

   1d37c:	fef70fa3          	sb	a5,-1(a4)

   1d380:	ff1768e3          	bltu	a4,a7,1d370 <memcpy+0x78>

   1d384:	00008067          	ret

   1d388:	0005c683          	lbu	a3,0(a1)

   1d38c:	00170713          	addi	a4,a4,1

   1d390:	00777793          	andi	a5,a4,7

   1d394:	fed70fa3          	sb	a3,-1(a4)

   1d398:	00158593          	addi	a1,a1,1

   1d39c:	f80780e3          	beqz	a5,1d31c <memcpy+0x24>

   1d3a0:	0005c683          	lbu	a3,0(a1)

   1d3a4:	00170713          	addi	a4,a4,1

   1d3a8:	00777793          	andi	a5,a4,7

   1d3ac:	fed70fa3          	sb	a3,-1(a4)

   1d3b0:	00158593          	addi	a1,a1,1

   1d3b4:	fc079ae3          	bnez	a5,1d388 <memcpy+0x90>

   1d3b8:	f65ff06f          	j	1d31c <memcpy+0x24>

   1d3bc:	0005b683          	ld	a3,0(a1)

   1d3c0:	0085b283          	ld	t0,8(a1)

   1d3c4:	0105bf83          	ld	t6,16(a1)

   1d3c8:	0185bf03          	ld	t5,24(a1)

   1d3cc:	0205be83          	ld	t4,32(a1)

   1d3d0:	0285be03          	ld	t3,40(a1)

   1d3d4:	0305b303          	ld	t1,48(a1)

   1d3d8:	0385b803          	ld	a6,56(a1)

   1d3dc:	04858593          	addi	a1,a1,72

   1d3e0:	00d73023          	sd	a3,0(a4)

   1d3e4:	ff85b683          	ld	a3,-8(a1)

   1d3e8:	00573423          	sd	t0,8(a4)

   1d3ec:	01f73823          	sd	t6,16(a4)

   1d3f0:	01e73c23          	sd	t5,24(a4)

   1d3f4:	03d73023          	sd	t4,32(a4)

   1d3f8:	03c73423          	sd	t3,40(a4)

   1d3fc:	02673823          	sd	t1,48(a4)

   1d400:	03073c23          	sd	a6,56(a4)

   1d404:	04870713          	addi	a4,a4,72

   1d408:	fed73c23          	sd	a3,-8(a4)

   1d40c:	faf768e3          	bltu	a4,a5,1d3bc <memcpy+0xc4>

   1d410:	f19ff06f          	j	1d328 <memcpy+0x30>



000000000001d414 <memmove>:

   1d414:	02a5f663          	bgeu	a1,a0,1d440 <memmove+0x2c>

   1d418:	00c587b3          	add	a5,a1,a2

   1d41c:	02f57263          	bgeu	a0,a5,1d440 <memmove+0x2c>

   1d420:	00c50733          	add	a4,a0,a2

   1d424:	0e060a63          	beqz	a2,1d518 <memmove+0x104>

   1d428:	fff78793          	addi	a5,a5,-1

   1d42c:	0007c683          	lbu	a3,0(a5)

   1d430:	fff70713          	addi	a4,a4,-1

   1d434:	00d70023          	sb	a3,0(a4)

   1d438:	fef598e3          	bne	a1,a5,1d428 <memmove+0x14>

   1d43c:	00008067          	ret

   1d440:	01f00793          	li	a5,31

   1d444:	02c7e863          	bltu	a5,a2,1d474 <memmove+0x60>

   1d448:	00050793          	mv	a5,a0

   1d44c:	fff60693          	addi	a3,a2,-1

   1d450:	0c060c63          	beqz	a2,1d528 <memmove+0x114>

   1d454:	00168693          	addi	a3,a3,1

   1d458:	00d786b3          	add	a3,a5,a3

   1d45c:	00158593          	addi	a1,a1,1

   1d460:	fff5c703          	lbu	a4,-1(a1)

   1d464:	00178793          	addi	a5,a5,1

   1d468:	fee78fa3          	sb	a4,-1(a5)

   1d46c:	fed798e3          	bne	a5,a3,1d45c <memmove+0x48>

   1d470:	00008067          	ret

   1d474:	00a5e7b3          	or	a5,a1,a0

   1d478:	0077f793          	andi	a5,a5,7

   1d47c:	0a079063          	bnez	a5,1d51c <memmove+0x108>

   1d480:	fe060893          	addi	a7,a2,-32

   1d484:	fe08f893          	andi	a7,a7,-32

   1d488:	02088893          	addi	a7,a7,32

   1d48c:	01150833          	add	a6,a0,a7

   1d490:	00058713          	mv	a4,a1

   1d494:	00050793          	mv	a5,a0

   1d498:	00073683          	ld	a3,0(a4)

   1d49c:	02078793          	addi	a5,a5,32

   1d4a0:	02070713          	addi	a4,a4,32

   1d4a4:	fed7b023          	sd	a3,-32(a5)

   1d4a8:	fe873683          	ld	a3,-24(a4)

   1d4ac:	fed7b423          	sd	a3,-24(a5)

   1d4b0:	ff073683          	ld	a3,-16(a4)

   1d4b4:	fed7b823          	sd	a3,-16(a5)

   1d4b8:	ff873683          	ld	a3,-8(a4)

   1d4bc:	fed7bc23          	sd	a3,-8(a5)

   1d4c0:	fcf81ce3          	bne	a6,a5,1d498 <memmove+0x84>

   1d4c4:	01867713          	andi	a4,a2,24

   1d4c8:	011585b3          	add	a1,a1,a7

   1d4cc:	01f67813          	andi	a6,a2,31

   1d4d0:	04070e63          	beqz	a4,1d52c <memmove+0x118>

   1d4d4:	00058713          	mv	a4,a1

   1d4d8:	00078893          	mv	a7,a5

   1d4dc:	00700e13          	li	t3,7

   1d4e0:	00870713          	addi	a4,a4,8

   1d4e4:	ff873303          	ld	t1,-8(a4)

   1d4e8:	00888893          	addi	a7,a7,8

   1d4ec:	40e806b3          	sub	a3,a6,a4

   1d4f0:	fe68bc23          	sd	t1,-8(a7)

   1d4f4:	00d586b3          	add	a3,a1,a3

   1d4f8:	fede64e3          	bltu	t3,a3,1d4e0 <memmove+0xcc>

   1d4fc:	ff880713          	addi	a4,a6,-8

   1d500:	ff877713          	andi	a4,a4,-8

   1d504:	00870713          	addi	a4,a4,8

   1d508:	00767613          	andi	a2,a2,7

   1d50c:	00e787b3          	add	a5,a5,a4

   1d510:	00e585b3          	add	a1,a1,a4

   1d514:	f39ff06f          	j	1d44c <memmove+0x38>

   1d518:	00008067          	ret

   1d51c:	fff60693          	addi	a3,a2,-1

   1d520:	00050793          	mv	a5,a0

   1d524:	f31ff06f          	j	1d454 <memmove+0x40>

   1d528:	00008067          	ret

   1d52c:	00080613          	mv	a2,a6

   1d530:	f1dff06f          	j	1d44c <memmove+0x38>



000000000001d534 <_read_r>:

   1d534:	00058793          	mv	a5,a1

   1d538:	ff010113          	addi	sp,sp,-16

   1d53c:	00813023          	sd	s0,0(sp)

   1d540:	00060593          	mv	a1,a2

   1d544:	00050413          	mv	s0,a0

   1d548:	00068613          	mv	a2,a3

   1d54c:	00078513          	mv	a0,a5

   1d550:	00113423          	sd	ra,8(sp)

   1d554:	00007797          	auipc	a5,0x7

   1d558:	5607a223          	sw	zero,1380(a5) # 24ab8 <errno>

   1d55c:	4c9010ef          	jal	ra,1f224 <_read>

   1d560:	fff00793          	li	a5,-1

   1d564:	00f50a63          	beq	a0,a5,1d578 <_read_r+0x44>

   1d568:	00813083          	ld	ra,8(sp)

   1d56c:	00013403          	ld	s0,0(sp)

   1d570:	01010113          	addi	sp,sp,16

   1d574:	00008067          	ret

   1d578:	00007797          	auipc	a5,0x7

   1d57c:	54078793          	addi	a5,a5,1344 # 24ab8 <errno>

   1d580:	0007a783          	lw	a5,0(a5)

   1d584:	fe0782e3          	beqz	a5,1d568 <_read_r+0x34>

   1d588:	00f42023          	sw	a5,0(s0)

   1d58c:	00813083          	ld	ra,8(sp)

   1d590:	00013403          	ld	s0,0(sp)

   1d594:	01010113          	addi	sp,sp,16

   1d598:	00008067          	ret



000000000001d59c <_realloc_r>:

   1d59c:	fb010113          	addi	sp,sp,-80

   1d5a0:	03213823          	sd	s2,48(sp)

   1d5a4:	04113423          	sd	ra,72(sp)

   1d5a8:	04813023          	sd	s0,64(sp)

   1d5ac:	02913c23          	sd	s1,56(sp)

   1d5b0:	03313423          	sd	s3,40(sp)

   1d5b4:	03413023          	sd	s4,32(sp)

   1d5b8:	01513c23          	sd	s5,24(sp)

   1d5bc:	01613823          	sd	s6,16(sp)

   1d5c0:	01713423          	sd	s7,8(sp)

   1d5c4:	01813023          	sd	s8,0(sp)

   1d5c8:	00060913          	mv	s2,a2

   1d5cc:	22058463          	beqz	a1,1d7f4 <_realloc_r+0x258>

   1d5d0:	00058a93          	mv	s5,a1

   1d5d4:	00050a13          	mv	s4,a0

   1d5d8:	fa1f90ef          	jal	ra,17578 <__malloc_lock>

   1d5dc:	ff8ab783          	ld	a5,-8(s5)

   1d5e0:	01790413          	addi	s0,s2,23

   1d5e4:	02e00713          	li	a4,46

   1d5e8:	ff0a8b13          	addi	s6,s5,-16

   1d5ec:	ffc7f493          	andi	s1,a5,-4

   1d5f0:	0e877a63          	bgeu	a4,s0,1d6e4 <_realloc_r+0x148>

   1d5f4:	80000737          	lui	a4,0x80000

   1d5f8:	ff047413          	andi	s0,s0,-16

   1d5fc:	fff74713          	not	a4,a4

   1d600:	0e876663          	bltu	a4,s0,1d6ec <_realloc_r+0x150>

   1d604:	0f246463          	bltu	s0,s2,1d6ec <_realloc_r+0x150>

   1d608:	009b09b3          	add	s3,s6,s1

   1d60c:	1884da63          	bge	s1,s0,1d7a0 <_realloc_r+0x204>

   1d610:	00007717          	auipc	a4,0x7

   1d614:	bb870713          	addi	a4,a4,-1096 # 241c8 <__malloc_av_>

   1d618:	01073683          	ld	a3,16(a4)

   1d61c:	0089b703          	ld	a4,8(s3)

   1d620:	23368c63          	beq	a3,s3,1d858 <_realloc_r+0x2bc>

   1d624:	ffe77693          	andi	a3,a4,-2

   1d628:	00d986b3          	add	a3,s3,a3

   1d62c:	0086b683          	ld	a3,8(a3)

   1d630:	0016f693          	andi	a3,a3,1

   1d634:	1a069263          	bnez	a3,1d7d8 <_realloc_r+0x23c>

   1d638:	ffc77713          	andi	a4,a4,-4

   1d63c:	00e486b3          	add	a3,s1,a4

   1d640:	3486d063          	bge	a3,s0,1d980 <_realloc_r+0x3e4>

   1d644:	0017f793          	andi	a5,a5,1

   1d648:	02079463          	bnez	a5,1d670 <_realloc_r+0xd4>

   1d64c:	ff0abc03          	ld	s8,-16(s5)

   1d650:	418b0c33          	sub	s8,s6,s8

   1d654:	008c3783          	ld	a5,8(s8)

   1d658:	ffc7f793          	andi	a5,a5,-4

   1d65c:	00e78733          	add	a4,a5,a4

   1d660:	00970bb3          	add	s7,a4,s1

   1d664:	348bdc63          	bge	s7,s0,1d9bc <_realloc_r+0x420>

   1d668:	00f48bb3          	add	s7,s1,a5

   1d66c:	0c8bd063          	bge	s7,s0,1d72c <_realloc_r+0x190>

   1d670:	00090593          	mv	a1,s2

   1d674:	000a0513          	mv	a0,s4

   1d678:	d44f90ef          	jal	ra,16bbc <_malloc_r>

   1d67c:	00050913          	mv	s2,a0

   1d680:	04050c63          	beqz	a0,1d6d8 <_realloc_r+0x13c>

   1d684:	ff8ab783          	ld	a5,-8(s5)

   1d688:	ff050713          	addi	a4,a0,-16

   1d68c:	ffe7f793          	andi	a5,a5,-2

   1d690:	00fb07b3          	add	a5,s6,a5

   1d694:	30e78463          	beq	a5,a4,1d99c <_realloc_r+0x400>

   1d698:	ff848613          	addi	a2,s1,-8

   1d69c:	04800793          	li	a5,72

   1d6a0:	30c7e863          	bltu	a5,a2,1d9b0 <_realloc_r+0x414>

   1d6a4:	02700713          	li	a4,39

   1d6a8:	000ab683          	ld	a3,0(s5)

   1d6ac:	26c76c63          	bltu	a4,a2,1d924 <_realloc_r+0x388>

   1d6b0:	00050793          	mv	a5,a0

   1d6b4:	000a8713          	mv	a4,s5

   1d6b8:	00d7b023          	sd	a3,0(a5)

   1d6bc:	00873683          	ld	a3,8(a4)

   1d6c0:	00d7b423          	sd	a3,8(a5)

   1d6c4:	01073703          	ld	a4,16(a4)

   1d6c8:	00e7b823          	sd	a4,16(a5)

   1d6cc:	000a8593          	mv	a1,s5

   1d6d0:	000a0513          	mv	a0,s4

   1d6d4:	998f60ef          	jal	ra,1386c <_free_r>

   1d6d8:	000a0513          	mv	a0,s4

   1d6dc:	ea1f90ef          	jal	ra,1757c <__malloc_unlock>

   1d6e0:	0180006f          	j	1d6f8 <_realloc_r+0x15c>

   1d6e4:	02000413          	li	s0,32

   1d6e8:	f32470e3          	bgeu	s0,s2,1d608 <_realloc_r+0x6c>

   1d6ec:	00c00793          	li	a5,12

   1d6f0:	00fa2023          	sw	a5,0(s4)

   1d6f4:	00000913          	li	s2,0

   1d6f8:	04813083          	ld	ra,72(sp)

   1d6fc:	04013403          	ld	s0,64(sp)

   1d700:	00090513          	mv	a0,s2

   1d704:	03813483          	ld	s1,56(sp)

   1d708:	03013903          	ld	s2,48(sp)

   1d70c:	02813983          	ld	s3,40(sp)

   1d710:	02013a03          	ld	s4,32(sp)

   1d714:	01813a83          	ld	s5,24(sp)

   1d718:	01013b03          	ld	s6,16(sp)

   1d71c:	00813b83          	ld	s7,8(sp)

   1d720:	00013c03          	ld	s8,0(sp)

   1d724:	05010113          	addi	sp,sp,80

   1d728:	00008067          	ret

   1d72c:	018c3783          	ld	a5,24(s8)

   1d730:	010c3703          	ld	a4,16(s8)

   1d734:	ff848613          	addi	a2,s1,-8

   1d738:	04800693          	li	a3,72

   1d73c:	00f73c23          	sd	a5,24(a4)

   1d740:	00e7b823          	sd	a4,16(a5)

   1d744:	010c0913          	addi	s2,s8,16

   1d748:	017c09b3          	add	s3,s8,s7

   1d74c:	30c6e063          	bltu	a3,a2,1da4c <_realloc_r+0x4b0>

   1d750:	02700593          	li	a1,39

   1d754:	000ab703          	ld	a4,0(s5)

   1d758:	00090793          	mv	a5,s2

   1d75c:	02c5f263          	bgeu	a1,a2,1d780 <_realloc_r+0x1e4>

   1d760:	00ec3823          	sd	a4,16(s8)

   1d764:	008ab703          	ld	a4,8(s5)

   1d768:	03700793          	li	a5,55

   1d76c:	00ec3c23          	sd	a4,24(s8)

   1d770:	32c7ee63          	bltu	a5,a2,1daac <_realloc_r+0x510>

   1d774:	010ab703          	ld	a4,16(s5)

   1d778:	020c0793          	addi	a5,s8,32

   1d77c:	010a8a93          	addi	s5,s5,16

   1d780:	00e7b023          	sd	a4,0(a5)

   1d784:	008ab703          	ld	a4,8(s5)

   1d788:	000b8493          	mv	s1,s7

   1d78c:	000c0b13          	mv	s6,s8

   1d790:	00e7b423          	sd	a4,8(a5)

   1d794:	010ab703          	ld	a4,16(s5)

   1d798:	00090a93          	mv	s5,s2

   1d79c:	00e7b823          	sd	a4,16(a5)

   1d7a0:	008b3603          	ld	a2,8(s6) # ffffffff80000008 <__BSS_END__+0xffffffff7ffdb548>

   1d7a4:	408487b3          	sub	a5,s1,s0

   1d7a8:	01f00713          	li	a4,31

   1d7ac:	00167613          	andi	a2,a2,1

   1d7b0:	06f76c63          	bltu	a4,a5,1d828 <_realloc_r+0x28c>

   1d7b4:	00c4e633          	or	a2,s1,a2

   1d7b8:	00cb3423          	sd	a2,8(s6)

   1d7bc:	0089b783          	ld	a5,8(s3)

   1d7c0:	0017e793          	ori	a5,a5,1

   1d7c4:	00f9b423          	sd	a5,8(s3)

   1d7c8:	000a0513          	mv	a0,s4

   1d7cc:	db1f90ef          	jal	ra,1757c <__malloc_unlock>

   1d7d0:	000a8913          	mv	s2,s5

   1d7d4:	f25ff06f          	j	1d6f8 <_realloc_r+0x15c>

   1d7d8:	0017f793          	andi	a5,a5,1

   1d7dc:	e8079ae3          	bnez	a5,1d670 <_realloc_r+0xd4>

   1d7e0:	ff0abc03          	ld	s8,-16(s5)

   1d7e4:	418b0c33          	sub	s8,s6,s8

   1d7e8:	008c3783          	ld	a5,8(s8)

   1d7ec:	ffc7f793          	andi	a5,a5,-4

   1d7f0:	e79ff06f          	j	1d668 <_realloc_r+0xcc>

   1d7f4:	04013403          	ld	s0,64(sp)

   1d7f8:	04813083          	ld	ra,72(sp)

   1d7fc:	03813483          	ld	s1,56(sp)

   1d800:	03013903          	ld	s2,48(sp)

   1d804:	02813983          	ld	s3,40(sp)

   1d808:	02013a03          	ld	s4,32(sp)

   1d80c:	01813a83          	ld	s5,24(sp)

   1d810:	01013b03          	ld	s6,16(sp)

   1d814:	00813b83          	ld	s7,8(sp)

   1d818:	00013c03          	ld	s8,0(sp)

   1d81c:	00060593          	mv	a1,a2

   1d820:	05010113          	addi	sp,sp,80

   1d824:	b98f906f          	j	16bbc <_malloc_r>

   1d828:	00c46633          	or	a2,s0,a2

   1d82c:	00cb3423          	sd	a2,8(s6)

   1d830:	008b05b3          	add	a1,s6,s0

   1d834:	0017e793          	ori	a5,a5,1

   1d838:	00f5b423          	sd	a5,8(a1)

   1d83c:	0089b783          	ld	a5,8(s3)

   1d840:	01058593          	addi	a1,a1,16

   1d844:	000a0513          	mv	a0,s4

   1d848:	0017e793          	ori	a5,a5,1

   1d84c:	00f9b423          	sd	a5,8(s3)

   1d850:	81cf60ef          	jal	ra,1386c <_free_r>

   1d854:	f75ff06f          	j	1d7c8 <_realloc_r+0x22c>

   1d858:	ffc77713          	andi	a4,a4,-4

   1d85c:	00e486b3          	add	a3,s1,a4

   1d860:	02040613          	addi	a2,s0,32

   1d864:	0ec6d263          	bge	a3,a2,1d948 <_realloc_r+0x3ac>

   1d868:	0017f793          	andi	a5,a5,1

   1d86c:	e00792e3          	bnez	a5,1d670 <_realloc_r+0xd4>

   1d870:	ff0abc03          	ld	s8,-16(s5)

   1d874:	418b0c33          	sub	s8,s6,s8

   1d878:	008c3783          	ld	a5,8(s8)

   1d87c:	ffc7f793          	andi	a5,a5,-4

   1d880:	00e78733          	add	a4,a5,a4

   1d884:	009709b3          	add	s3,a4,s1

   1d888:	dec9c0e3          	blt	s3,a2,1d668 <_realloc_r+0xcc>

   1d88c:	018c3783          	ld	a5,24(s8)

   1d890:	010c3703          	ld	a4,16(s8)

   1d894:	ff848613          	addi	a2,s1,-8

   1d898:	04800693          	li	a3,72

   1d89c:	00f73c23          	sd	a5,24(a4)

   1d8a0:	00e7b823          	sd	a4,16(a5)

   1d8a4:	010c0913          	addi	s2,s8,16

   1d8a8:	22c6e463          	bltu	a3,a2,1dad0 <_realloc_r+0x534>

   1d8ac:	02700593          	li	a1,39

   1d8b0:	000ab703          	ld	a4,0(s5)

   1d8b4:	00090793          	mv	a5,s2

   1d8b8:	02c5f263          	bgeu	a1,a2,1d8dc <_realloc_r+0x340>

   1d8bc:	00ec3823          	sd	a4,16(s8)

   1d8c0:	008ab703          	ld	a4,8(s5)

   1d8c4:	03700793          	li	a5,55

   1d8c8:	00ec3c23          	sd	a4,24(s8)

   1d8cc:	20c7ea63          	bltu	a5,a2,1dae0 <_realloc_r+0x544>

   1d8d0:	010ab703          	ld	a4,16(s5)

   1d8d4:	020c0793          	addi	a5,s8,32

   1d8d8:	010a8a93          	addi	s5,s5,16

   1d8dc:	00e7b023          	sd	a4,0(a5)

   1d8e0:	008ab703          	ld	a4,8(s5)

   1d8e4:	00e7b423          	sd	a4,8(a5)

   1d8e8:	010ab703          	ld	a4,16(s5)

   1d8ec:	00e7b823          	sd	a4,16(a5)

   1d8f0:	008c0733          	add	a4,s8,s0

   1d8f4:	408987b3          	sub	a5,s3,s0

   1d8f8:	00007697          	auipc	a3,0x7

   1d8fc:	8ee6b023          	sd	a4,-1824(a3) # 241d8 <__malloc_av_+0x10>

   1d900:	0017e793          	ori	a5,a5,1

   1d904:	00f73423          	sd	a5,8(a4)

   1d908:	008c3783          	ld	a5,8(s8)

   1d90c:	000a0513          	mv	a0,s4

   1d910:	0017f793          	andi	a5,a5,1

   1d914:	0087e433          	or	s0,a5,s0

   1d918:	008c3423          	sd	s0,8(s8)

   1d91c:	c61f90ef          	jal	ra,1757c <__malloc_unlock>

   1d920:	dd9ff06f          	j	1d6f8 <_realloc_r+0x15c>

   1d924:	00d53023          	sd	a3,0(a0)

   1d928:	008ab683          	ld	a3,8(s5)

   1d92c:	03700713          	li	a4,55

   1d930:	00d53423          	sd	a3,8(a0)

   1d934:	12c76a63          	bltu	a4,a2,1da68 <_realloc_r+0x4cc>

   1d938:	010a8713          	addi	a4,s5,16

   1d93c:	01050793          	addi	a5,a0,16

   1d940:	010ab683          	ld	a3,16(s5)

   1d944:	d75ff06f          	j	1d6b8 <_realloc_r+0x11c>

   1d948:	008b0b33          	add	s6,s6,s0

   1d94c:	408687b3          	sub	a5,a3,s0

   1d950:	00007717          	auipc	a4,0x7

   1d954:	89673423          	sd	s6,-1912(a4) # 241d8 <__malloc_av_+0x10>

   1d958:	0017e793          	ori	a5,a5,1

   1d95c:	00fb3423          	sd	a5,8(s6)

   1d960:	ff8ab783          	ld	a5,-8(s5)

   1d964:	000a0513          	mv	a0,s4

   1d968:	000a8913          	mv	s2,s5

   1d96c:	0017f793          	andi	a5,a5,1

   1d970:	0087e433          	or	s0,a5,s0

   1d974:	fe8abc23          	sd	s0,-8(s5)

   1d978:	c05f90ef          	jal	ra,1757c <__malloc_unlock>

   1d97c:	d7dff06f          	j	1d6f8 <_realloc_r+0x15c>

   1d980:	0189b783          	ld	a5,24(s3)

   1d984:	0109b703          	ld	a4,16(s3)

   1d988:	00068493          	mv	s1,a3

   1d98c:	00db09b3          	add	s3,s6,a3

   1d990:	00f73c23          	sd	a5,24(a4)

   1d994:	00e7b823          	sd	a4,16(a5)

   1d998:	e09ff06f          	j	1d7a0 <_realloc_r+0x204>

   1d99c:	ff853783          	ld	a5,-8(a0)

   1d9a0:	ffc7f793          	andi	a5,a5,-4

   1d9a4:	00f484b3          	add	s1,s1,a5

   1d9a8:	009b09b3          	add	s3,s6,s1

   1d9ac:	df5ff06f          	j	1d7a0 <_realloc_r+0x204>

   1d9b0:	000a8593          	mv	a1,s5

   1d9b4:	a61ff0ef          	jal	ra,1d414 <memmove>

   1d9b8:	d15ff06f          	j	1d6cc <_realloc_r+0x130>

   1d9bc:	0189b783          	ld	a5,24(s3)

   1d9c0:	0109b703          	ld	a4,16(s3)

   1d9c4:	ff848613          	addi	a2,s1,-8

   1d9c8:	04800693          	li	a3,72

   1d9cc:	00f73c23          	sd	a5,24(a4)

   1d9d0:	00e7b823          	sd	a4,16(a5)

   1d9d4:	010c3703          	ld	a4,16(s8)

   1d9d8:	018c3783          	ld	a5,24(s8)

   1d9dc:	010c0913          	addi	s2,s8,16

   1d9e0:	017c09b3          	add	s3,s8,s7

   1d9e4:	00f73c23          	sd	a5,24(a4)

   1d9e8:	00e7b823          	sd	a4,16(a5)

   1d9ec:	06c6e063          	bltu	a3,a2,1da4c <_realloc_r+0x4b0>

   1d9f0:	02700693          	li	a3,39

   1d9f4:	000ab703          	ld	a4,0(s5)

   1d9f8:	00090793          	mv	a5,s2

   1d9fc:	d8c6f2e3          	bgeu	a3,a2,1d780 <_realloc_r+0x1e4>

   1da00:	00ec3823          	sd	a4,16(s8)

   1da04:	008ab703          	ld	a4,8(s5)

   1da08:	03700793          	li	a5,55

   1da0c:	00ec3c23          	sd	a4,24(s8)

   1da10:	010ab703          	ld	a4,16(s5)

   1da14:	d6c7f2e3          	bgeu	a5,a2,1d778 <_realloc_r+0x1dc>

   1da18:	02ec3023          	sd	a4,32(s8)

   1da1c:	018ab703          	ld	a4,24(s5)

   1da20:	04800793          	li	a5,72

   1da24:	02ec3423          	sd	a4,40(s8)

   1da28:	020ab703          	ld	a4,32(s5)

   1da2c:	08f61c63          	bne	a2,a5,1dac4 <_realloc_r+0x528>

   1da30:	02ec3823          	sd	a4,48(s8)

   1da34:	028ab703          	ld	a4,40(s5)

   1da38:	040c0793          	addi	a5,s8,64

   1da3c:	030a8a93          	addi	s5,s5,48

   1da40:	02ec3c23          	sd	a4,56(s8)

   1da44:	000ab703          	ld	a4,0(s5)

   1da48:	d39ff06f          	j	1d780 <_realloc_r+0x1e4>

   1da4c:	000a8593          	mv	a1,s5

   1da50:	00090513          	mv	a0,s2

   1da54:	9c1ff0ef          	jal	ra,1d414 <memmove>

   1da58:	00090a93          	mv	s5,s2

   1da5c:	000b8493          	mv	s1,s7

   1da60:	000c0b13          	mv	s6,s8

   1da64:	d3dff06f          	j	1d7a0 <_realloc_r+0x204>

   1da68:	010ab703          	ld	a4,16(s5)

   1da6c:	00e53823          	sd	a4,16(a0)

   1da70:	018ab703          	ld	a4,24(s5)

   1da74:	00e53c23          	sd	a4,24(a0)

   1da78:	00f60a63          	beq	a2,a5,1da8c <_realloc_r+0x4f0>

   1da7c:	020a8713          	addi	a4,s5,32

   1da80:	02050793          	addi	a5,a0,32

   1da84:	020ab683          	ld	a3,32(s5)

   1da88:	c31ff06f          	j	1d6b8 <_realloc_r+0x11c>

   1da8c:	020ab683          	ld	a3,32(s5)

   1da90:	030a8713          	addi	a4,s5,48

   1da94:	03050793          	addi	a5,a0,48

   1da98:	02d53023          	sd	a3,32(a0)

   1da9c:	028ab683          	ld	a3,40(s5)

   1daa0:	02d53423          	sd	a3,40(a0)

   1daa4:	030ab683          	ld	a3,48(s5)

   1daa8:	c11ff06f          	j	1d6b8 <_realloc_r+0x11c>

   1daac:	010ab783          	ld	a5,16(s5)

   1dab0:	02fc3023          	sd	a5,32(s8)

   1dab4:	018ab783          	ld	a5,24(s5)

   1dab8:	02fc3423          	sd	a5,40(s8)

   1dabc:	020ab703          	ld	a4,32(s5)

   1dac0:	f6d608e3          	beq	a2,a3,1da30 <_realloc_r+0x494>

   1dac4:	030c0793          	addi	a5,s8,48

   1dac8:	020a8a93          	addi	s5,s5,32

   1dacc:	cb5ff06f          	j	1d780 <_realloc_r+0x1e4>

   1dad0:	000a8593          	mv	a1,s5

   1dad4:	00090513          	mv	a0,s2

   1dad8:	93dff0ef          	jal	ra,1d414 <memmove>

   1dadc:	e15ff06f          	j	1d8f0 <_realloc_r+0x354>

   1dae0:	010ab783          	ld	a5,16(s5)

   1dae4:	02fc3023          	sd	a5,32(s8)

   1dae8:	018ab783          	ld	a5,24(s5)

   1daec:	02fc3423          	sd	a5,40(s8)

   1daf0:	020ab703          	ld	a4,32(s5)

   1daf4:	00d60863          	beq	a2,a3,1db04 <_realloc_r+0x568>

   1daf8:	030c0793          	addi	a5,s8,48

   1dafc:	020a8a93          	addi	s5,s5,32

   1db00:	dddff06f          	j	1d8dc <_realloc_r+0x340>

   1db04:	02ec3823          	sd	a4,48(s8)

   1db08:	028ab703          	ld	a4,40(s5)

   1db0c:	040c0793          	addi	a5,s8,64

   1db10:	030a8a93          	addi	s5,s5,48

   1db14:	02ec3c23          	sd	a4,56(s8)

   1db18:	000ab703          	ld	a4,0(s5)

   1db1c:	dc1ff06f          	j	1d8dc <_realloc_r+0x340>



000000000001db20 <cleanup_glue>:

   1db20:	fe010113          	addi	sp,sp,-32

   1db24:	00813823          	sd	s0,16(sp)

   1db28:	00058413          	mv	s0,a1

   1db2c:	0005b583          	ld	a1,0(a1)

   1db30:	00913423          	sd	s1,8(sp)

   1db34:	00113c23          	sd	ra,24(sp)

   1db38:	00050493          	mv	s1,a0

   1db3c:	00058463          	beqz	a1,1db44 <cleanup_glue+0x24>

   1db40:	fe1ff0ef          	jal	ra,1db20 <cleanup_glue>

   1db44:	00040593          	mv	a1,s0

   1db48:	01013403          	ld	s0,16(sp)

   1db4c:	01813083          	ld	ra,24(sp)

   1db50:	00048513          	mv	a0,s1

   1db54:	00813483          	ld	s1,8(sp)

   1db58:	02010113          	addi	sp,sp,32

   1db5c:	d11f506f          	j	1386c <_free_r>



000000000001db60 <_reclaim_reent>:

   1db60:	75818793          	addi	a5,gp,1880 # 24a18 <_impure_ptr>

   1db64:	0007b783          	ld	a5,0(a5)

   1db68:	10a78263          	beq	a5,a0,1dc6c <_reclaim_reent+0x10c>

   1db6c:	07853703          	ld	a4,120(a0)

   1db70:	fd010113          	addi	sp,sp,-48

   1db74:	00913c23          	sd	s1,24(sp)

   1db78:	02113423          	sd	ra,40(sp)

   1db7c:	02813023          	sd	s0,32(sp)

   1db80:	01213823          	sd	s2,16(sp)

   1db84:	01313423          	sd	s3,8(sp)

   1db88:	00050493          	mv	s1,a0

   1db8c:	04070263          	beqz	a4,1dbd0 <_reclaim_reent+0x70>

   1db90:	00000913          	li	s2,0

   1db94:	20000993          	li	s3,512

   1db98:	012707b3          	add	a5,a4,s2

   1db9c:	0007b583          	ld	a1,0(a5)

   1dba0:	00058e63          	beqz	a1,1dbbc <_reclaim_reent+0x5c>

   1dba4:	0005b403          	ld	s0,0(a1)

   1dba8:	00048513          	mv	a0,s1

   1dbac:	cc1f50ef          	jal	ra,1386c <_free_r>

   1dbb0:	00040593          	mv	a1,s0

   1dbb4:	fe0418e3          	bnez	s0,1dba4 <_reclaim_reent+0x44>

   1dbb8:	0784b703          	ld	a4,120(s1)

   1dbbc:	00890913          	addi	s2,s2,8

   1dbc0:	fd391ce3          	bne	s2,s3,1db98 <_reclaim_reent+0x38>

   1dbc4:	00070593          	mv	a1,a4

   1dbc8:	00048513          	mv	a0,s1

   1dbcc:	ca1f50ef          	jal	ra,1386c <_free_r>

   1dbd0:	0604b583          	ld	a1,96(s1)

   1dbd4:	00058663          	beqz	a1,1dbe0 <_reclaim_reent+0x80>

   1dbd8:	00048513          	mv	a0,s1

   1dbdc:	c91f50ef          	jal	ra,1386c <_free_r>

   1dbe0:	1f84b583          	ld	a1,504(s1)

   1dbe4:	02058063          	beqz	a1,1dc04 <_reclaim_reent+0xa4>

   1dbe8:	20048913          	addi	s2,s1,512

   1dbec:	01258c63          	beq	a1,s2,1dc04 <_reclaim_reent+0xa4>

   1dbf0:	0005b403          	ld	s0,0(a1)

   1dbf4:	00048513          	mv	a0,s1

   1dbf8:	c75f50ef          	jal	ra,1386c <_free_r>

   1dbfc:	00040593          	mv	a1,s0

   1dc00:	fe8918e3          	bne	s2,s0,1dbf0 <_reclaim_reent+0x90>

   1dc04:	0884b583          	ld	a1,136(s1)

   1dc08:	00058663          	beqz	a1,1dc14 <_reclaim_reent+0xb4>

   1dc0c:	00048513          	mv	a0,s1

   1dc10:	c5df50ef          	jal	ra,1386c <_free_r>

   1dc14:	0504a783          	lw	a5,80(s1)

   1dc18:	02078c63          	beqz	a5,1dc50 <_reclaim_reent+0xf0>

   1dc1c:	0584b783          	ld	a5,88(s1)

   1dc20:	00048513          	mv	a0,s1

   1dc24:	000780e7          	jalr	a5

   1dc28:	5204b583          	ld	a1,1312(s1)

   1dc2c:	02058263          	beqz	a1,1dc50 <_reclaim_reent+0xf0>

   1dc30:	02013403          	ld	s0,32(sp)

   1dc34:	02813083          	ld	ra,40(sp)

   1dc38:	01013903          	ld	s2,16(sp)

   1dc3c:	00813983          	ld	s3,8(sp)

   1dc40:	00048513          	mv	a0,s1

   1dc44:	01813483          	ld	s1,24(sp)

   1dc48:	03010113          	addi	sp,sp,48

   1dc4c:	ed5ff06f          	j	1db20 <cleanup_glue>

   1dc50:	02813083          	ld	ra,40(sp)

   1dc54:	02013403          	ld	s0,32(sp)

   1dc58:	01813483          	ld	s1,24(sp)

   1dc5c:	01013903          	ld	s2,16(sp)

   1dc60:	00813983          	ld	s3,8(sp)

   1dc64:	03010113          	addi	sp,sp,48

   1dc68:	00008067          	ret

   1dc6c:	00008067          	ret



000000000001dc70 <__ssprint_r>:

   1dc70:	01063783          	ld	a5,16(a2)

   1dc74:	fb010113          	addi	sp,sp,-80

   1dc78:	03413023          	sd	s4,32(sp)

   1dc7c:	04113423          	sd	ra,72(sp)

   1dc80:	04813023          	sd	s0,64(sp)

   1dc84:	02913c23          	sd	s1,56(sp)

   1dc88:	03213823          	sd	s2,48(sp)

   1dc8c:	03313423          	sd	s3,40(sp)

   1dc90:	01513c23          	sd	s5,24(sp)

   1dc94:	01613823          	sd	s6,16(sp)

   1dc98:	01713423          	sd	s7,8(sp)

   1dc9c:	01813023          	sd	s8,0(sp)

   1dca0:	00060a13          	mv	s4,a2

   1dca4:	10078c63          	beqz	a5,1ddbc <__ssprint_r+0x14c>

   1dca8:	00050a93          	mv	s5,a0

   1dcac:	00063983          	ld	s3,0(a2)

   1dcb0:	0005b503          	ld	a0,0(a1)

   1dcb4:	00c5a403          	lw	s0,12(a1)

   1dcb8:	00058913          	mv	s2,a1

   1dcbc:	00000b13          	li	s6,0

   1dcc0:	00000493          	li	s1,0

   1dcc4:	12048863          	beqz	s1,1ddf4 <__ssprint_r+0x184>

   1dcc8:	00040c13          	mv	s8,s0

   1dccc:	0004879b          	sext.w	a5,s1

   1dcd0:	1284ea63          	bltu	s1,s0,1de04 <__ssprint_r+0x194>

   1dcd4:	01095783          	lhu	a5,16(s2)

   1dcd8:	00048b9b          	sext.w	s7,s1

   1dcdc:	4807f713          	andi	a4,a5,1152

   1dce0:	0a070063          	beqz	a4,1dd80 <__ssprint_r+0x110>

   1dce4:	02092683          	lw	a3,32(s2)

   1dce8:	01893583          	ld	a1,24(s2)

   1dcec:	00148713          	addi	a4,s1,1

   1dcf0:	0016941b          	slliw	s0,a3,0x1

   1dcf4:	00d406bb          	addw	a3,s0,a3

   1dcf8:	40b50533          	sub	a0,a0,a1

   1dcfc:	01f6d41b          	srliw	s0,a3,0x1f

   1dd00:	00050b9b          	sext.w	s7,a0

   1dd04:	00d4043b          	addw	s0,s0,a3

   1dd08:	4014541b          	sraiw	s0,s0,0x1

   1dd0c:	01770733          	add	a4,a4,s7

   1dd10:	00e47663          	bgeu	s0,a4,1dd1c <__ssprint_r+0xac>

   1dd14:	0014841b          	addiw	s0,s1,1

   1dd18:	00a4043b          	addw	s0,s0,a0

   1dd1c:	4007f793          	andi	a5,a5,1024

   1dd20:	0e078a63          	beqz	a5,1de14 <__ssprint_r+0x1a4>

   1dd24:	00040593          	mv	a1,s0

   1dd28:	000a8513          	mv	a0,s5

   1dd2c:	e91f80ef          	jal	ra,16bbc <_malloc_r>

   1dd30:	00050c13          	mv	s8,a0

   1dd34:	10050063          	beqz	a0,1de34 <__ssprint_r+0x1c4>

   1dd38:	01893583          	ld	a1,24(s2)

   1dd3c:	000b8613          	mv	a2,s7

   1dd40:	db8ff0ef          	jal	ra,1d2f8 <memcpy>

   1dd44:	01095783          	lhu	a5,16(s2)

   1dd48:	b7f7f793          	andi	a5,a5,-1153

   1dd4c:	0807e793          	ori	a5,a5,128

   1dd50:	00f91823          	sh	a5,16(s2)

   1dd54:	017c0533          	add	a0,s8,s7

   1dd58:	41740bbb          	subw	s7,s0,s7

   1dd5c:	0004879b          	sext.w	a5,s1

   1dd60:	01893c23          	sd	s8,24(s2)

   1dd64:	02892023          	sw	s0,32(s2)

   1dd68:	01792623          	sw	s7,12(s2)

   1dd6c:	00a93023          	sd	a0,0(s2)

   1dd70:	00078413          	mv	s0,a5

   1dd74:	00078c13          	mv	s8,a5

   1dd78:	00078b93          	mv	s7,a5

   1dd7c:	08f4e463          	bltu	s1,a5,1de04 <__ssprint_r+0x194>

   1dd80:	00040613          	mv	a2,s0

   1dd84:	000b0593          	mv	a1,s6

   1dd88:	e8cff0ef          	jal	ra,1d414 <memmove>

   1dd8c:	00c92703          	lw	a4,12(s2)

   1dd90:	00093503          	ld	a0,0(s2)

   1dd94:	010a3783          	ld	a5,16(s4)

   1dd98:	4087043b          	subw	s0,a4,s0

   1dd9c:	01850533          	add	a0,a0,s8

   1dda0:	00892623          	sw	s0,12(s2)

   1dda4:	00a93023          	sd	a0,0(s2)

   1dda8:	417787b3          	sub	a5,a5,s7

   1ddac:	00fa3823          	sd	a5,16(s4)

   1ddb0:	017b0b33          	add	s6,s6,s7

   1ddb4:	417484b3          	sub	s1,s1,s7

   1ddb8:	f00796e3          	bnez	a5,1dcc4 <__ssprint_r+0x54>

   1ddbc:	000a2423          	sw	zero,8(s4)

   1ddc0:	00000513          	li	a0,0

   1ddc4:	04813083          	ld	ra,72(sp)

   1ddc8:	04013403          	ld	s0,64(sp)

   1ddcc:	03813483          	ld	s1,56(sp)

   1ddd0:	03013903          	ld	s2,48(sp)

   1ddd4:	02813983          	ld	s3,40(sp)

   1ddd8:	02013a03          	ld	s4,32(sp)

   1dddc:	01813a83          	ld	s5,24(sp)

   1dde0:	01013b03          	ld	s6,16(sp)

   1dde4:	00813b83          	ld	s7,8(sp)

   1dde8:	00013c03          	ld	s8,0(sp)

   1ddec:	05010113          	addi	sp,sp,80

   1ddf0:	00008067          	ret

   1ddf4:	0009bb03          	ld	s6,0(s3)

   1ddf8:	0089b483          	ld	s1,8(s3)

   1ddfc:	01098993          	addi	s3,s3,16

   1de00:	ec5ff06f          	j	1dcc4 <__ssprint_r+0x54>

   1de04:	00078413          	mv	s0,a5

   1de08:	00078c13          	mv	s8,a5

   1de0c:	00078b93          	mv	s7,a5

   1de10:	f71ff06f          	j	1dd80 <__ssprint_r+0x110>

   1de14:	00040613          	mv	a2,s0

   1de18:	000a8513          	mv	a0,s5

   1de1c:	f80ff0ef          	jal	ra,1d59c <_realloc_r>

   1de20:	00050c13          	mv	s8,a0

   1de24:	f20518e3          	bnez	a0,1dd54 <__ssprint_r+0xe4>

   1de28:	01893583          	ld	a1,24(s2)

   1de2c:	000a8513          	mv	a0,s5

   1de30:	a3df50ef          	jal	ra,1386c <_free_r>

   1de34:	00c00793          	li	a5,12

   1de38:	00faa023          	sw	a5,0(s5)

   1de3c:	01095783          	lhu	a5,16(s2)

   1de40:	fff00513          	li	a0,-1

   1de44:	0407e793          	ori	a5,a5,64

   1de48:	00f91823          	sh	a5,16(s2)

   1de4c:	000a3823          	sd	zero,16(s4)

   1de50:	000a2423          	sw	zero,8(s4)

   1de54:	f71ff06f          	j	1ddc4 <__ssprint_r+0x154>



000000000001de58 <_svfiprintf_r>:

   1de58:	0105d783          	lhu	a5,16(a1)

   1de5c:	e2010113          	addi	sp,sp,-480

   1de60:	1d213023          	sd	s2,448(sp)

   1de64:	1b413823          	sd	s4,432(sp)

   1de68:	19a13023          	sd	s10,384(sp)

   1de6c:	1c113c23          	sd	ra,472(sp)

   1de70:	1c813823          	sd	s0,464(sp)

   1de74:	1c913423          	sd	s1,456(sp)

   1de78:	1b313c23          	sd	s3,440(sp)

   1de7c:	1b513423          	sd	s5,424(sp)

   1de80:	1b613023          	sd	s6,416(sp)

   1de84:	19713c23          	sd	s7,408(sp)

   1de88:	19813823          	sd	s8,400(sp)

   1de8c:	19913423          	sd	s9,392(sp)

   1de90:	17b13c23          	sd	s11,376(sp)

   1de94:	0807f793          	andi	a5,a5,128

   1de98:	00d13823          	sd	a3,16(sp)

   1de9c:	00058913          	mv	s2,a1

   1dea0:	00050a13          	mv	s4,a0

   1dea4:	00060d13          	mv	s10,a2

   1dea8:	00078663          	beqz	a5,1deb4 <_svfiprintf_r+0x5c>

   1deac:	0185b783          	ld	a5,24(a1)

   1deb0:	48078ce3          	beqz	a5,1eb48 <_svfiprintf_r+0xcf0>

   1deb4:	ffff87b7          	lui	a5,0xffff8

   1deb8:	0f010493          	addi	s1,sp,240

   1debc:	8307c793          	xori	a5,a5,-2000

   1dec0:	06913823          	sd	s1,112(sp)

   1dec4:	08013023          	sd	zero,128(sp)

   1dec8:	06012c23          	sw	zero,120(sp)

   1decc:	00048d93          	mv	s11,s1

   1ded0:	02013023          	sd	zero,32(sp)

   1ded4:	04013023          	sd	zero,64(sp)

   1ded8:	04013823          	sd	zero,80(sp)

   1dedc:	04013423          	sd	zero,72(sp)

   1dee0:	00013423          	sd	zero,8(sp)

   1dee4:	00004a97          	auipc	s5,0x4

   1dee8:	794a8a93          	addi	s5,s5,1940 # 22678 <_ctype_+0x108>

   1deec:	04f13c23          	sd	a5,88(sp)

   1def0:	000d4783          	lbu	a5,0(s10)

   1def4:	0e078e63          	beqz	a5,1dff0 <_svfiprintf_r+0x198>

   1def8:	02500693          	li	a3,37

   1defc:	40d786e3          	beq	a5,a3,1eb08 <_svfiprintf_r+0xcb0>

   1df00:	000d0413          	mv	s0,s10

   1df04:	00c0006f          	j	1df10 <_svfiprintf_r+0xb8>

   1df08:	0cd78063          	beq	a5,a3,1dfc8 <_svfiprintf_r+0x170>

   1df0c:	00098413          	mv	s0,s3

   1df10:	00144783          	lbu	a5,1(s0)

   1df14:	00140993          	addi	s3,s0,1

   1df18:	fe0798e3          	bnez	a5,1df08 <_svfiprintf_r+0xb0>

   1df1c:	41a98b3b          	subw	s6,s3,s10

   1df20:	0c0b0863          	beqz	s6,1dff0 <_svfiprintf_r+0x198>

   1df24:	08013683          	ld	a3,128(sp)

   1df28:	07812783          	lw	a5,120(sp)

   1df2c:	01adb023          	sd	s10,0(s11)

   1df30:	016686b3          	add	a3,a3,s6

   1df34:	0017879b          	addiw	a5,a5,1

   1df38:	016db423          	sd	s6,8(s11)

   1df3c:	08d13023          	sd	a3,128(sp)

   1df40:	06f12c23          	sw	a5,120(sp)

   1df44:	0007869b          	sext.w	a3,a5

   1df48:	00700793          	li	a5,7

   1df4c:	010d8d93          	addi	s11,s11,16

   1df50:	08d7c263          	blt	a5,a3,1dfd4 <_svfiprintf_r+0x17c>

   1df54:	00813703          	ld	a4,8(sp)

   1df58:	00144783          	lbu	a5,1(s0)

   1df5c:	00eb073b          	addw	a4,s6,a4

   1df60:	00e13423          	sd	a4,8(sp)

   1df64:	08078663          	beqz	a5,1dff0 <_svfiprintf_r+0x198>

   1df68:	00198d13          	addi	s10,s3,1

   1df6c:	0019c603          	lbu	a2,1(s3)

   1df70:	060103a3          	sb	zero,103(sp)

   1df74:	fff00c13          	li	s8,-1

   1df78:	00000413          	li	s0,0

   1df7c:	00000c93          	li	s9,0

   1df80:	00900993          	li	s3,9

   1df84:	02a00b13          	li	s6,42

   1df88:	001d0d13          	addi	s10,s10,1

   1df8c:	0006061b          	sext.w	a2,a2

   1df90:	05a00513          	li	a0,90

   1df94:	fe06079b          	addiw	a5,a2,-32

   1df98:	0007859b          	sext.w	a1,a5

   1df9c:	18b56c63          	bltu	a0,a1,1e134 <_svfiprintf_r+0x2dc>

   1dfa0:	02079793          	slli	a5,a5,0x20

   1dfa4:	01e7d793          	srli	a5,a5,0x1e

   1dfa8:	015787b3          	add	a5,a5,s5

   1dfac:	0007a783          	lw	a5,0(a5) # ffffffffffff8000 <__BSS_END__+0xfffffffffffd3540>

   1dfb0:	015787b3          	add	a5,a5,s5

   1dfb4:	00078067          	jr	a5

   1dfb8:	010ce893          	ori	a7,s9,16

   1dfbc:	00088c9b          	sext.w	s9,a7

   1dfc0:	000d4603          	lbu	a2,0(s10)

   1dfc4:	fc5ff06f          	j	1df88 <_svfiprintf_r+0x130>

   1dfc8:	41a98b3b          	subw	s6,s3,s10

   1dfcc:	f80b0ee3          	beqz	s6,1df68 <_svfiprintf_r+0x110>

   1dfd0:	f55ff06f          	j	1df24 <_svfiprintf_r+0xcc>

   1dfd4:	07010613          	addi	a2,sp,112

   1dfd8:	00090593          	mv	a1,s2

   1dfdc:	000a0513          	mv	a0,s4

   1dfe0:	c91ff0ef          	jal	ra,1dc70 <__ssprint_r>

   1dfe4:	02051263          	bnez	a0,1e008 <_svfiprintf_r+0x1b0>

   1dfe8:	00048d93          	mv	s11,s1

   1dfec:	f69ff06f          	j	1df54 <_svfiprintf_r+0xfc>

   1dff0:	08013783          	ld	a5,128(sp)

   1dff4:	00078a63          	beqz	a5,1e008 <_svfiprintf_r+0x1b0>

   1dff8:	07010613          	addi	a2,sp,112

   1dffc:	00090593          	mv	a1,s2

   1e000:	000a0513          	mv	a0,s4

   1e004:	c6dff0ef          	jal	ra,1dc70 <__ssprint_r>

   1e008:	01095783          	lhu	a5,16(s2)

   1e00c:	0407f793          	andi	a5,a5,64

   1e010:	580796e3          	bnez	a5,1ed9c <_svfiprintf_r+0xf44>

   1e014:	1d813083          	ld	ra,472(sp)

   1e018:	1d013403          	ld	s0,464(sp)

   1e01c:	00813503          	ld	a0,8(sp)

   1e020:	1c813483          	ld	s1,456(sp)

   1e024:	1c013903          	ld	s2,448(sp)

   1e028:	1b813983          	ld	s3,440(sp)

   1e02c:	1b013a03          	ld	s4,432(sp)

   1e030:	1a813a83          	ld	s5,424(sp)

   1e034:	1a013b03          	ld	s6,416(sp)

   1e038:	19813b83          	ld	s7,408(sp)

   1e03c:	19013c03          	ld	s8,400(sp)

   1e040:	18813c83          	ld	s9,392(sp)

   1e044:	18013d03          	ld	s10,384(sp)

   1e048:	17813d83          	ld	s11,376(sp)

   1e04c:	1e010113          	addi	sp,sp,480

   1e050:	00008067          	ret

   1e054:	01013703          	ld	a4,16(sp)

   1e058:	00004797          	auipc	a5,0x4

   1e05c:	df078793          	addi	a5,a5,-528 # 21e48 <zeroes.4541+0x78>

   1e060:	02f13023          	sd	a5,32(sp)

   1e064:	020cf793          	andi	a5,s9,32

   1e068:	00870593          	addi	a1,a4,8

   1e06c:	4c078663          	beqz	a5,1e538 <_svfiprintf_r+0x6e0>

   1e070:	00073b03          	ld	s6,0(a4)

   1e074:	001cf513          	andi	a0,s9,1

   1e078:	00050e63          	beqz	a0,1e094 <_svfiprintf_r+0x23c>

   1e07c:	000b0c63          	beqz	s6,1e094 <_svfiprintf_r+0x23c>

   1e080:	002ce893          	ori	a7,s9,2

   1e084:	03000513          	li	a0,48

   1e088:	06a10423          	sb	a0,104(sp)

   1e08c:	06c104a3          	sb	a2,105(sp)

   1e090:	00088c9b          	sext.w	s9,a7

   1e094:	bffcf893          	andi	a7,s9,-1025

   1e098:	0008899b          	sext.w	s3,a7

   1e09c:	00b13823          	sd	a1,16(sp)

   1e0a0:	00200613          	li	a2,2

   1e0a4:	060103a3          	sb	zero,103(sp)

   1e0a8:	fff00593          	li	a1,-1

   1e0ac:	50bc0c63          	beq	s8,a1,1e5c4 <_svfiprintf_r+0x76c>

   1e0b0:	f7f9f893          	andi	a7,s3,-129

   1e0b4:	00088c9b          	sext.w	s9,a7

   1e0b8:	7e0b1c63          	bnez	s6,1e8b0 <_svfiprintf_r+0xa58>

   1e0bc:	5e0c1663          	bnez	s8,1e6a8 <_svfiprintf_r+0x850>

   1e0c0:	200616e3          	bnez	a2,1eacc <_svfiprintf_r+0xc74>

   1e0c4:	0019fb13          	andi	s6,s3,1

   1e0c8:	0ec10b93          	addi	s7,sp,236

   1e0cc:	000b0863          	beqz	s6,1e0dc <_svfiprintf_r+0x284>

   1e0d0:	03000793          	li	a5,48

   1e0d4:	0ef105a3          	sb	a5,235(sp)

   1e0d8:	0eb10b93          	addi	s7,sp,235

   1e0dc:	000c0793          	mv	a5,s8

   1e0e0:	016c5463          	bge	s8,s6,1e0e8 <_svfiprintf_r+0x290>

   1e0e4:	000b0793          	mv	a5,s6

   1e0e8:	06714603          	lbu	a2,103(sp)

   1e0ec:	0007899b          	sext.w	s3,a5

   1e0f0:	06060063          	beqz	a2,1e150 <_svfiprintf_r+0x2f8>

   1e0f4:	0017899b          	addiw	s3,a5,1

   1e0f8:	0580006f          	j	1e150 <_svfiprintf_r+0x2f8>

   1e0fc:	00000413          	li	s0,0

   1e100:	001d0d13          	addi	s10,s10,1

   1e104:	fffd4583          	lbu	a1,-1(s10)

   1e108:	0024179b          	slliw	a5,s0,0x2

   1e10c:	0087843b          	addw	s0,a5,s0

   1e110:	fd06061b          	addiw	a2,a2,-48

   1e114:	0014141b          	slliw	s0,s0,0x1

   1e118:	fd05879b          	addiw	a5,a1,-48

   1e11c:	0086043b          	addw	s0,a2,s0

   1e120:	0005861b          	sext.w	a2,a1

   1e124:	fcf9fee3          	bgeu	s3,a5,1e100 <_svfiprintf_r+0x2a8>

   1e128:	fe06079b          	addiw	a5,a2,-32

   1e12c:	0007859b          	sext.w	a1,a5

   1e130:	e6b578e3          	bgeu	a0,a1,1dfa0 <_svfiprintf_r+0x148>

   1e134:	ea060ee3          	beqz	a2,1dff0 <_svfiprintf_r+0x198>

   1e138:	08c10423          	sb	a2,136(sp)

   1e13c:	060103a3          	sb	zero,103(sp)

   1e140:	00100993          	li	s3,1

   1e144:	00100b13          	li	s6,1

   1e148:	08810b93          	addi	s7,sp,136

   1e14c:	00000c13          	li	s8,0

   1e150:	002cfe93          	andi	t4,s9,2

   1e154:	000e8e9b          	sext.w	t4,t4

   1e158:	000e8463          	beqz	t4,1e160 <_svfiprintf_r+0x308>

   1e15c:	0029899b          	addiw	s3,s3,2

   1e160:	084cf293          	andi	t0,s9,132

   1e164:	08013783          	ld	a5,128(sp)

   1e168:	07812603          	lw	a2,120(sp)

   1e16c:	00029663          	bnez	t0,1e178 <_svfiprintf_r+0x320>

   1e170:	41340e3b          	subw	t3,s0,s3

   1e174:	75c04263          	bgtz	t3,1e8b8 <_svfiprintf_r+0xa60>

   1e178:	06714f03          	lbu	t5,103(sp)

   1e17c:	0016051b          	addiw	a0,a2,1

   1e180:	010d8593          	addi	a1,s11,16

   1e184:	040f0063          	beqz	t5,1e1c4 <_svfiprintf_r+0x36c>

   1e188:	06710f13          	addi	t5,sp,103

   1e18c:	00178793          	addi	a5,a5,1

   1e190:	01edb023          	sd	t5,0(s11)

   1e194:	00100f13          	li	t5,1

   1e198:	01edb423          	sd	t5,8(s11)

   1e19c:	08f13023          	sd	a5,128(sp)

   1e1a0:	06a12c23          	sw	a0,120(sp)

   1e1a4:	00700e13          	li	t3,7

   1e1a8:	7eae4e63          	blt	t3,a0,1e9a4 <_svfiprintf_r+0xb4c>

   1e1ac:	00260f1b          	addiw	t5,a2,2

   1e1b0:	020d8e13          	addi	t3,s11,32

   1e1b4:	00050613          	mv	a2,a0

   1e1b8:	00058d93          	mv	s11,a1

   1e1bc:	000f0513          	mv	a0,t5

   1e1c0:	000e0593          	mv	a1,t3

   1e1c4:	020e8c63          	beqz	t4,1e1fc <_svfiprintf_r+0x3a4>

   1e1c8:	06810613          	addi	a2,sp,104

   1e1cc:	00278793          	addi	a5,a5,2

   1e1d0:	00cdb023          	sd	a2,0(s11)

   1e1d4:	00200613          	li	a2,2

   1e1d8:	00cdb423          	sd	a2,8(s11)

   1e1dc:	08f13023          	sd	a5,128(sp)

   1e1e0:	06a12c23          	sw	a0,120(sp)

   1e1e4:	00700713          	li	a4,7

   1e1e8:	7ea74c63          	blt	a4,a0,1e9e0 <_svfiprintf_r+0xb88>

   1e1ec:	00050613          	mv	a2,a0

   1e1f0:	00058d93          	mv	s11,a1

   1e1f4:	0015051b          	addiw	a0,a0,1

   1e1f8:	01058593          	addi	a1,a1,16

   1e1fc:	08000e13          	li	t3,128

   1e200:	4fc28863          	beq	t0,t3,1e6f0 <_svfiprintf_r+0x898>

   1e204:	416c0c3b          	subw	s8,s8,s6

   1e208:	5b804663          	bgtz	s8,1e7b4 <_svfiprintf_r+0x95c>

   1e20c:	00fb07b3          	add	a5,s6,a5

   1e210:	017db023          	sd	s7,0(s11)

   1e214:	016db423          	sd	s6,8(s11)

   1e218:	08f13023          	sd	a5,128(sp)

   1e21c:	06a12c23          	sw	a0,120(sp)

   1e220:	00700713          	li	a4,7

   1e224:	64a74a63          	blt	a4,a0,1e878 <_svfiprintf_r+0xa20>

   1e228:	004cf893          	andi	a7,s9,4

   1e22c:	00088663          	beqz	a7,1e238 <_svfiprintf_r+0x3e0>

   1e230:	41340b3b          	subw	s6,s0,s3

   1e234:	7f604063          	bgtz	s6,1ea14 <_svfiprintf_r+0xbbc>

   1e238:	00040713          	mv	a4,s0

   1e23c:	01345463          	bge	s0,s3,1e244 <_svfiprintf_r+0x3ec>

   1e240:	00098713          	mv	a4,s3

   1e244:	00813683          	ld	a3,8(sp)

   1e248:	00d7073b          	addw	a4,a4,a3

   1e24c:	00e13423          	sd	a4,8(sp)

   1e250:	64079463          	bnez	a5,1e898 <_svfiprintf_r+0xa40>

   1e254:	06012c23          	sw	zero,120(sp)

   1e258:	00048d93          	mv	s11,s1

   1e25c:	c95ff06f          	j	1def0 <_svfiprintf_r+0x98>

   1e260:	01013703          	ld	a4,16(sp)

   1e264:	060103a3          	sb	zero,103(sp)

   1e268:	00100993          	li	s3,1

   1e26c:	00072783          	lw	a5,0(a4)

   1e270:	00870713          	addi	a4,a4,8

   1e274:	00e13823          	sd	a4,16(sp)

   1e278:	08f10423          	sb	a5,136(sp)

   1e27c:	00100b13          	li	s6,1

   1e280:	08810b93          	addi	s7,sp,136

   1e284:	ec9ff06f          	j	1e14c <_svfiprintf_r+0x2f4>

   1e288:	001ce893          	ori	a7,s9,1

   1e28c:	00088c9b          	sext.w	s9,a7

   1e290:	000d4603          	lbu	a2,0(s10)

   1e294:	cf5ff06f          	j	1df88 <_svfiprintf_r+0x130>

   1e298:	000d4603          	lbu	a2,0(s10)

   1e29c:	004ce893          	ori	a7,s9,4

   1e2a0:	00088c9b          	sext.w	s9,a7

   1e2a4:	ce5ff06f          	j	1df88 <_svfiprintf_r+0x130>

   1e2a8:	02b00793          	li	a5,43

   1e2ac:	06f103a3          	sb	a5,103(sp)

   1e2b0:	000d4603          	lbu	a2,0(s10)

   1e2b4:	cd5ff06f          	j	1df88 <_svfiprintf_r+0x130>

   1e2b8:	01013783          	ld	a5,16(sp)

   1e2bc:	000d4603          	lbu	a2,0(s10)

   1e2c0:	0007a403          	lw	s0,0(a5)

   1e2c4:	00878793          	addi	a5,a5,8

   1e2c8:	00f13823          	sd	a5,16(sp)

   1e2cc:	ca045ee3          	bgez	s0,1df88 <_svfiprintf_r+0x130>

   1e2d0:	4080043b          	negw	s0,s0

   1e2d4:	fc9ff06f          	j	1e29c <_svfiprintf_r+0x444>

   1e2d8:	000a0513          	mv	a0,s4

   1e2dc:	e48f80ef          	jal	ra,16924 <_localeconv_r>

   1e2e0:	00853783          	ld	a5,8(a0)

   1e2e4:	00078513          	mv	a0,a5

   1e2e8:	04f13423          	sd	a5,72(sp)

   1e2ec:	971fa0ef          	jal	ra,18c5c <strlen>

   1e2f0:	04a13823          	sd	a0,80(sp)

   1e2f4:	00050b93          	mv	s7,a0

   1e2f8:	000a0513          	mv	a0,s4

   1e2fc:	e28f80ef          	jal	ra,16924 <_localeconv_r>

   1e300:	01053783          	ld	a5,16(a0)

   1e304:	000d4603          	lbu	a2,0(s10)

   1e308:	04f13023          	sd	a5,64(sp)

   1e30c:	c60b8ee3          	beqz	s7,1df88 <_svfiprintf_r+0x130>

   1e310:	c6078ce3          	beqz	a5,1df88 <_svfiprintf_r+0x130>

   1e314:	0007c783          	lbu	a5,0(a5)

   1e318:	c60788e3          	beqz	a5,1df88 <_svfiprintf_r+0x130>

   1e31c:	400ce893          	ori	a7,s9,1024

   1e320:	00088c9b          	sext.w	s9,a7

   1e324:	c65ff06f          	j	1df88 <_svfiprintf_r+0x130>

   1e328:	080ce893          	ori	a7,s9,128

   1e32c:	00088c9b          	sext.w	s9,a7

   1e330:	000d4603          	lbu	a2,0(s10)

   1e334:	c55ff06f          	j	1df88 <_svfiprintf_r+0x130>

   1e338:	000d4603          	lbu	a2,0(s10)

   1e33c:	001d0793          	addi	a5,s10,1

   1e340:	276604e3          	beq	a2,s6,1eda8 <_svfiprintf_r+0xf50>

   1e344:	fd06059b          	addiw	a1,a2,-48

   1e348:	00078d13          	mv	s10,a5

   1e34c:	00000c13          	li	s8,0

   1e350:	c4b9e2e3          	bltu	s3,a1,1df94 <_svfiprintf_r+0x13c>

   1e354:	001d0d13          	addi	s10,s10,1

   1e358:	002c179b          	slliw	a5,s8,0x2

   1e35c:	fffd4603          	lbu	a2,-1(s10)

   1e360:	018786bb          	addw	a3,a5,s8

   1e364:	0016969b          	slliw	a3,a3,0x1

   1e368:	00b68c3b          	addw	s8,a3,a1

   1e36c:	fd06059b          	addiw	a1,a2,-48

   1e370:	feb9f2e3          	bgeu	s3,a1,1e354 <_svfiprintf_r+0x4fc>

   1e374:	c21ff06f          	j	1df94 <_svfiprintf_r+0x13c>

   1e378:	01013783          	ld	a5,16(sp)

   1e37c:	010cee13          	ori	t3,s9,16

   1e380:	000e099b          	sext.w	s3,t3

   1e384:	00878593          	addi	a1,a5,8

   1e388:	01013783          	ld	a5,16(sp)

   1e38c:	00100613          	li	a2,1

   1e390:	0007bb03          	ld	s6,0(a5)

   1e394:	00b13823          	sd	a1,16(sp)

   1e398:	d0dff06f          	j	1e0a4 <_svfiprintf_r+0x24c>

   1e39c:	01013783          	ld	a5,16(sp)

   1e3a0:	060103a3          	sb	zero,103(sp)

   1e3a4:	0007bb83          	ld	s7,0(a5)

   1e3a8:	00878713          	addi	a4,a5,8

   1e3ac:	0c0b82e3          	beqz	s7,1ec70 <_svfiprintf_r+0xe18>

   1e3b0:	fff00793          	li	a5,-1

   1e3b4:	00e13823          	sd	a4,16(sp)

   1e3b8:	76fc0e63          	beq	s8,a5,1eb34 <_svfiprintf_r+0xcdc>

   1e3bc:	000c0613          	mv	a2,s8

   1e3c0:	00000593          	li	a1,0

   1e3c4:	000b8513          	mv	a0,s7

   1e3c8:	8c0f90ef          	jal	ra,17488 <memchr>

   1e3cc:	01013703          	ld	a4,16(sp)

   1e3d0:	1a0500e3          	beqz	a0,1ed70 <_svfiprintf_r+0xf18>

   1e3d4:	41750b3b          	subw	s6,a0,s7

   1e3d8:	00000c13          	li	s8,0

   1e3dc:	d01ff06f          	j	1e0dc <_svfiprintf_r+0x284>

   1e3e0:	010ce793          	ori	a5,s9,16

   1e3e4:	0007889b          	sext.w	a7,a5

   1e3e8:	01013783          	ld	a5,16(sp)

   1e3ec:	00878613          	addi	a2,a5,8

   1e3f0:	01013783          	ld	a5,16(sp)

   1e3f4:	0007bb03          	ld	s6,0(a5)

   1e3f8:	00c13823          	sd	a2,16(sp)

   1e3fc:	bff8f893          	andi	a7,a7,-1025

   1e400:	0008899b          	sext.w	s3,a7

   1e404:	00000613          	li	a2,0

   1e408:	c9dff06f          	j	1e0a4 <_svfiprintf_r+0x24c>

   1e40c:	01013783          	ld	a5,16(sp)

   1e410:	010cee13          	ori	t3,s9,16

   1e414:	000e099b          	sext.w	s3,t3

   1e418:	00878593          	addi	a1,a5,8

   1e41c:	01013783          	ld	a5,16(sp)

   1e420:	0007b603          	ld	a2,0(a5)

   1e424:	00b13823          	sd	a1,16(sp)

   1e428:	00060b13          	mv	s6,a2

   1e42c:	18064063          	bltz	a2,1e5ac <_svfiprintf_r+0x754>

   1e430:	fff00613          	li	a2,-1

   1e434:	00cc0a63          	beq	s8,a2,1e448 <_svfiprintf_r+0x5f0>

   1e438:	f7f9f893          	andi	a7,s3,-129

   1e43c:	00088c9b          	sext.w	s9,a7

   1e440:	680b0463          	beqz	s6,1eac8 <_svfiprintf_r+0xc70>

   1e444:	000c8993          	mv	s3,s9

   1e448:	00900613          	li	a2,9

   1e44c:	71666e63          	bltu	a2,s6,1eb68 <_svfiprintf_r+0xd10>

   1e450:	030b079b          	addiw	a5,s6,48

   1e454:	0ef105a3          	sb	a5,235(sp)

   1e458:	00098c93          	mv	s9,s3

   1e45c:	00100b13          	li	s6,1

   1e460:	0eb10b93          	addi	s7,sp,235

   1e464:	c79ff06f          	j	1e0dc <_svfiprintf_r+0x284>

   1e468:	020ce893          	ori	a7,s9,32

   1e46c:	00088c9b          	sext.w	s9,a7

   1e470:	000d4603          	lbu	a2,0(s10)

   1e474:	b15ff06f          	j	1df88 <_svfiprintf_r+0x130>

   1e478:	01013783          	ld	a5,16(sp)

   1e47c:	05813703          	ld	a4,88(sp)

   1e480:	002ce893          	ori	a7,s9,2

   1e484:	0007bb03          	ld	s6,0(a5)

   1e488:	00878793          	addi	a5,a5,8

   1e48c:	00f13823          	sd	a5,16(sp)

   1e490:	00004797          	auipc	a5,0x4

   1e494:	9a078793          	addi	a5,a5,-1632 # 21e30 <zeroes.4541+0x60>

   1e498:	0008899b          	sext.w	s3,a7

   1e49c:	06e11423          	sh	a4,104(sp)

   1e4a0:	02f13023          	sd	a5,32(sp)

   1e4a4:	00200613          	li	a2,2

   1e4a8:	bfdff06f          	j	1e0a4 <_svfiprintf_r+0x24c>

   1e4ac:	01013703          	ld	a4,16(sp)

   1e4b0:	020cf793          	andi	a5,s9,32

   1e4b4:	00870593          	addi	a1,a4,8

   1e4b8:	66079463          	bnez	a5,1eb20 <_svfiprintf_r+0xcc8>

   1e4bc:	010cf793          	andi	a5,s9,16

   1e4c0:	66079063          	bnez	a5,1eb20 <_svfiprintf_r+0xcc8>

   1e4c4:	01013783          	ld	a5,16(sp)

   1e4c8:	040cf613          	andi	a2,s9,64

   1e4cc:	0007a783          	lw	a5,0(a5)

   1e4d0:	7c060663          	beqz	a2,1ec9c <_svfiprintf_r+0xe44>

   1e4d4:	03079b13          	slli	s6,a5,0x30

   1e4d8:	030b5b13          	srli	s6,s6,0x30

   1e4dc:	00b13823          	sd	a1,16(sp)

   1e4e0:	000c8993          	mv	s3,s9

   1e4e4:	00100613          	li	a2,1

   1e4e8:	bbdff06f          	j	1e0a4 <_svfiprintf_r+0x24c>

   1e4ec:	06714783          	lbu	a5,103(sp)

   1e4f0:	000d4603          	lbu	a2,0(s10)

   1e4f4:	a8079ae3          	bnez	a5,1df88 <_svfiprintf_r+0x130>

   1e4f8:	02000793          	li	a5,32

   1e4fc:	06f103a3          	sb	a5,103(sp)

   1e500:	a89ff06f          	j	1df88 <_svfiprintf_r+0x130>

   1e504:	000d4603          	lbu	a2,0(s10)

   1e508:	06c00793          	li	a5,108

   1e50c:	72f60263          	beq	a2,a5,1ec30 <_svfiprintf_r+0xdd8>

   1e510:	010ce893          	ori	a7,s9,16

   1e514:	00088c9b          	sext.w	s9,a7

   1e518:	a71ff06f          	j	1df88 <_svfiprintf_r+0x130>

   1e51c:	01013703          	ld	a4,16(sp)

   1e520:	00004797          	auipc	a5,0x4

   1e524:	91078793          	addi	a5,a5,-1776 # 21e30 <zeroes.4541+0x60>

   1e528:	02f13023          	sd	a5,32(sp)

   1e52c:	020cf793          	andi	a5,s9,32

   1e530:	00870593          	addi	a1,a4,8

   1e534:	b2079ee3          	bnez	a5,1e070 <_svfiprintf_r+0x218>

   1e538:	010cf793          	andi	a5,s9,16

   1e53c:	5e079663          	bnez	a5,1eb28 <_svfiprintf_r+0xcd0>

   1e540:	01013783          	ld	a5,16(sp)

   1e544:	040cf513          	andi	a0,s9,64

   1e548:	0007a783          	lw	a5,0(a5)

   1e54c:	76050663          	beqz	a0,1ecb8 <_svfiprintf_r+0xe60>

   1e550:	03079b13          	slli	s6,a5,0x30

   1e554:	030b5b13          	srli	s6,s6,0x30

   1e558:	b1dff06f          	j	1e074 <_svfiprintf_r+0x21c>

   1e55c:	000d4603          	lbu	a2,0(s10)

   1e560:	06800793          	li	a5,104

   1e564:	6af60c63          	beq	a2,a5,1ec1c <_svfiprintf_r+0xdc4>

   1e568:	040ce893          	ori	a7,s9,64

   1e56c:	00088c9b          	sext.w	s9,a7

   1e570:	a19ff06f          	j	1df88 <_svfiprintf_r+0x130>

   1e574:	01013703          	ld	a4,16(sp)

   1e578:	020cf793          	andi	a5,s9,32

   1e57c:	00870593          	addi	a1,a4,8

   1e580:	58079c63          	bnez	a5,1eb18 <_svfiprintf_r+0xcc0>

   1e584:	010cf793          	andi	a5,s9,16

   1e588:	58079863          	bnez	a5,1eb18 <_svfiprintf_r+0xcc0>

   1e58c:	040cf793          	andi	a5,s9,64

   1e590:	74078c63          	beqz	a5,1ece8 <_svfiprintf_r+0xe90>

   1e594:	01013783          	ld	a5,16(sp)

   1e598:	00b13823          	sd	a1,16(sp)

   1e59c:	000c8993          	mv	s3,s9

   1e5a0:	00079b03          	lh	s6,0(a5)

   1e5a4:	000b0613          	mv	a2,s6

   1e5a8:	e80654e3          	bgez	a2,1e430 <_svfiprintf_r+0x5d8>

   1e5ac:	02d00613          	li	a2,45

   1e5b0:	06c103a3          	sb	a2,103(sp)

   1e5b4:	fff00593          	li	a1,-1

   1e5b8:	41600b33          	neg	s6,s6

   1e5bc:	00100613          	li	a2,1

   1e5c0:	aebc18e3          	bne	s8,a1,1e0b0 <_svfiprintf_r+0x258>

   1e5c4:	00100593          	li	a1,1

   1e5c8:	e8b600e3          	beq	a2,a1,1e448 <_svfiprintf_r+0x5f0>

   1e5cc:	00200593          	li	a1,2

   1e5d0:	0eb60663          	beq	a2,a1,1e6bc <_svfiprintf_r+0x864>

   1e5d4:	0ec10593          	addi	a1,sp,236

   1e5d8:	0080006f          	j	1e5e0 <_svfiprintf_r+0x788>

   1e5dc:	000b8593          	mv	a1,s7

   1e5e0:	007b7613          	andi	a2,s6,7

   1e5e4:	03060613          	addi	a2,a2,48

   1e5e8:	fec58fa3          	sb	a2,-1(a1)

   1e5ec:	003b5b13          	srli	s6,s6,0x3

   1e5f0:	fff58b93          	addi	s7,a1,-1

   1e5f4:	fe0b14e3          	bnez	s6,1e5dc <_svfiprintf_r+0x784>

   1e5f8:	0019f793          	andi	a5,s3,1

   1e5fc:	0e078263          	beqz	a5,1e6e0 <_svfiprintf_r+0x888>

   1e600:	03000793          	li	a5,48

   1e604:	0cf60e63          	beq	a2,a5,1e6e0 <_svfiprintf_r+0x888>

   1e608:	ffe58593          	addi	a1,a1,-2

   1e60c:	fefb8fa3          	sb	a5,-1(s7)

   1e610:	0ec10793          	addi	a5,sp,236

   1e614:	40b78b3b          	subw	s6,a5,a1

   1e618:	00098c93          	mv	s9,s3

   1e61c:	00058b93          	mv	s7,a1

   1e620:	abdff06f          	j	1e0dc <_svfiprintf_r+0x284>

   1e624:	01013703          	ld	a4,16(sp)

   1e628:	020cf793          	andi	a5,s9,32

   1e62c:	00870613          	addi	a2,a4,8

   1e630:	4e079063          	bnez	a5,1eb10 <_svfiprintf_r+0xcb8>

   1e634:	010cf793          	andi	a5,s9,16

   1e638:	4c079c63          	bnez	a5,1eb10 <_svfiprintf_r+0xcb8>

   1e63c:	01013783          	ld	a5,16(sp)

   1e640:	040cf593          	andi	a1,s9,64

   1e644:	0007a783          	lw	a5,0(a5)

   1e648:	68058463          	beqz	a1,1ecd0 <_svfiprintf_r+0xe78>

   1e64c:	03079b13          	slli	s6,a5,0x30

   1e650:	030b5b13          	srli	s6,s6,0x30

   1e654:	000c8893          	mv	a7,s9

   1e658:	00c13823          	sd	a2,16(sp)

   1e65c:	da1ff06f          	j	1e3fc <_svfiprintf_r+0x5a4>

   1e660:	01013703          	ld	a4,16(sp)

   1e664:	020cf793          	andi	a5,s9,32

   1e668:	00073683          	ld	a3,0(a4)

   1e66c:	00870713          	addi	a4,a4,8

   1e670:	00e13823          	sd	a4,16(sp)

   1e674:	02079463          	bnez	a5,1e69c <_svfiprintf_r+0x844>

   1e678:	010cf793          	andi	a5,s9,16

   1e67c:	02079063          	bnez	a5,1e69c <_svfiprintf_r+0x844>

   1e680:	040cf793          	andi	a5,s9,64

   1e684:	6c079c63          	bnez	a5,1ed5c <_svfiprintf_r+0xf04>

   1e688:	200cf893          	andi	a7,s9,512

   1e68c:	00813783          	ld	a5,8(sp)

   1e690:	70088263          	beqz	a7,1ed94 <_svfiprintf_r+0xf3c>

   1e694:	00f68023          	sb	a5,0(a3)

   1e698:	859ff06f          	j	1def0 <_svfiprintf_r+0x98>

   1e69c:	00813783          	ld	a5,8(sp)

   1e6a0:	00f6b023          	sd	a5,0(a3)

   1e6a4:	84dff06f          	j	1def0 <_svfiprintf_r+0x98>

   1e6a8:	00100593          	li	a1,1

   1e6ac:	6ab60e63          	beq	a2,a1,1ed68 <_svfiprintf_r+0xf10>

   1e6b0:	00200593          	li	a1,2

   1e6b4:	000c8993          	mv	s3,s9

   1e6b8:	f0b61ee3          	bne	a2,a1,1e5d4 <_svfiprintf_r+0x77c>

   1e6bc:	0ec10b93          	addi	s7,sp,236

   1e6c0:	02013783          	ld	a5,32(sp)

   1e6c4:	00fb7613          	andi	a2,s6,15

   1e6c8:	fffb8b93          	addi	s7,s7,-1

   1e6cc:	00c78633          	add	a2,a5,a2

   1e6d0:	00064603          	lbu	a2,0(a2)

   1e6d4:	004b5b13          	srli	s6,s6,0x4

   1e6d8:	00cb8023          	sb	a2,0(s7)

   1e6dc:	fe0b12e3          	bnez	s6,1e6c0 <_svfiprintf_r+0x868>

   1e6e0:	0ec10793          	addi	a5,sp,236

   1e6e4:	41778b3b          	subw	s6,a5,s7

   1e6e8:	00098c93          	mv	s9,s3

   1e6ec:	9f1ff06f          	j	1e0dc <_svfiprintf_r+0x284>

   1e6f0:	41340e3b          	subw	t3,s0,s3

   1e6f4:	b1c058e3          	blez	t3,1e204 <_svfiprintf_r+0x3ac>

   1e6f8:	01000e93          	li	t4,16

   1e6fc:	69ced263          	bge	t4,t3,1ed80 <_svfiprintf_r+0xf28>

   1e700:	00004e97          	auipc	t4,0x4

   1e704:	0f8e8e93          	addi	t4,t4,248 # 227f8 <zeroes.4503>

   1e708:	01000f13          	li	t5,16

   1e70c:	00700f93          	li	t6,7

   1e710:	00c0006f          	j	1e71c <_svfiprintf_r+0x8c4>

   1e714:	ff0e0e1b          	addiw	t3,t3,-16

   1e718:	07cf5263          	bge	t5,t3,1e77c <_svfiprintf_r+0x924>

   1e71c:	0016061b          	addiw	a2,a2,1

   1e720:	01078793          	addi	a5,a5,16

   1e724:	01ddb023          	sd	t4,0(s11)

   1e728:	01edb423          	sd	t5,8(s11)

   1e72c:	08f13023          	sd	a5,128(sp)

   1e730:	06c12c23          	sw	a2,120(sp)

   1e734:	010d8d93          	addi	s11,s11,16

   1e738:	fccfdee3          	bge	t6,a2,1e714 <_svfiprintf_r+0x8bc>

   1e73c:	07010613          	addi	a2,sp,112

   1e740:	00090593          	mv	a1,s2

   1e744:	000a0513          	mv	a0,s4

   1e748:	03d13423          	sd	t4,40(sp)

   1e74c:	01c13c23          	sd	t3,24(sp)

   1e750:	d20ff0ef          	jal	ra,1dc70 <__ssprint_r>

   1e754:	8a051ae3          	bnez	a0,1e008 <_svfiprintf_r+0x1b0>

   1e758:	01813e03          	ld	t3,24(sp)

   1e75c:	01000f13          	li	t5,16

   1e760:	08013783          	ld	a5,128(sp)

   1e764:	ff0e0e1b          	addiw	t3,t3,-16

   1e768:	07812603          	lw	a2,120(sp)

   1e76c:	00048d93          	mv	s11,s1

   1e770:	02813e83          	ld	t4,40(sp)

   1e774:	00700f93          	li	t6,7

   1e778:	fbcf42e3          	blt	t5,t3,1e71c <_svfiprintf_r+0x8c4>

   1e77c:	0016061b          	addiw	a2,a2,1

   1e780:	010d8f13          	addi	t5,s11,16

   1e784:	01c787b3          	add	a5,a5,t3

   1e788:	01ddb023          	sd	t4,0(s11)

   1e78c:	01cdb423          	sd	t3,8(s11)

   1e790:	08f13023          	sd	a5,128(sp)

   1e794:	06c12c23          	sw	a2,120(sp)

   1e798:	00700713          	li	a4,7

   1e79c:	4ac74463          	blt	a4,a2,1ec44 <_svfiprintf_r+0xdec>

   1e7a0:	416c0c3b          	subw	s8,s8,s6

   1e7a4:	0016051b          	addiw	a0,a2,1

   1e7a8:	010f0593          	addi	a1,t5,16

   1e7ac:	000f0d93          	mv	s11,t5

   1e7b0:	a5805ee3          	blez	s8,1e20c <_svfiprintf_r+0x3b4>

   1e7b4:	01000e13          	li	t3,16

   1e7b8:	558e5863          	bge	t3,s8,1ed08 <_svfiprintf_r+0xeb0>

   1e7bc:	00004e97          	auipc	t4,0x4

   1e7c0:	03ce8e93          	addi	t4,t4,60 # 227f8 <zeroes.4503>

   1e7c4:	00700f13          	li	t5,7

   1e7c8:	00c0006f          	j	1e7d4 <_svfiprintf_r+0x97c>

   1e7cc:	ff0c0c1b          	addiw	s8,s8,-16

   1e7d0:	058e5e63          	bge	t3,s8,1e82c <_svfiprintf_r+0x9d4>

   1e7d4:	0016061b          	addiw	a2,a2,1

   1e7d8:	01078793          	addi	a5,a5,16

   1e7dc:	01ddb023          	sd	t4,0(s11)

   1e7e0:	01cdb423          	sd	t3,8(s11)

   1e7e4:	08f13023          	sd	a5,128(sp)

   1e7e8:	06c12c23          	sw	a2,120(sp)

   1e7ec:	010d8d93          	addi	s11,s11,16

   1e7f0:	fccf5ee3          	bge	t5,a2,1e7cc <_svfiprintf_r+0x974>

   1e7f4:	07010613          	addi	a2,sp,112

   1e7f8:	00090593          	mv	a1,s2

   1e7fc:	000a0513          	mv	a0,s4

   1e800:	01d13c23          	sd	t4,24(sp)

   1e804:	c6cff0ef          	jal	ra,1dc70 <__ssprint_r>

   1e808:	800510e3          	bnez	a0,1e008 <_svfiprintf_r+0x1b0>

   1e80c:	01000e13          	li	t3,16

   1e810:	ff0c0c1b          	addiw	s8,s8,-16

   1e814:	08013783          	ld	a5,128(sp)

   1e818:	07812603          	lw	a2,120(sp)

   1e81c:	00048d93          	mv	s11,s1

   1e820:	01813e83          	ld	t4,24(sp)

   1e824:	00700f13          	li	t5,7

   1e828:	fb8e46e3          	blt	t3,s8,1e7d4 <_svfiprintf_r+0x97c>

   1e82c:	0016051b          	addiw	a0,a2,1

   1e830:	010d8613          	addi	a2,s11,16

   1e834:	018787b3          	add	a5,a5,s8

   1e838:	01ddb023          	sd	t4,0(s11)

   1e83c:	018db423          	sd	s8,8(s11)

   1e840:	08f13023          	sd	a5,128(sp)

   1e844:	06a12c23          	sw	a0,120(sp)

   1e848:	00700713          	li	a4,7

   1e84c:	28a74863          	blt	a4,a0,1eadc <_svfiprintf_r+0xc84>

   1e850:	00060d93          	mv	s11,a2

   1e854:	0015051b          	addiw	a0,a0,1

   1e858:	00fb07b3          	add	a5,s6,a5

   1e85c:	017db023          	sd	s7,0(s11)

   1e860:	016db423          	sd	s6,8(s11)

   1e864:	08f13023          	sd	a5,128(sp)

   1e868:	06a12c23          	sw	a0,120(sp)

   1e86c:	00700713          	li	a4,7

   1e870:	01060593          	addi	a1,a2,16

   1e874:	9aa75ae3          	bge	a4,a0,1e228 <_svfiprintf_r+0x3d0>

   1e878:	07010613          	addi	a2,sp,112

   1e87c:	00090593          	mv	a1,s2

   1e880:	000a0513          	mv	a0,s4

   1e884:	becff0ef          	jal	ra,1dc70 <__ssprint_r>

   1e888:	f8051063          	bnez	a0,1e008 <_svfiprintf_r+0x1b0>

   1e88c:	08013783          	ld	a5,128(sp)

   1e890:	00048593          	mv	a1,s1

   1e894:	995ff06f          	j	1e228 <_svfiprintf_r+0x3d0>

   1e898:	07010613          	addi	a2,sp,112

   1e89c:	00090593          	mv	a1,s2

   1e8a0:	000a0513          	mv	a0,s4

   1e8a4:	bccff0ef          	jal	ra,1dc70 <__ssprint_r>

   1e8a8:	9a0506e3          	beqz	a0,1e254 <_svfiprintf_r+0x3fc>

   1e8ac:	f5cff06f          	j	1e008 <_svfiprintf_r+0x1b0>

   1e8b0:	000c8993          	mv	s3,s9

   1e8b4:	d11ff06f          	j	1e5c4 <_svfiprintf_r+0x76c>

   1e8b8:	01000593          	li	a1,16

   1e8bc:	00004f17          	auipc	t5,0x4

   1e8c0:	f2cf0f13          	addi	t5,t5,-212 # 227e8 <blanks.4502>

   1e8c4:	01000f93          	li	t6,16

   1e8c8:	00700393          	li	t2,7

   1e8cc:	01c5c863          	blt	a1,t3,1e8dc <_svfiprintf_r+0xa84>

   1e8d0:	07c0006f          	j	1e94c <_svfiprintf_r+0xaf4>

   1e8d4:	ff0e0e1b          	addiw	t3,t3,-16

   1e8d8:	07cfda63          	bge	t6,t3,1e94c <_svfiprintf_r+0xaf4>

   1e8dc:	0016061b          	addiw	a2,a2,1

   1e8e0:	01078793          	addi	a5,a5,16

   1e8e4:	01edb023          	sd	t5,0(s11)

   1e8e8:	01fdb423          	sd	t6,8(s11)

   1e8ec:	08f13023          	sd	a5,128(sp)

   1e8f0:	06c12c23          	sw	a2,120(sp)

   1e8f4:	010d8d93          	addi	s11,s11,16

   1e8f8:	fcc3dee3          	bge	t2,a2,1e8d4 <_svfiprintf_r+0xa7c>

   1e8fc:	07010613          	addi	a2,sp,112

   1e900:	00090593          	mv	a1,s2

   1e904:	000a0513          	mv	a0,s4

   1e908:	03e13c23          	sd	t5,56(sp)

   1e90c:	03c13823          	sd	t3,48(sp)

   1e910:	02513423          	sd	t0,40(sp)

   1e914:	01d13c23          	sd	t4,24(sp)

   1e918:	b58ff0ef          	jal	ra,1dc70 <__ssprint_r>

   1e91c:	ee051663          	bnez	a0,1e008 <_svfiprintf_r+0x1b0>

   1e920:	03013e03          	ld	t3,48(sp)

   1e924:	01000f93          	li	t6,16

   1e928:	08013783          	ld	a5,128(sp)

   1e92c:	ff0e0e1b          	addiw	t3,t3,-16

   1e930:	07812603          	lw	a2,120(sp)

   1e934:	00048d93          	mv	s11,s1

   1e938:	03813f03          	ld	t5,56(sp)

   1e93c:	00700393          	li	t2,7

   1e940:	02813283          	ld	t0,40(sp)

   1e944:	01813e83          	ld	t4,24(sp)

   1e948:	f9cfcae3          	blt	t6,t3,1e8dc <_svfiprintf_r+0xa84>

   1e94c:	0016061b          	addiw	a2,a2,1

   1e950:	01c787b3          	add	a5,a5,t3

   1e954:	01edb023          	sd	t5,0(s11)

   1e958:	01cdb423          	sd	t3,8(s11)

   1e95c:	08f13023          	sd	a5,128(sp)

   1e960:	06c12c23          	sw	a2,120(sp)

   1e964:	00700593          	li	a1,7

   1e968:	010d8d93          	addi	s11,s11,16

   1e96c:	80c5d6e3          	bge	a1,a2,1e178 <_svfiprintf_r+0x320>

   1e970:	07010613          	addi	a2,sp,112

   1e974:	00090593          	mv	a1,s2

   1e978:	000a0513          	mv	a0,s4

   1e97c:	02513423          	sd	t0,40(sp)

   1e980:	01d13c23          	sd	t4,24(sp)

   1e984:	aecff0ef          	jal	ra,1dc70 <__ssprint_r>

   1e988:	e8051063          	bnez	a0,1e008 <_svfiprintf_r+0x1b0>

   1e98c:	08013783          	ld	a5,128(sp)

   1e990:	07812603          	lw	a2,120(sp)

   1e994:	00048d93          	mv	s11,s1

   1e998:	02813283          	ld	t0,40(sp)

   1e99c:	01813e83          	ld	t4,24(sp)

   1e9a0:	fd8ff06f          	j	1e178 <_svfiprintf_r+0x320>

   1e9a4:	07010613          	addi	a2,sp,112

   1e9a8:	00090593          	mv	a1,s2

   1e9ac:	000a0513          	mv	a0,s4

   1e9b0:	02513423          	sd	t0,40(sp)

   1e9b4:	01d13c23          	sd	t4,24(sp)

   1e9b8:	ab8ff0ef          	jal	ra,1dc70 <__ssprint_r>

   1e9bc:	e4051663          	bnez	a0,1e008 <_svfiprintf_r+0x1b0>

   1e9c0:	07812603          	lw	a2,120(sp)

   1e9c4:	08013783          	ld	a5,128(sp)

   1e9c8:	10010593          	addi	a1,sp,256

   1e9cc:	0016051b          	addiw	a0,a2,1

   1e9d0:	00048d93          	mv	s11,s1

   1e9d4:	02813283          	ld	t0,40(sp)

   1e9d8:	01813e83          	ld	t4,24(sp)

   1e9dc:	fe8ff06f          	j	1e1c4 <_svfiprintf_r+0x36c>

   1e9e0:	07010613          	addi	a2,sp,112

   1e9e4:	00090593          	mv	a1,s2

   1e9e8:	000a0513          	mv	a0,s4

   1e9ec:	00513c23          	sd	t0,24(sp)

   1e9f0:	a80ff0ef          	jal	ra,1dc70 <__ssprint_r>

   1e9f4:	e0051a63          	bnez	a0,1e008 <_svfiprintf_r+0x1b0>

   1e9f8:	07812603          	lw	a2,120(sp)

   1e9fc:	08013783          	ld	a5,128(sp)

   1ea00:	10010593          	addi	a1,sp,256

   1ea04:	0016051b          	addiw	a0,a2,1

   1ea08:	00048d93          	mv	s11,s1

   1ea0c:	01813283          	ld	t0,24(sp)

   1ea10:	fecff06f          	j	1e1fc <_svfiprintf_r+0x3a4>

   1ea14:	01000693          	li	a3,16

   1ea18:	07812703          	lw	a4,120(sp)

   1ea1c:	00004f17          	auipc	t5,0x4

   1ea20:	dccf0f13          	addi	t5,t5,-564 # 227e8 <blanks.4502>

   1ea24:	01000c13          	li	s8,16

   1ea28:	00700b93          	li	s7,7

   1ea2c:	0166c863          	blt	a3,s6,1ea3c <_svfiprintf_r+0xbe4>

   1ea30:	05c0006f          	j	1ea8c <_svfiprintf_r+0xc34>

   1ea34:	ff0b0b1b          	addiw	s6,s6,-16

   1ea38:	056c5a63          	bge	s8,s6,1ea8c <_svfiprintf_r+0xc34>

   1ea3c:	0017071b          	addiw	a4,a4,1

   1ea40:	01078793          	addi	a5,a5,16

   1ea44:	01e5b023          	sd	t5,0(a1)

   1ea48:	0185b423          	sd	s8,8(a1)

   1ea4c:	08f13023          	sd	a5,128(sp)

   1ea50:	06e12c23          	sw	a4,120(sp)

   1ea54:	01058593          	addi	a1,a1,16

   1ea58:	fcebdee3          	bge	s7,a4,1ea34 <_svfiprintf_r+0xbdc>

   1ea5c:	07010613          	addi	a2,sp,112

   1ea60:	00090593          	mv	a1,s2

   1ea64:	000a0513          	mv	a0,s4

   1ea68:	01e13c23          	sd	t5,24(sp)

   1ea6c:	a04ff0ef          	jal	ra,1dc70 <__ssprint_r>

   1ea70:	d8051c63          	bnez	a0,1e008 <_svfiprintf_r+0x1b0>

   1ea74:	ff0b0b1b          	addiw	s6,s6,-16

   1ea78:	08013783          	ld	a5,128(sp)

   1ea7c:	07812703          	lw	a4,120(sp)

   1ea80:	00048593          	mv	a1,s1

   1ea84:	01813f03          	ld	t5,24(sp)

   1ea88:	fb6c4ae3          	blt	s8,s6,1ea3c <_svfiprintf_r+0xbe4>

   1ea8c:	0017069b          	addiw	a3,a4,1

   1ea90:	016787b3          	add	a5,a5,s6

   1ea94:	01e5b023          	sd	t5,0(a1)

   1ea98:	0165b423          	sd	s6,8(a1)

   1ea9c:	08f13023          	sd	a5,128(sp)

   1eaa0:	06d12c23          	sw	a3,120(sp)

   1eaa4:	00700713          	li	a4,7

   1eaa8:	f8d75863          	bge	a4,a3,1e238 <_svfiprintf_r+0x3e0>

   1eaac:	07010613          	addi	a2,sp,112

   1eab0:	00090593          	mv	a1,s2

   1eab4:	000a0513          	mv	a0,s4

   1eab8:	9b8ff0ef          	jal	ra,1dc70 <__ssprint_r>

   1eabc:	d4051663          	bnez	a0,1e008 <_svfiprintf_r+0x1b0>

   1eac0:	08013783          	ld	a5,128(sp)

   1eac4:	f74ff06f          	j	1e238 <_svfiprintf_r+0x3e0>

   1eac8:	2a0c1063          	bnez	s8,1ed68 <_svfiprintf_r+0xf10>

   1eacc:	00000c13          	li	s8,0

   1ead0:	00000b13          	li	s6,0

   1ead4:	0ec10b93          	addi	s7,sp,236

   1ead8:	e04ff06f          	j	1e0dc <_svfiprintf_r+0x284>

   1eadc:	07010613          	addi	a2,sp,112

   1eae0:	00090593          	mv	a1,s2

   1eae4:	000a0513          	mv	a0,s4

   1eae8:	988ff0ef          	jal	ra,1dc70 <__ssprint_r>

   1eaec:	d0051e63          	bnez	a0,1e008 <_svfiprintf_r+0x1b0>

   1eaf0:	07812503          	lw	a0,120(sp)

   1eaf4:	08013783          	ld	a5,128(sp)

   1eaf8:	10010593          	addi	a1,sp,256

   1eafc:	0015051b          	addiw	a0,a0,1

   1eb00:	00048d93          	mv	s11,s1

   1eb04:	f08ff06f          	j	1e20c <_svfiprintf_r+0x3b4>

   1eb08:	000d0993          	mv	s3,s10

   1eb0c:	c5cff06f          	j	1df68 <_svfiprintf_r+0x110>

   1eb10:	000c8893          	mv	a7,s9

   1eb14:	8ddff06f          	j	1e3f0 <_svfiprintf_r+0x598>

   1eb18:	000c8993          	mv	s3,s9

   1eb1c:	901ff06f          	j	1e41c <_svfiprintf_r+0x5c4>

   1eb20:	000c8993          	mv	s3,s9

   1eb24:	865ff06f          	j	1e388 <_svfiprintf_r+0x530>

   1eb28:	01013783          	ld	a5,16(sp)

   1eb2c:	0007bb03          	ld	s6,0(a5)

   1eb30:	d44ff06f          	j	1e074 <_svfiprintf_r+0x21c>

   1eb34:	000b8513          	mv	a0,s7

   1eb38:	924fa0ef          	jal	ra,18c5c <strlen>

   1eb3c:	00050b1b          	sext.w	s6,a0

   1eb40:	00000c13          	li	s8,0

   1eb44:	d98ff06f          	j	1e0dc <_svfiprintf_r+0x284>

   1eb48:	04000593          	li	a1,64

   1eb4c:	870f80ef          	jal	ra,16bbc <_malloc_r>

   1eb50:	00a93023          	sd	a0,0(s2)

   1eb54:	00a93c23          	sd	a0,24(s2)

   1eb58:	26050c63          	beqz	a0,1edd0 <_svfiprintf_r+0xf78>

   1eb5c:	04000793          	li	a5,64

   1eb60:	02f92023          	sw	a5,32(s2)

   1eb64:	b50ff06f          	j	1deb4 <_svfiprintf_r+0x5c>

   1eb68:	4009f793          	andi	a5,s3,1024

   1eb6c:	0007879b          	sext.w	a5,a5

   1eb70:	00f13c23          	sd	a5,24(sp)

   1eb74:	00000c93          	li	s9,0

   1eb78:	0ec10b93          	addi	s7,sp,236

   1eb7c:	00a00593          	li	a1,10

   1eb80:	000b0513          	mv	a0,s6

   1eb84:	745020ef          	jal	ra,21ac8 <__umoddi3>

   1eb88:	01813783          	ld	a5,24(sp)

   1eb8c:	0305051b          	addiw	a0,a0,48

   1eb90:	feab8fa3          	sb	a0,-1(s7)

   1eb94:	001c8c9b          	addiw	s9,s9,1

   1eb98:	fffb8b93          	addi	s7,s7,-1

   1eb9c:	00078863          	beqz	a5,1ebac <_svfiprintf_r+0xd54>

   1eba0:	04013783          	ld	a5,64(sp)

   1eba4:	0007c603          	lbu	a2,0(a5)

   1eba8:	03960063          	beq	a2,s9,1ebc8 <_svfiprintf_r+0xd70>

   1ebac:	00a00593          	li	a1,10

   1ebb0:	000b0513          	mv	a0,s6

   1ebb4:	6cd020ef          	jal	ra,21a80 <__udivdi3>

   1ebb8:	00900793          	li	a5,9

   1ebbc:	b367f2e3          	bgeu	a5,s6,1e6e0 <_svfiprintf_r+0x888>

   1ebc0:	00050b13          	mv	s6,a0

   1ebc4:	fb9ff06f          	j	1eb7c <_svfiprintf_r+0xd24>

   1ebc8:	0ff00793          	li	a5,255

   1ebcc:	fef600e3          	beq	a2,a5,1ebac <_svfiprintf_r+0xd54>

   1ebd0:	00900793          	li	a5,9

   1ebd4:	b167f6e3          	bgeu	a5,s6,1e6e0 <_svfiprintf_r+0x888>

   1ebd8:	05013783          	ld	a5,80(sp)

   1ebdc:	04813583          	ld	a1,72(sp)

   1ebe0:	00000c93          	li	s9,0

   1ebe4:	40fb8bb3          	sub	s7,s7,a5

   1ebe8:	00078613          	mv	a2,a5

   1ebec:	000b8513          	mv	a0,s7

   1ebf0:	93cfa0ef          	jal	ra,18d2c <strncpy>

   1ebf4:	04013703          	ld	a4,64(sp)

   1ebf8:	000b0513          	mv	a0,s6

   1ebfc:	00a00593          	li	a1,10

   1ec00:	00174603          	lbu	a2,1(a4)

   1ec04:	00c037b3          	snez	a5,a2

   1ec08:	00f707b3          	add	a5,a4,a5

   1ec0c:	04f13023          	sd	a5,64(sp)

   1ec10:	671020ef          	jal	ra,21a80 <__udivdi3>

   1ec14:	00050b13          	mv	s6,a0

   1ec18:	f65ff06f          	j	1eb7c <_svfiprintf_r+0xd24>

   1ec1c:	200ce893          	ori	a7,s9,512

   1ec20:	001d4603          	lbu	a2,1(s10)

   1ec24:	00088c9b          	sext.w	s9,a7

   1ec28:	001d0d13          	addi	s10,s10,1

   1ec2c:	b5cff06f          	j	1df88 <_svfiprintf_r+0x130>

   1ec30:	020ce893          	ori	a7,s9,32

   1ec34:	001d4603          	lbu	a2,1(s10)

   1ec38:	00088c9b          	sext.w	s9,a7

   1ec3c:	001d0d13          	addi	s10,s10,1

   1ec40:	b48ff06f          	j	1df88 <_svfiprintf_r+0x130>

   1ec44:	07010613          	addi	a2,sp,112

   1ec48:	00090593          	mv	a1,s2

   1ec4c:	000a0513          	mv	a0,s4

   1ec50:	820ff0ef          	jal	ra,1dc70 <__ssprint_r>

   1ec54:	ba051a63          	bnez	a0,1e008 <_svfiprintf_r+0x1b0>

   1ec58:	07812603          	lw	a2,120(sp)

   1ec5c:	08013783          	ld	a5,128(sp)

   1ec60:	10010593          	addi	a1,sp,256

   1ec64:	0016051b          	addiw	a0,a2,1

   1ec68:	00048d93          	mv	s11,s1

   1ec6c:	d98ff06f          	j	1e204 <_svfiprintf_r+0x3ac>

   1ec70:	000c061b          	sext.w	a2,s8

   1ec74:	00600793          	li	a5,6

   1ec78:	000c0693          	mv	a3,s8

   1ec7c:	00c7f463          	bgeu	a5,a2,1ec84 <_svfiprintf_r+0xe2c>

   1ec80:	00600693          	li	a3,6

   1ec84:	00068b1b          	sext.w	s6,a3

   1ec88:	000b0993          	mv	s3,s6

   1ec8c:	00e13823          	sd	a4,16(sp)

   1ec90:	00003b97          	auipc	s7,0x3

   1ec94:	1d0b8b93          	addi	s7,s7,464 # 21e60 <zeroes.4541+0x90>

   1ec98:	cb4ff06f          	j	1e14c <_svfiprintf_r+0x2f4>

   1ec9c:	200cf613          	andi	a2,s9,512

   1eca0:	0a060263          	beqz	a2,1ed44 <_svfiprintf_r+0xeec>

   1eca4:	0ff7fb13          	andi	s6,a5,255

   1eca8:	00b13823          	sd	a1,16(sp)

   1ecac:	000c8993          	mv	s3,s9

   1ecb0:	00100613          	li	a2,1

   1ecb4:	bf0ff06f          	j	1e0a4 <_svfiprintf_r+0x24c>

   1ecb8:	200cf513          	andi	a0,s9,512

   1ecbc:	0ff7fb13          	andi	s6,a5,255

   1ecc0:	ba051a63          	bnez	a0,1e074 <_svfiprintf_r+0x21c>

   1ecc4:	02079b13          	slli	s6,a5,0x20

   1ecc8:	020b5b13          	srli	s6,s6,0x20

   1eccc:	ba8ff06f          	j	1e074 <_svfiprintf_r+0x21c>

   1ecd0:	200cf593          	andi	a1,s9,512

   1ecd4:	04058e63          	beqz	a1,1ed30 <_svfiprintf_r+0xed8>

   1ecd8:	0ff7fb13          	andi	s6,a5,255

   1ecdc:	000c8893          	mv	a7,s9

   1ece0:	00c13823          	sd	a2,16(sp)

   1ece4:	f18ff06f          	j	1e3fc <_svfiprintf_r+0x5a4>

   1ece8:	200cf793          	andi	a5,s9,512

   1ecec:	02078663          	beqz	a5,1ed18 <_svfiprintf_r+0xec0>

   1ecf0:	01013783          	ld	a5,16(sp)

   1ecf4:	000c8993          	mv	s3,s9

   1ecf8:	00b13823          	sd	a1,16(sp)

   1ecfc:	00078b03          	lb	s6,0(a5)

   1ed00:	000b0613          	mv	a2,s6

   1ed04:	f28ff06f          	j	1e42c <_svfiprintf_r+0x5d4>

   1ed08:	00058613          	mv	a2,a1

   1ed0c:	00004e97          	auipc	t4,0x4

   1ed10:	aece8e93          	addi	t4,t4,-1300 # 227f8 <zeroes.4503>

   1ed14:	b21ff06f          	j	1e834 <_svfiprintf_r+0x9dc>

   1ed18:	01013783          	ld	a5,16(sp)

   1ed1c:	000c8993          	mv	s3,s9

   1ed20:	00b13823          	sd	a1,16(sp)

   1ed24:	0007ab03          	lw	s6,0(a5)

   1ed28:	000b0613          	mv	a2,s6

   1ed2c:	f00ff06f          	j	1e42c <_svfiprintf_r+0x5d4>

   1ed30:	02079b13          	slli	s6,a5,0x20

   1ed34:	020b5b13          	srli	s6,s6,0x20

   1ed38:	000c8893          	mv	a7,s9

   1ed3c:	00c13823          	sd	a2,16(sp)

   1ed40:	ebcff06f          	j	1e3fc <_svfiprintf_r+0x5a4>

   1ed44:	02079b13          	slli	s6,a5,0x20

   1ed48:	020b5b13          	srli	s6,s6,0x20

   1ed4c:	00b13823          	sd	a1,16(sp)

   1ed50:	000c8993          	mv	s3,s9

   1ed54:	00100613          	li	a2,1

   1ed58:	b4cff06f          	j	1e0a4 <_svfiprintf_r+0x24c>

   1ed5c:	00813783          	ld	a5,8(sp)

   1ed60:	00f69023          	sh	a5,0(a3)

   1ed64:	98cff06f          	j	1def0 <_svfiprintf_r+0x98>

   1ed68:	000c8993          	mv	s3,s9

   1ed6c:	ee4ff06f          	j	1e450 <_svfiprintf_r+0x5f8>

   1ed70:	000c0b13          	mv	s6,s8

   1ed74:	00e13823          	sd	a4,16(sp)

   1ed78:	00000c13          	li	s8,0

   1ed7c:	b60ff06f          	j	1e0dc <_svfiprintf_r+0x284>

   1ed80:	00058f13          	mv	t5,a1

   1ed84:	00050613          	mv	a2,a0

   1ed88:	00004e97          	auipc	t4,0x4

   1ed8c:	a70e8e93          	addi	t4,t4,-1424 # 227f8 <zeroes.4503>

   1ed90:	9f5ff06f          	j	1e784 <_svfiprintf_r+0x92c>

   1ed94:	00f6a023          	sw	a5,0(a3)

   1ed98:	958ff06f          	j	1def0 <_svfiprintf_r+0x98>

   1ed9c:	fff00793          	li	a5,-1

   1eda0:	00f13423          	sd	a5,8(sp)

   1eda4:	a70ff06f          	j	1e014 <_svfiprintf_r+0x1bc>

   1eda8:	01013703          	ld	a4,16(sp)

   1edac:	00072683          	lw	a3,0(a4)

   1edb0:	00870b93          	addi	s7,a4,8

   1edb4:	0006d463          	bgez	a3,1edbc <_svfiprintf_r+0xf64>

   1edb8:	fff00693          	li	a3,-1

   1edbc:	001d4603          	lbu	a2,1(s10)

   1edc0:	00068c13          	mv	s8,a3

   1edc4:	01713823          	sd	s7,16(sp)

   1edc8:	00078d13          	mv	s10,a5

   1edcc:	9bcff06f          	j	1df88 <_svfiprintf_r+0x130>

   1edd0:	00c00793          	li	a5,12

   1edd4:	00fa2023          	sw	a5,0(s4)

   1edd8:	fff00793          	li	a5,-1

   1eddc:	00f13423          	sd	a5,8(sp)

   1ede0:	a34ff06f          	j	1e014 <_svfiprintf_r+0x1bc>



000000000001ede4 <__swbuf_r>:

   1ede4:	fd010113          	addi	sp,sp,-48

   1ede8:	02813023          	sd	s0,32(sp)

   1edec:	00913c23          	sd	s1,24(sp)

   1edf0:	01213823          	sd	s2,16(sp)

   1edf4:	02113423          	sd	ra,40(sp)

   1edf8:	01313423          	sd	s3,8(sp)

   1edfc:	00050913          	mv	s2,a0

   1ee00:	00058493          	mv	s1,a1

   1ee04:	00060413          	mv	s0,a2

   1ee08:	00050663          	beqz	a0,1ee14 <__swbuf_r+0x30>

   1ee0c:	05052783          	lw	a5,80(a0)

   1ee10:	14078863          	beqz	a5,1ef60 <__swbuf_r+0x17c>

   1ee14:	01041703          	lh	a4,16(s0)

   1ee18:	02842783          	lw	a5,40(s0)

   1ee1c:	03071693          	slli	a3,a4,0x30

   1ee20:	0306d693          	srli	a3,a3,0x30

   1ee24:	00f42623          	sw	a5,12(s0)

   1ee28:	0086f793          	andi	a5,a3,8

   1ee2c:	08078263          	beqz	a5,1eeb0 <__swbuf_r+0xcc>

   1ee30:	01843783          	ld	a5,24(s0)

   1ee34:	06078e63          	beqz	a5,1eeb0 <__swbuf_r+0xcc>

   1ee38:	0ff4f993          	andi	s3,s1,255

   1ee3c:	03269613          	slli	a2,a3,0x32

   1ee40:	00098493          	mv	s1,s3

   1ee44:	08065e63          	bgez	a2,1eee0 <__swbuf_r+0xfc>

   1ee48:	00043703          	ld	a4,0(s0)

   1ee4c:	02042683          	lw	a3,32(s0)

   1ee50:	40f707bb          	subw	a5,a4,a5

   1ee54:	0ad7de63          	bge	a5,a3,1ef10 <__swbuf_r+0x12c>

   1ee58:	00c42683          	lw	a3,12(s0)

   1ee5c:	00170613          	addi	a2,a4,1

   1ee60:	00c43023          	sd	a2,0(s0)

   1ee64:	fff6869b          	addiw	a3,a3,-1

   1ee68:	00d42623          	sw	a3,12(s0)

   1ee6c:	01370023          	sb	s3,0(a4)

   1ee70:	02042703          	lw	a4,32(s0)

   1ee74:	0017879b          	addiw	a5,a5,1

   1ee78:	0cf70863          	beq	a4,a5,1ef48 <__swbuf_r+0x164>

   1ee7c:	01045783          	lhu	a5,16(s0)

   1ee80:	0017f793          	andi	a5,a5,1

   1ee84:	00078663          	beqz	a5,1ee90 <__swbuf_r+0xac>

   1ee88:	00a00793          	li	a5,10

   1ee8c:	0af48e63          	beq	s1,a5,1ef48 <__swbuf_r+0x164>

   1ee90:	02813083          	ld	ra,40(sp)

   1ee94:	02013403          	ld	s0,32(sp)

   1ee98:	00048513          	mv	a0,s1

   1ee9c:	01013903          	ld	s2,16(sp)

   1eea0:	01813483          	ld	s1,24(sp)

   1eea4:	00813983          	ld	s3,8(sp)

   1eea8:	03010113          	addi	sp,sp,48

   1eeac:	00008067          	ret

   1eeb0:	00040593          	mv	a1,s0

   1eeb4:	00090513          	mv	a0,s2

   1eeb8:	ef9f30ef          	jal	ra,12db0 <__swsetup_r>

   1eebc:	08051e63          	bnez	a0,1ef58 <__swbuf_r+0x174>

   1eec0:	01041703          	lh	a4,16(s0)

   1eec4:	0ff4f993          	andi	s3,s1,255

   1eec8:	01843783          	ld	a5,24(s0)

   1eecc:	03071693          	slli	a3,a4,0x30

   1eed0:	0306d693          	srli	a3,a3,0x30

   1eed4:	03269613          	slli	a2,a3,0x32

   1eed8:	00098493          	mv	s1,s3

   1eedc:	f60646e3          	bltz	a2,1ee48 <__swbuf_r+0x64>

   1eee0:	0ac42683          	lw	a3,172(s0)

   1eee4:	00002637          	lui	a2,0x2

   1eee8:	00c76733          	or	a4,a4,a2

   1eeec:	ffffe637          	lui	a2,0xffffe

   1eef0:	fff60613          	addi	a2,a2,-1 # ffffffffffffdfff <__BSS_END__+0xfffffffffffd953f>

   1eef4:	00c6f6b3          	and	a3,a3,a2

   1eef8:	00e41823          	sh	a4,16(s0)

   1eefc:	00043703          	ld	a4,0(s0)

   1ef00:	0ad42623          	sw	a3,172(s0)

   1ef04:	02042683          	lw	a3,32(s0)

   1ef08:	40f707bb          	subw	a5,a4,a5

   1ef0c:	f4d7c6e3          	blt	a5,a3,1ee58 <__swbuf_r+0x74>

   1ef10:	00040593          	mv	a1,s0

   1ef14:	00090513          	mv	a0,s2

   1ef18:	c2cf40ef          	jal	ra,13344 <_fflush_r>

   1ef1c:	02051e63          	bnez	a0,1ef58 <__swbuf_r+0x174>

   1ef20:	00043703          	ld	a4,0(s0)

   1ef24:	00c42683          	lw	a3,12(s0)

   1ef28:	00100793          	li	a5,1

   1ef2c:	00170613          	addi	a2,a4,1

   1ef30:	fff6869b          	addiw	a3,a3,-1

   1ef34:	00c43023          	sd	a2,0(s0)

   1ef38:	00d42623          	sw	a3,12(s0)

   1ef3c:	01370023          	sb	s3,0(a4)

   1ef40:	02042703          	lw	a4,32(s0)

   1ef44:	f2f71ce3          	bne	a4,a5,1ee7c <__swbuf_r+0x98>

   1ef48:	00040593          	mv	a1,s0

   1ef4c:	00090513          	mv	a0,s2

   1ef50:	bf4f40ef          	jal	ra,13344 <_fflush_r>

   1ef54:	f2050ee3          	beqz	a0,1ee90 <__swbuf_r+0xac>

   1ef58:	fff00493          	li	s1,-1

   1ef5c:	f35ff06f          	j	1ee90 <__swbuf_r+0xac>

   1ef60:	f8cf40ef          	jal	ra,136ec <__sinit>

   1ef64:	eb1ff06f          	j	1ee14 <__swbuf_r+0x30>



000000000001ef68 <__swbuf>:

   1ef68:	75818793          	addi	a5,gp,1880 # 24a18 <_impure_ptr>

   1ef6c:	00058613          	mv	a2,a1

   1ef70:	00050593          	mv	a1,a0

   1ef74:	0007b503          	ld	a0,0(a5)

   1ef78:	e6dff06f          	j	1ede4 <__swbuf_r>



000000000001ef7c <_wcrtomb_r>:

   1ef7c:	fd010113          	addi	sp,sp,-48

   1ef80:	02813023          	sd	s0,32(sp)

   1ef84:	00913c23          	sd	s1,24(sp)

   1ef88:	d6018793          	addi	a5,gp,-672 # 24020 <__global_locale>

   1ef8c:	02113423          	sd	ra,40(sp)

   1ef90:	00050413          	mv	s0,a0

   1ef94:	00068493          	mv	s1,a3

   1ef98:	0e07b783          	ld	a5,224(a5)

   1ef9c:	02058263          	beqz	a1,1efc0 <_wcrtomb_r+0x44>

   1efa0:	000780e7          	jalr	a5

   1efa4:	fff00793          	li	a5,-1

   1efa8:	02f50663          	beq	a0,a5,1efd4 <_wcrtomb_r+0x58>

   1efac:	02813083          	ld	ra,40(sp)

   1efb0:	02013403          	ld	s0,32(sp)

   1efb4:	01813483          	ld	s1,24(sp)

   1efb8:	03010113          	addi	sp,sp,48

   1efbc:	00008067          	ret

   1efc0:	00000613          	li	a2,0

   1efc4:	00010593          	mv	a1,sp

   1efc8:	000780e7          	jalr	a5

   1efcc:	fff00793          	li	a5,-1

   1efd0:	fcf51ee3          	bne	a0,a5,1efac <_wcrtomb_r+0x30>

   1efd4:	0004a023          	sw	zero,0(s1)

   1efd8:	08a00793          	li	a5,138

   1efdc:	00f42023          	sw	a5,0(s0)

   1efe0:	02813083          	ld	ra,40(sp)

   1efe4:	02013403          	ld	s0,32(sp)

   1efe8:	01813483          	ld	s1,24(sp)

   1efec:	03010113          	addi	sp,sp,48

   1eff0:	00008067          	ret



000000000001eff4 <wcrtomb>:

   1eff4:	fd010113          	addi	sp,sp,-48

   1eff8:	75818793          	addi	a5,gp,1880 # 24a18 <_impure_ptr>

   1effc:	02813023          	sd	s0,32(sp)

   1f000:	00913c23          	sd	s1,24(sp)

   1f004:	0007b403          	ld	s0,0(a5)

   1f008:	02113423          	sd	ra,40(sp)

   1f00c:	d6018793          	addi	a5,gp,-672 # 24020 <__global_locale>

   1f010:	00060493          	mv	s1,a2

   1f014:	0e07b783          	ld	a5,224(a5)

   1f018:	00060693          	mv	a3,a2

   1f01c:	02050863          	beqz	a0,1f04c <wcrtomb+0x58>

   1f020:	00058613          	mv	a2,a1

   1f024:	00050593          	mv	a1,a0

   1f028:	00040513          	mv	a0,s0

   1f02c:	000780e7          	jalr	a5

   1f030:	fff00793          	li	a5,-1

   1f034:	02f50863          	beq	a0,a5,1f064 <wcrtomb+0x70>

   1f038:	02813083          	ld	ra,40(sp)

   1f03c:	02013403          	ld	s0,32(sp)

   1f040:	01813483          	ld	s1,24(sp)

   1f044:	03010113          	addi	sp,sp,48

   1f048:	00008067          	ret

   1f04c:	00000613          	li	a2,0

   1f050:	00010593          	mv	a1,sp

   1f054:	00040513          	mv	a0,s0

   1f058:	000780e7          	jalr	a5

   1f05c:	fff00793          	li	a5,-1

   1f060:	fcf51ce3          	bne	a0,a5,1f038 <wcrtomb+0x44>

   1f064:	0004a023          	sw	zero,0(s1)

   1f068:	08a00793          	li	a5,138

   1f06c:	00f42023          	sw	a5,0(s0)

   1f070:	02813083          	ld	ra,40(sp)

   1f074:	02013403          	ld	s0,32(sp)

   1f078:	01813483          	ld	s1,24(sp)

   1f07c:	03010113          	addi	sp,sp,48

   1f080:	00008067          	ret



000000000001f084 <_close>:

   1f084:	00000593          	li	a1,0

   1f088:	00000613          	li	a2,0

   1f08c:	00000693          	li	a3,0

   1f090:	00000713          	li	a4,0

   1f094:	00000793          	li	a5,0

   1f098:	03900893          	li	a7,57

   1f09c:	00000073          	ecall

   1f0a0:	00054663          	bltz	a0,1f0ac <_close+0x28>

   1f0a4:	0005051b          	sext.w	a0,a0

   1f0a8:	00008067          	ret

   1f0ac:	ff010113          	addi	sp,sp,-16

   1f0b0:	00813023          	sd	s0,0(sp)

   1f0b4:	00113423          	sd	ra,8(sp)

   1f0b8:	00050413          	mv	s0,a0

   1f0bc:	314000ef          	jal	ra,1f3d0 <__errno>

   1f0c0:	408007bb          	negw	a5,s0

   1f0c4:	00813083          	ld	ra,8(sp)

   1f0c8:	00013403          	ld	s0,0(sp)

   1f0cc:	00f52023          	sw	a5,0(a0)

   1f0d0:	fff00513          	li	a0,-1

   1f0d4:	01010113          	addi	sp,sp,16

   1f0d8:	00008067          	ret



000000000001f0dc <_exit>:

   1f0dc:	00000593          	li	a1,0

   1f0e0:	00000613          	li	a2,0

   1f0e4:	00000693          	li	a3,0

   1f0e8:	00000713          	li	a4,0

   1f0ec:	00000793          	li	a5,0

   1f0f0:	05d00893          	li	a7,93

   1f0f4:	00000073          	ecall

   1f0f8:	00054463          	bltz	a0,1f100 <_exit+0x24>

   1f0fc:	0000006f          	j	1f0fc <_exit+0x20>

   1f100:	ff010113          	addi	sp,sp,-16

   1f104:	00813023          	sd	s0,0(sp)

   1f108:	00050413          	mv	s0,a0

   1f10c:	00113423          	sd	ra,8(sp)

   1f110:	4080043b          	negw	s0,s0

   1f114:	2bc000ef          	jal	ra,1f3d0 <__errno>

   1f118:	00852023          	sw	s0,0(a0)

   1f11c:	0000006f          	j	1f11c <_exit+0x40>



000000000001f120 <_fstat>:

   1f120:	f6010113          	addi	sp,sp,-160

   1f124:	08913423          	sd	s1,136(sp)

   1f128:	08113c23          	sd	ra,152(sp)

   1f12c:	00058493          	mv	s1,a1

   1f130:	08813823          	sd	s0,144(sp)

   1f134:	00000613          	li	a2,0

   1f138:	00010593          	mv	a1,sp

   1f13c:	00000693          	li	a3,0

   1f140:	00000713          	li	a4,0

   1f144:	00000793          	li	a5,0

   1f148:	05000893          	li	a7,80

   1f14c:	00000073          	ecall

   1f150:	00050413          	mv	s0,a0

   1f154:	02054663          	bltz	a0,1f180 <_fstat+0x60>

   1f158:	0005041b          	sext.w	s0,a0

   1f15c:	00048513          	mv	a0,s1

   1f160:	00010593          	mv	a1,sp

   1f164:	200000ef          	jal	ra,1f364 <_conv_stat>

   1f168:	00040513          	mv	a0,s0

   1f16c:	09813083          	ld	ra,152(sp)

   1f170:	09013403          	ld	s0,144(sp)

   1f174:	08813483          	ld	s1,136(sp)

   1f178:	0a010113          	addi	sp,sp,160

   1f17c:	00008067          	ret

   1f180:	4080043b          	negw	s0,s0

   1f184:	24c000ef          	jal	ra,1f3d0 <__errno>

   1f188:	00852023          	sw	s0,0(a0)

   1f18c:	fff00413          	li	s0,-1

   1f190:	fcdff06f          	j	1f15c <_fstat+0x3c>



000000000001f194 <_isatty>:

   1f194:	f8010113          	addi	sp,sp,-128

   1f198:	00810593          	addi	a1,sp,8

   1f19c:	06113c23          	sd	ra,120(sp)

   1f1a0:	f81ff0ef          	jal	ra,1f120 <_fstat>

   1f1a4:	fff00793          	li	a5,-1

   1f1a8:	00f50e63          	beq	a0,a5,1f1c4 <_isatty+0x30>

   1f1ac:	00c12503          	lw	a0,12(sp)

   1f1b0:	07813083          	ld	ra,120(sp)

   1f1b4:	40d5551b          	sraiw	a0,a0,0xd

   1f1b8:	00157513          	andi	a0,a0,1

   1f1bc:	08010113          	addi	sp,sp,128

   1f1c0:	00008067          	ret

   1f1c4:	07813083          	ld	ra,120(sp)

   1f1c8:	00000513          	li	a0,0

   1f1cc:	08010113          	addi	sp,sp,128

   1f1d0:	00008067          	ret



000000000001f1d4 <_lseek>:

   1f1d4:	ff010113          	addi	sp,sp,-16

   1f1d8:	00113423          	sd	ra,8(sp)

   1f1dc:	00813023          	sd	s0,0(sp)

   1f1e0:	00000693          	li	a3,0

   1f1e4:	00000713          	li	a4,0

   1f1e8:	00000793          	li	a5,0

   1f1ec:	03e00893          	li	a7,62

   1f1f0:	00000073          	ecall

   1f1f4:	00050413          	mv	s0,a0

   1f1f8:	00054c63          	bltz	a0,1f210 <_lseek+0x3c>

   1f1fc:	00040513          	mv	a0,s0

   1f200:	00813083          	ld	ra,8(sp)

   1f204:	00013403          	ld	s0,0(sp)

   1f208:	01010113          	addi	sp,sp,16

   1f20c:	00008067          	ret

   1f210:	4080043b          	negw	s0,s0

   1f214:	1bc000ef          	jal	ra,1f3d0 <__errno>

   1f218:	00852023          	sw	s0,0(a0)

   1f21c:	fff00413          	li	s0,-1

   1f220:	fddff06f          	j	1f1fc <_lseek+0x28>



000000000001f224 <_read>:

   1f224:	ff010113          	addi	sp,sp,-16

   1f228:	00113423          	sd	ra,8(sp)

   1f22c:	00813023          	sd	s0,0(sp)

   1f230:	00000693          	li	a3,0

   1f234:	00000713          	li	a4,0

   1f238:	00000793          	li	a5,0

   1f23c:	03f00893          	li	a7,63

   1f240:	00000073          	ecall

   1f244:	00050413          	mv	s0,a0

   1f248:	00054c63          	bltz	a0,1f260 <_read+0x3c>

   1f24c:	00040513          	mv	a0,s0

   1f250:	00813083          	ld	ra,8(sp)

   1f254:	00013403          	ld	s0,0(sp)

   1f258:	01010113          	addi	sp,sp,16

   1f25c:	00008067          	ret

   1f260:	4080043b          	negw	s0,s0

   1f264:	16c000ef          	jal	ra,1f3d0 <__errno>

   1f268:	00852023          	sw	s0,0(a0)

   1f26c:	fff00413          	li	s0,-1

   1f270:	fddff06f          	j	1f24c <_read+0x28>



000000000001f274 <_sbrk>:

   1f274:	79018313          	addi	t1,gp,1936 # 24a50 <heap_end.1900>

   1f278:	00033783          	ld	a5,0(t1)

   1f27c:	ff010113          	addi	sp,sp,-16

   1f280:	00113423          	sd	ra,8(sp)

   1f284:	00050813          	mv	a6,a0

   1f288:	02079863          	bnez	a5,1f2b8 <_sbrk+0x44>

   1f28c:	00000513          	li	a0,0

   1f290:	00000593          	li	a1,0

   1f294:	00000613          	li	a2,0

   1f298:	00000693          	li	a3,0

   1f29c:	00000713          	li	a4,0

   1f2a0:	0d600893          	li	a7,214

   1f2a4:	00000073          	ecall

   1f2a8:	fff00793          	li	a5,-1

   1f2ac:	04f50663          	beq	a0,a5,1f2f8 <_sbrk+0x84>

   1f2b0:	00050793          	mv	a5,a0

   1f2b4:	78a1b823          	sd	a0,1936(gp) # 24a50 <heap_end.1900>

   1f2b8:	00f80533          	add	a0,a6,a5

   1f2bc:	00000593          	li	a1,0

   1f2c0:	00000613          	li	a2,0

   1f2c4:	00000693          	li	a3,0

   1f2c8:	00000713          	li	a4,0

   1f2cc:	00000793          	li	a5,0

   1f2d0:	0d600893          	li	a7,214

   1f2d4:	00000073          	ecall

   1f2d8:	00033783          	ld	a5,0(t1)

   1f2dc:	00f80833          	add	a6,a6,a5

   1f2e0:	01051c63          	bne	a0,a6,1f2f8 <_sbrk+0x84>

   1f2e4:	00813083          	ld	ra,8(sp)

   1f2e8:	78a1b823          	sd	a0,1936(gp) # 24a50 <heap_end.1900>

   1f2ec:	00078513          	mv	a0,a5

   1f2f0:	01010113          	addi	sp,sp,16

   1f2f4:	00008067          	ret

   1f2f8:	0d8000ef          	jal	ra,1f3d0 <__errno>

   1f2fc:	00813083          	ld	ra,8(sp)

   1f300:	00c00793          	li	a5,12

   1f304:	00f52023          	sw	a5,0(a0)

   1f308:	fff00513          	li	a0,-1

   1f30c:	01010113          	addi	sp,sp,16

   1f310:	00008067          	ret



000000000001f314 <_write>:

   1f314:	ff010113          	addi	sp,sp,-16

   1f318:	00113423          	sd	ra,8(sp)

   1f31c:	00813023          	sd	s0,0(sp)

   1f320:	00000693          	li	a3,0

   1f324:	00000713          	li	a4,0

   1f328:	00000793          	li	a5,0

   1f32c:	04000893          	li	a7,64

   1f330:	00000073          	ecall

   1f334:	00050413          	mv	s0,a0

   1f338:	00054c63          	bltz	a0,1f350 <_write+0x3c>

   1f33c:	00040513          	mv	a0,s0

   1f340:	00813083          	ld	ra,8(sp)

   1f344:	00013403          	ld	s0,0(sp)

   1f348:	01010113          	addi	sp,sp,16

   1f34c:	00008067          	ret

   1f350:	4080043b          	negw	s0,s0

   1f354:	07c000ef          	jal	ra,1f3d0 <__errno>

   1f358:	00852023          	sw	s0,0(a0)

   1f35c:	fff00413          	li	s0,-1

   1f360:	fddff06f          	j	1f33c <_write+0x28>



000000000001f364 <_conv_stat>:

   1f364:	0005b383          	ld	t2,0(a1)

   1f368:	0085b283          	ld	t0,8(a1)

   1f36c:	0105af83          	lw	t6,16(a1)

   1f370:	0145af03          	lw	t5,20(a1)

   1f374:	0185ae83          	lw	t4,24(a1)

   1f378:	01c5ae03          	lw	t3,28(a1)

   1f37c:	0205b303          	ld	t1,32(a1)

   1f380:	0305b883          	ld	a7,48(a1)

   1f384:	0405b803          	ld	a6,64(a1)

   1f388:	0385a603          	lw	a2,56(a1)

   1f38c:	0485b683          	ld	a3,72(a1)

   1f390:	0585b703          	ld	a4,88(a1)

   1f394:	0685b783          	ld	a5,104(a1)

   1f398:	00751023          	sh	t2,0(a0)

   1f39c:	00551123          	sh	t0,2(a0)

   1f3a0:	01f52223          	sw	t6,4(a0)

   1f3a4:	01e51423          	sh	t5,8(a0)

   1f3a8:	01d51523          	sh	t4,10(a0)

   1f3ac:	01c51623          	sh	t3,12(a0)

   1f3b0:	00651723          	sh	t1,14(a0)

   1f3b4:	01153823          	sd	a7,16(a0)

   1f3b8:	05053823          	sd	a6,80(a0)

   1f3bc:	04c53423          	sd	a2,72(a0)

   1f3c0:	00d53c23          	sd	a3,24(a0)

   1f3c4:	02e53423          	sd	a4,40(a0)

   1f3c8:	02f53c23          	sd	a5,56(a0)

   1f3cc:	00008067          	ret



000000000001f3d0 <__errno>:

   1f3d0:	75818793          	addi	a5,gp,1880 # 24a18 <_impure_ptr>

   1f3d4:	0007b503          	ld	a0,0(a5)

   1f3d8:	00008067          	ret



000000000001f3dc <__divdf3>:

   1f3dc:	f9010113          	addi	sp,sp,-112

   1f3e0:	01913c23          	sd	s9,24(sp)

   1f3e4:	06113423          	sd	ra,104(sp)

   1f3e8:	06813023          	sd	s0,96(sp)

   1f3ec:	04913c23          	sd	s1,88(sp)

   1f3f0:	05213823          	sd	s2,80(sp)

   1f3f4:	05313423          	sd	s3,72(sp)

   1f3f8:	05413023          	sd	s4,64(sp)

   1f3fc:	03513c23          	sd	s5,56(sp)

   1f400:	03613823          	sd	s6,48(sp)

   1f404:	03713423          	sd	s7,40(sp)

   1f408:	03813023          	sd	s8,32(sp)

   1f40c:	01a13823          	sd	s10,16(sp)

   1f410:	01b13423          	sd	s11,8(sp)

   1f414:	00058c93          	mv	s9,a1

   1f418:	00202b73          	frrm	s6

   1f41c:	03455993          	srli	s3,a0,0x34

   1f420:	00c51913          	slli	s2,a0,0xc

   1f424:	7ff9f993          	andi	s3,s3,2047

   1f428:	000b0b1b          	sext.w	s6,s6

   1f42c:	00c95913          	srli	s2,s2,0xc

   1f430:	03f55a93          	srli	s5,a0,0x3f

   1f434:	02098663          	beqz	s3,1f460 <__divdf3+0x84>

   1f438:	7ff00793          	li	a5,2047

   1f43c:	04f98463          	beq	s3,a5,1f484 <__divdf3+0xa8>

   1f440:	00100793          	li	a5,1

   1f444:	00391913          	slli	s2,s2,0x3

   1f448:	03779793          	slli	a5,a5,0x37

   1f44c:	00f96933          	or	s2,s2,a5

   1f450:	c0198993          	addi	s3,s3,-1023

   1f454:	00000c13          	li	s8,0

   1f458:	00000493          	li	s1,0

   1f45c:	0400006f          	j	1f49c <__divdf3+0xc0>

   1f460:	0a090663          	beqz	s2,1f50c <__divdf3+0x130>

   1f464:	00090513          	mv	a0,s2

   1f468:	e71f00ef          	jal	ra,102d8 <__clzdi2>

   1f46c:	0005051b          	sext.w	a0,a0

   1f470:	ff85079b          	addiw	a5,a0,-8

   1f474:	c0d00993          	li	s3,-1011

   1f478:	00f91933          	sll	s2,s2,a5

   1f47c:	40a989b3          	sub	s3,s3,a0

   1f480:	fd5ff06f          	j	1f454 <__divdf3+0x78>

   1f484:	08090a63          	beqz	s2,1f518 <__divdf3+0x13c>

   1f488:	00c91793          	slli	a5,s2,0xc

   1f48c:	7ff00993          	li	s3,2047

   1f490:	00300c13          	li	s8,3

   1f494:	01000493          	li	s1,16

   1f498:	fc07c0e3          	bltz	a5,1f458 <__divdf3+0x7c>

   1f49c:	034cd513          	srli	a0,s9,0x34

   1f4a0:	00cc9413          	slli	s0,s9,0xc

   1f4a4:	7ff57513          	andi	a0,a0,2047

   1f4a8:	00c45413          	srli	s0,s0,0xc

   1f4ac:	03fcdc93          	srli	s9,s9,0x3f

   1f4b0:	06050a63          	beqz	a0,1f524 <__divdf3+0x148>

   1f4b4:	7ff00793          	li	a5,2047

   1f4b8:	08f50863          	beq	a0,a5,1f548 <__divdf3+0x16c>

   1f4bc:	00100793          	li	a5,1

   1f4c0:	00341413          	slli	s0,s0,0x3

   1f4c4:	03779793          	slli	a5,a5,0x37

   1f4c8:	00f46433          	or	s0,s0,a5

   1f4cc:	c0150513          	addi	a0,a0,-1023

   1f4d0:	00000793          	li	a5,0

   1f4d4:	002c1713          	slli	a4,s8,0x2

   1f4d8:	00f76733          	or	a4,a4,a5

   1f4dc:	fff70713          	addi	a4,a4,-1

   1f4e0:	00e00693          	li	a3,14

   1f4e4:	019aca33          	xor	s4,s5,s9

   1f4e8:	40a98bb3          	sub	s7,s3,a0

   1f4ec:	08e6ec63          	bltu	a3,a4,1f584 <__divdf3+0x1a8>

   1f4f0:	00003697          	auipc	a3,0x3

   1f4f4:	31868693          	addi	a3,a3,792 # 22808 <zeroes.4503+0x10>

   1f4f8:	00271713          	slli	a4,a4,0x2

   1f4fc:	00d70733          	add	a4,a4,a3

   1f500:	00072703          	lw	a4,0(a4)

   1f504:	00d70733          	add	a4,a4,a3

   1f508:	00070067          	jr	a4

   1f50c:	00000993          	li	s3,0

   1f510:	00100c13          	li	s8,1

   1f514:	f45ff06f          	j	1f458 <__divdf3+0x7c>

   1f518:	7ff00993          	li	s3,2047

   1f51c:	00200c13          	li	s8,2

   1f520:	f39ff06f          	j	1f458 <__divdf3+0x7c>

   1f524:	04040063          	beqz	s0,1f564 <__divdf3+0x188>

   1f528:	00040513          	mv	a0,s0

   1f52c:	dadf00ef          	jal	ra,102d8 <__clzdi2>

   1f530:	0005051b          	sext.w	a0,a0

   1f534:	ff85079b          	addiw	a5,a0,-8

   1f538:	00f41433          	sll	s0,s0,a5

   1f53c:	c0d00793          	li	a5,-1011

   1f540:	40a78533          	sub	a0,a5,a0

   1f544:	f8dff06f          	j	1f4d0 <__divdf3+0xf4>

   1f548:	02040463          	beqz	s0,1f570 <__divdf3+0x194>

   1f54c:	00c41793          	slli	a5,s0,0xc

   1f550:	7ff00513          	li	a0,2047

   1f554:	0207c463          	bltz	a5,1f57c <__divdf3+0x1a0>

   1f558:	00300793          	li	a5,3

   1f55c:	01000493          	li	s1,16

   1f560:	f75ff06f          	j	1f4d4 <__divdf3+0xf8>

   1f564:	00000513          	li	a0,0

   1f568:	00100793          	li	a5,1

   1f56c:	f69ff06f          	j	1f4d4 <__divdf3+0xf8>

   1f570:	7ff00513          	li	a0,2047

   1f574:	00200793          	li	a5,2

   1f578:	f5dff06f          	j	1f4d4 <__divdf3+0xf8>

   1f57c:	00300793          	li	a5,3

   1f580:	f55ff06f          	j	1f4d4 <__divdf3+0xf8>

   1f584:	00841c93          	slli	s9,s0,0x8

   1f588:	1a897e63          	bgeu	s2,s0,1f744 <__divdf3+0x368>

   1f58c:	fffb8b93          	addi	s7,s7,-1

   1f590:	00000993          	li	s3,0

   1f594:	020cdc13          	srli	s8,s9,0x20

   1f598:	fff00413          	li	s0,-1

   1f59c:	000c0593          	mv	a1,s8

   1f5a0:	02045413          	srli	s0,s0,0x20

   1f5a4:	00090513          	mv	a0,s2

   1f5a8:	4d8020ef          	jal	ra,21a80 <__udivdi3>

   1f5ac:	008cf433          	and	s0,s9,s0

   1f5b0:	00050593          	mv	a1,a0

   1f5b4:	00050d93          	mv	s11,a0

   1f5b8:	00040513          	mv	a0,s0

   1f5bc:	458020ef          	jal	ra,21a14 <__muldi3>

   1f5c0:	00050d13          	mv	s10,a0

   1f5c4:	000c0593          	mv	a1,s8

   1f5c8:	00090513          	mv	a0,s2

   1f5cc:	4fc020ef          	jal	ra,21ac8 <__umoddi3>

   1f5d0:	02051513          	slli	a0,a0,0x20

   1f5d4:	0209d993          	srli	s3,s3,0x20

   1f5d8:	00a9e533          	or	a0,s3,a0

   1f5dc:	000d8a93          	mv	s5,s11

   1f5e0:	01a57e63          	bgeu	a0,s10,1f5fc <__divdf3+0x220>

   1f5e4:	01950533          	add	a0,a0,s9

   1f5e8:	fffd8a93          	addi	s5,s11,-1

   1f5ec:	01956863          	bltu	a0,s9,1f5fc <__divdf3+0x220>

   1f5f0:	01a57663          	bgeu	a0,s10,1f5fc <__divdf3+0x220>

   1f5f4:	ffed8a93          	addi	s5,s11,-2

   1f5f8:	01950533          	add	a0,a0,s9

   1f5fc:	41a50933          	sub	s2,a0,s10

   1f600:	000c0593          	mv	a1,s8

   1f604:	00090513          	mv	a0,s2

   1f608:	478020ef          	jal	ra,21a80 <__udivdi3>

   1f60c:	00050593          	mv	a1,a0

   1f610:	00050d13          	mv	s10,a0

   1f614:	00040513          	mv	a0,s0

   1f618:	3fc020ef          	jal	ra,21a14 <__muldi3>

   1f61c:	00050993          	mv	s3,a0

   1f620:	000c0593          	mv	a1,s8

   1f624:	00090513          	mv	a0,s2

   1f628:	4a0020ef          	jal	ra,21ac8 <__umoddi3>

   1f62c:	02051513          	slli	a0,a0,0x20

   1f630:	000d0793          	mv	a5,s10

   1f634:	01357e63          	bgeu	a0,s3,1f650 <__divdf3+0x274>

   1f638:	01950533          	add	a0,a0,s9

   1f63c:	fffd0793          	addi	a5,s10,-1

   1f640:	01956863          	bltu	a0,s9,1f650 <__divdf3+0x274>

   1f644:	01357663          	bgeu	a0,s3,1f650 <__divdf3+0x274>

   1f648:	ffed0793          	addi	a5,s10,-2

   1f64c:	01950533          	add	a0,a0,s9

   1f650:	020a9413          	slli	s0,s5,0x20

   1f654:	41350533          	sub	a0,a0,s3

   1f658:	00f46433          	or	s0,s0,a5

   1f65c:	00a03533          	snez	a0,a0

   1f660:	00a46433          	or	s0,s0,a0

   1f664:	3ffb8513          	addi	a0,s7,1023

   1f668:	16a05663          	blez	a0,1f7d4 <__divdf3+0x3f8>

   1f66c:	00747793          	andi	a5,s0,7

   1f670:	02078663          	beqz	a5,1f69c <__divdf3+0x2c0>

   1f674:	00200793          	li	a5,2

   1f678:	0014e493          	ori	s1,s1,1

   1f67c:	12fb0c63          	beq	s6,a5,1f7b4 <__divdf3+0x3d8>

   1f680:	00300793          	li	a5,3

   1f684:	12fb0263          	beq	s6,a5,1f7a8 <__divdf3+0x3cc>

   1f688:	000b1a63          	bnez	s6,1f69c <__divdf3+0x2c0>

   1f68c:	00f47793          	andi	a5,s0,15

   1f690:	00400713          	li	a4,4

   1f694:	00e78463          	beq	a5,a4,1f69c <__divdf3+0x2c0>

   1f698:	00440413          	addi	s0,s0,4

   1f69c:	00741793          	slli	a5,s0,0x7

   1f6a0:	0007dc63          	bgez	a5,1f6b8 <__divdf3+0x2dc>

   1f6a4:	fff00793          	li	a5,-1

   1f6a8:	03879793          	slli	a5,a5,0x38

   1f6ac:	fff78793          	addi	a5,a5,-1

   1f6b0:	00f47433          	and	s0,s0,a5

   1f6b4:	400b8513          	addi	a0,s7,1024

   1f6b8:	7fe00793          	li	a5,2046

   1f6bc:	00345413          	srli	s0,s0,0x3

   1f6c0:	02a7d263          	bge	a5,a0,1f6e4 <__divdf3+0x308>

   1f6c4:	00200793          	li	a5,2

   1f6c8:	10fb0263          	beq	s6,a5,1f7cc <__divdf3+0x3f0>

   1f6cc:	00300793          	li	a5,3

   1f6d0:	0efb0663          	beq	s6,a5,1f7bc <__divdf3+0x3e0>

   1f6d4:	0e0b0663          	beqz	s6,1f7c0 <__divdf3+0x3e4>

   1f6d8:	fff00413          	li	s0,-1

   1f6dc:	7fe00513          	li	a0,2046

   1f6e0:	0054e493          	ori	s1,s1,5

   1f6e4:	00c41413          	slli	s0,s0,0xc

   1f6e8:	7ff57513          	andi	a0,a0,2047

   1f6ec:	03451513          	slli	a0,a0,0x34

   1f6f0:	00c45413          	srli	s0,s0,0xc

   1f6f4:	03fa1793          	slli	a5,s4,0x3f

   1f6f8:	00a46433          	or	s0,s0,a0

   1f6fc:	00f46533          	or	a0,s0,a5

   1f700:	00048463          	beqz	s1,1f708 <__divdf3+0x32c>

   1f704:	0014a073          	csrs	fflags,s1

   1f708:	06813083          	ld	ra,104(sp)

   1f70c:	06013403          	ld	s0,96(sp)

   1f710:	05813483          	ld	s1,88(sp)

   1f714:	05013903          	ld	s2,80(sp)

   1f718:	04813983          	ld	s3,72(sp)

   1f71c:	04013a03          	ld	s4,64(sp)

   1f720:	03813a83          	ld	s5,56(sp)

   1f724:	03013b03          	ld	s6,48(sp)

   1f728:	02813b83          	ld	s7,40(sp)

   1f72c:	02013c03          	ld	s8,32(sp)

   1f730:	01813c83          	ld	s9,24(sp)

   1f734:	01013d03          	ld	s10,16(sp)

   1f738:	00813d83          	ld	s11,8(sp)

   1f73c:	07010113          	addi	sp,sp,112

   1f740:	00008067          	ret

   1f744:	03f91993          	slli	s3,s2,0x3f

   1f748:	00195913          	srli	s2,s2,0x1

   1f74c:	e49ff06f          	j	1f594 <__divdf3+0x1b8>

   1f750:	000a8a13          	mv	s4,s5

   1f754:	00090413          	mv	s0,s2

   1f758:	000c0793          	mv	a5,s8

   1f75c:	00200713          	li	a4,2

   1f760:	02e78463          	beq	a5,a4,1f788 <__divdf3+0x3ac>

   1f764:	00300713          	li	a4,3

   1f768:	1ce78a63          	beq	a5,a4,1f93c <__divdf3+0x560>

   1f76c:	00100713          	li	a4,1

   1f770:	eee79ae3          	bne	a5,a4,1f664 <__divdf3+0x288>

   1f774:	00000413          	li	s0,0

   1f778:	1980006f          	j	1f910 <__divdf3+0x534>

   1f77c:	000c8a13          	mv	s4,s9

   1f780:	fddff06f          	j	1f75c <__divdf3+0x380>

   1f784:	0084e493          	ori	s1,s1,8

   1f788:	00000413          	li	s0,0

   1f78c:	7ff00513          	li	a0,2047

   1f790:	f55ff06f          	j	1f6e4 <__divdf3+0x308>

   1f794:	00100413          	li	s0,1

   1f798:	03341413          	slli	s0,s0,0x33

   1f79c:	00000a13          	li	s4,0

   1f7a0:	00300793          	li	a5,3

   1f7a4:	fb9ff06f          	j	1f75c <__divdf3+0x380>

   1f7a8:	ee0a1ae3          	bnez	s4,1f69c <__divdf3+0x2c0>

   1f7ac:	00840413          	addi	s0,s0,8

   1f7b0:	eedff06f          	j	1f69c <__divdf3+0x2c0>

   1f7b4:	ee0a04e3          	beqz	s4,1f69c <__divdf3+0x2c0>

   1f7b8:	ff5ff06f          	j	1f7ac <__divdf3+0x3d0>

   1f7bc:	f00a1ee3          	bnez	s4,1f6d8 <__divdf3+0x2fc>

   1f7c0:	00000413          	li	s0,0

   1f7c4:	7ff00513          	li	a0,2047

   1f7c8:	f19ff06f          	j	1f6e0 <__divdf3+0x304>

   1f7cc:	fe0a1ae3          	bnez	s4,1f7c0 <__divdf3+0x3e4>

   1f7d0:	f09ff06f          	j	1f6d8 <__divdf3+0x2fc>

   1f7d4:	00100713          	li	a4,1

   1f7d8:	04051263          	bnez	a0,1f81c <__divdf3+0x440>

   1f7dc:	00747793          	andi	a5,s0,7

   1f7e0:	00040713          	mv	a4,s0

   1f7e4:	02078663          	beqz	a5,1f810 <__divdf3+0x434>

   1f7e8:	00200793          	li	a5,2

   1f7ec:	0014e493          	ori	s1,s1,1

   1f7f0:	0afb0a63          	beq	s6,a5,1f8a4 <__divdf3+0x4c8>

   1f7f4:	00300793          	li	a5,3

   1f7f8:	0afb0063          	beq	s6,a5,1f898 <__divdf3+0x4bc>

   1f7fc:	000b1a63          	bnez	s6,1f810 <__divdf3+0x434>

   1f800:	00f47793          	andi	a5,s0,15

   1f804:	00400693          	li	a3,4

   1f808:	00d78463          	beq	a5,a3,1f810 <__divdf3+0x434>

   1f80c:	00440713          	addi	a4,s0,4

   1f810:	03875713          	srli	a4,a4,0x38

   1f814:	00174713          	xori	a4,a4,1

   1f818:	00177713          	andi	a4,a4,1

   1f81c:	00100693          	li	a3,1

   1f820:	40a68533          	sub	a0,a3,a0

   1f824:	03800793          	li	a5,56

   1f828:	0aa7c863          	blt	a5,a0,1f8d8 <__divdf3+0x4fc>

   1f82c:	0005069b          	sext.w	a3,a0

   1f830:	04000513          	li	a0,64

   1f834:	40d5053b          	subw	a0,a0,a3

   1f838:	00d457b3          	srl	a5,s0,a3

   1f83c:	00a41433          	sll	s0,s0,a0

   1f840:	00803433          	snez	s0,s0

   1f844:	0087e433          	or	s0,a5,s0

   1f848:	00747793          	andi	a5,s0,7

   1f84c:	02078663          	beqz	a5,1f878 <__divdf3+0x49c>

   1f850:	00200793          	li	a5,2

   1f854:	0014e493          	ori	s1,s1,1

   1f858:	06fb0063          	beq	s6,a5,1f8b8 <__divdf3+0x4dc>

   1f85c:	00300793          	li	a5,3

   1f860:	04fb0663          	beq	s6,a5,1f8ac <__divdf3+0x4d0>

   1f864:	000b1a63          	bnez	s6,1f878 <__divdf3+0x49c>

   1f868:	00f47793          	andi	a5,s0,15

   1f86c:	00400693          	li	a3,4

   1f870:	00d78463          	beq	a5,a3,1f878 <__divdf3+0x49c>

   1f874:	00440413          	addi	s0,s0,4

   1f878:	00841793          	slli	a5,s0,0x8

   1f87c:	0407d263          	bgez	a5,1f8c0 <__divdf3+0x4e4>

   1f880:	0014e493          	ori	s1,s1,1

   1f884:	00000413          	li	s0,0

   1f888:	00100513          	li	a0,1

   1f88c:	e4070ce3          	beqz	a4,1f6e4 <__divdf3+0x308>

   1f890:	0024e493          	ori	s1,s1,2

   1f894:	e51ff06f          	j	1f6e4 <__divdf3+0x308>

   1f898:	f60a1ce3          	bnez	s4,1f810 <__divdf3+0x434>

   1f89c:	00840713          	addi	a4,s0,8

   1f8a0:	f71ff06f          	j	1f810 <__divdf3+0x434>

   1f8a4:	f60a06e3          	beqz	s4,1f810 <__divdf3+0x434>

   1f8a8:	ff5ff06f          	j	1f89c <__divdf3+0x4c0>

   1f8ac:	fc0a16e3          	bnez	s4,1f878 <__divdf3+0x49c>

   1f8b0:	00840413          	addi	s0,s0,8

   1f8b4:	fc5ff06f          	j	1f878 <__divdf3+0x49c>

   1f8b8:	fc0a00e3          	beqz	s4,1f878 <__divdf3+0x49c>

   1f8bc:	ff5ff06f          	j	1f8b0 <__divdf3+0x4d4>

   1f8c0:	00345413          	srli	s0,s0,0x3

   1f8c4:	00000513          	li	a0,0

   1f8c8:	e0070ee3          	beqz	a4,1f6e4 <__divdf3+0x308>

   1f8cc:	0014f793          	andi	a5,s1,1

   1f8d0:	e0078ae3          	beqz	a5,1f6e4 <__divdf3+0x308>

   1f8d4:	fbdff06f          	j	1f890 <__divdf3+0x4b4>

   1f8d8:	02040a63          	beqz	s0,1f90c <__divdf3+0x530>

   1f8dc:	00200793          	li	a5,2

   1f8e0:	0014e493          	ori	s1,s1,1

   1f8e4:	02fb0a63          	beq	s6,a5,1f918 <__divdf3+0x53c>

   1f8e8:	00300793          	li	a5,3

   1f8ec:	00fb0a63          	beq	s6,a5,1f900 <__divdf3+0x524>

   1f8f0:	00500413          	li	s0,5

   1f8f4:	000b0a63          	beqz	s6,1f908 <__divdf3+0x52c>

   1f8f8:	00100413          	li	s0,1

   1f8fc:	00c0006f          	j	1f908 <__divdf3+0x52c>

   1f900:	00900413          	li	s0,9

   1f904:	fe0a1ae3          	bnez	s4,1f8f8 <__divdf3+0x51c>

   1f908:	00345413          	srli	s0,s0,0x3

   1f90c:	0024e493          	ori	s1,s1,2

   1f910:	00000513          	li	a0,0

   1f914:	dd1ff06f          	j	1f6e4 <__divdf3+0x308>

   1f918:	00900413          	li	s0,9

   1f91c:	fe0a16e3          	bnez	s4,1f908 <__divdf3+0x52c>

   1f920:	fd9ff06f          	j	1f8f8 <__divdf3+0x51c>

   1f924:	00100413          	li	s0,1

   1f928:	03341413          	slli	s0,s0,0x33

   1f92c:	7ff00513          	li	a0,2047

   1f930:	00000a13          	li	s4,0

   1f934:	01000493          	li	s1,16

   1f938:	dadff06f          	j	1f6e4 <__divdf3+0x308>

   1f93c:	00100413          	li	s0,1

   1f940:	03341413          	slli	s0,s0,0x33

   1f944:	7ff00513          	li	a0,2047

   1f948:	00000a13          	li	s4,0

   1f94c:	d99ff06f          	j	1f6e4 <__divdf3+0x308>



000000000001f950 <__muldf3>:

   1f950:	fb010113          	addi	sp,sp,-80

   1f954:	01713423          	sd	s7,8(sp)

   1f958:	04113423          	sd	ra,72(sp)

   1f95c:	04813023          	sd	s0,64(sp)

   1f960:	02913c23          	sd	s1,56(sp)

   1f964:	03213823          	sd	s2,48(sp)

   1f968:	03313423          	sd	s3,40(sp)

   1f96c:	03413023          	sd	s4,32(sp)

   1f970:	01513c23          	sd	s5,24(sp)

   1f974:	01613823          	sd	s6,16(sp)

   1f978:	00058b93          	mv	s7,a1

   1f97c:	00202af3          	frrm	s5

   1f980:	03455993          	srli	s3,a0,0x34

   1f984:	00c51913          	slli	s2,a0,0xc

   1f988:	7ff9f993          	andi	s3,s3,2047

   1f98c:	000a8a9b          	sext.w	s5,s5

   1f990:	00c95913          	srli	s2,s2,0xc

   1f994:	03f55a13          	srli	s4,a0,0x3f

   1f998:	02098663          	beqz	s3,1f9c4 <__muldf3+0x74>

   1f99c:	7ff00793          	li	a5,2047

   1f9a0:	04f98463          	beq	s3,a5,1f9e8 <__muldf3+0x98>

   1f9a4:	00100793          	li	a5,1

   1f9a8:	00391913          	slli	s2,s2,0x3

   1f9ac:	03779793          	slli	a5,a5,0x37

   1f9b0:	00f96933          	or	s2,s2,a5

   1f9b4:	c0198993          	addi	s3,s3,-1023

   1f9b8:	00000b13          	li	s6,0

   1f9bc:	00000493          	li	s1,0

   1f9c0:	0400006f          	j	1fa00 <__muldf3+0xb0>

   1f9c4:	0a090863          	beqz	s2,1fa74 <__muldf3+0x124>

   1f9c8:	00090513          	mv	a0,s2

   1f9cc:	90df00ef          	jal	ra,102d8 <__clzdi2>

   1f9d0:	0005051b          	sext.w	a0,a0

   1f9d4:	ff85079b          	addiw	a5,a0,-8

   1f9d8:	c0d00993          	li	s3,-1011

   1f9dc:	00f91933          	sll	s2,s2,a5

   1f9e0:	40a989b3          	sub	s3,s3,a0

   1f9e4:	fd5ff06f          	j	1f9b8 <__muldf3+0x68>

   1f9e8:	08090c63          	beqz	s2,1fa80 <__muldf3+0x130>

   1f9ec:	00c91793          	slli	a5,s2,0xc

   1f9f0:	7ff00993          	li	s3,2047

   1f9f4:	00300b13          	li	s6,3

   1f9f8:	01000493          	li	s1,16

   1f9fc:	fc07c0e3          	bltz	a5,1f9bc <__muldf3+0x6c>

   1fa00:	034bd513          	srli	a0,s7,0x34

   1fa04:	00cb9413          	slli	s0,s7,0xc

   1fa08:	7ff57513          	andi	a0,a0,2047

   1fa0c:	00c45413          	srli	s0,s0,0xc

   1fa10:	03fbdb93          	srli	s7,s7,0x3f

   1fa14:	06050c63          	beqz	a0,1fa8c <__muldf3+0x13c>

   1fa18:	7ff00793          	li	a5,2047

   1fa1c:	08f50a63          	beq	a0,a5,1fab0 <__muldf3+0x160>

   1fa20:	00100793          	li	a5,1

   1fa24:	00341413          	slli	s0,s0,0x3

   1fa28:	03779793          	slli	a5,a5,0x37

   1fa2c:	00f46433          	or	s0,s0,a5

   1fa30:	c0150513          	addi	a0,a0,-1023

   1fa34:	00000713          	li	a4,0

   1fa38:	002b1693          	slli	a3,s6,0x2

   1fa3c:	00e6e6b3          	or	a3,a3,a4

   1fa40:	00a989b3          	add	s3,s3,a0

   1fa44:	fff68693          	addi	a3,a3,-1

   1fa48:	00e00613          	li	a2,14

   1fa4c:	017a47b3          	xor	a5,s4,s7

   1fa50:	00198813          	addi	a6,s3,1

   1fa54:	0ed66a63          	bltu	a2,a3,1fb48 <__muldf3+0x1f8>

   1fa58:	00003617          	auipc	a2,0x3

   1fa5c:	dec60613          	addi	a2,a2,-532 # 22844 <zeroes.4503+0x4c>

   1fa60:	00269693          	slli	a3,a3,0x2

   1fa64:	00c686b3          	add	a3,a3,a2

   1fa68:	0006a683          	lw	a3,0(a3)

   1fa6c:	00c686b3          	add	a3,a3,a2

   1fa70:	00068067          	jr	a3

   1fa74:	00000993          	li	s3,0

   1fa78:	00100b13          	li	s6,1

   1fa7c:	f41ff06f          	j	1f9bc <__muldf3+0x6c>

   1fa80:	7ff00993          	li	s3,2047

   1fa84:	00200b13          	li	s6,2

   1fa88:	f35ff06f          	j	1f9bc <__muldf3+0x6c>

   1fa8c:	04040063          	beqz	s0,1facc <__muldf3+0x17c>

   1fa90:	00040513          	mv	a0,s0

   1fa94:	845f00ef          	jal	ra,102d8 <__clzdi2>

   1fa98:	0005051b          	sext.w	a0,a0

   1fa9c:	ff85079b          	addiw	a5,a0,-8

   1faa0:	00f41433          	sll	s0,s0,a5

   1faa4:	c0d00793          	li	a5,-1011

   1faa8:	40a78533          	sub	a0,a5,a0

   1faac:	f89ff06f          	j	1fa34 <__muldf3+0xe4>

   1fab0:	02040463          	beqz	s0,1fad8 <__muldf3+0x188>

   1fab4:	00c41793          	slli	a5,s0,0xc

   1fab8:	7ff00513          	li	a0,2047

   1fabc:	00300713          	li	a4,3

   1fac0:	f607cce3          	bltz	a5,1fa38 <__muldf3+0xe8>

   1fac4:	01000493          	li	s1,16

   1fac8:	f71ff06f          	j	1fa38 <__muldf3+0xe8>

   1facc:	00000513          	li	a0,0

   1fad0:	00100713          	li	a4,1

   1fad4:	f65ff06f          	j	1fa38 <__muldf3+0xe8>

   1fad8:	7ff00513          	li	a0,2047

   1fadc:	00200713          	li	a4,2

   1fae0:	f59ff06f          	j	1fa38 <__muldf3+0xe8>

   1fae4:	00100413          	li	s0,1

   1fae8:	03341413          	slli	s0,s0,0x33

   1faec:	7ff00513          	li	a0,2047

   1faf0:	00000793          	li	a5,0

   1faf4:	01000493          	li	s1,16

   1faf8:	00c41413          	slli	s0,s0,0xc

   1fafc:	7ff57513          	andi	a0,a0,2047

   1fb00:	03451513          	slli	a0,a0,0x34

   1fb04:	00c45413          	srli	s0,s0,0xc

   1fb08:	03f79793          	slli	a5,a5,0x3f

   1fb0c:	00a46433          	or	s0,s0,a0

   1fb10:	00f46533          	or	a0,s0,a5

   1fb14:	00048463          	beqz	s1,1fb1c <__muldf3+0x1cc>

   1fb18:	0014a073          	csrs	fflags,s1

   1fb1c:	04813083          	ld	ra,72(sp)

   1fb20:	04013403          	ld	s0,64(sp)

   1fb24:	03813483          	ld	s1,56(sp)

   1fb28:	03013903          	ld	s2,48(sp)

   1fb2c:	02813983          	ld	s3,40(sp)

   1fb30:	02013a03          	ld	s4,32(sp)

   1fb34:	01813a83          	ld	s5,24(sp)

   1fb38:	01013b03          	ld	s6,16(sp)

   1fb3c:	00813b83          	ld	s7,8(sp)

   1fb40:	05010113          	addi	sp,sp,80

   1fb44:	00008067          	ret

   1fb48:	fff00713          	li	a4,-1

   1fb4c:	02075713          	srli	a4,a4,0x20

   1fb50:	02095f13          	srli	t5,s2,0x20

   1fb54:	02045e93          	srli	t4,s0,0x20

   1fb58:	00e97933          	and	s2,s2,a4

   1fb5c:	00e47433          	and	s0,s0,a4

   1fb60:	00090513          	mv	a0,s2

   1fb64:	00040593          	mv	a1,s0

   1fb68:	6ad010ef          	jal	ra,21a14 <__muldi3>

   1fb6c:	00050893          	mv	a7,a0

   1fb70:	000e8593          	mv	a1,t4

   1fb74:	00090513          	mv	a0,s2

   1fb78:	69d010ef          	jal	ra,21a14 <__muldi3>

   1fb7c:	00050313          	mv	t1,a0

   1fb80:	00040593          	mv	a1,s0

   1fb84:	000f0513          	mv	a0,t5

   1fb88:	68d010ef          	jal	ra,21a14 <__muldi3>

   1fb8c:	00050e13          	mv	t3,a0

   1fb90:	000e8593          	mv	a1,t4

   1fb94:	000f0513          	mv	a0,t5

   1fb98:	67d010ef          	jal	ra,21a14 <__muldi3>

   1fb9c:	0208d713          	srli	a4,a7,0x20

   1fba0:	01c30333          	add	t1,t1,t3

   1fba4:	00670733          	add	a4,a4,t1

   1fba8:	01c77863          	bgeu	a4,t3,1fbb8 <__muldf3+0x268>

   1fbac:	00100693          	li	a3,1

   1fbb0:	02069693          	slli	a3,a3,0x20

   1fbb4:	00d50533          	add	a0,a0,a3

   1fbb8:	fff00613          	li	a2,-1

   1fbbc:	02065613          	srli	a2,a2,0x20

   1fbc0:	00c776b3          	and	a3,a4,a2

   1fbc4:	02069693          	slli	a3,a3,0x20

   1fbc8:	00c8f8b3          	and	a7,a7,a2

   1fbcc:	011686b3          	add	a3,a3,a7

   1fbd0:	00969413          	slli	s0,a3,0x9

   1fbd4:	02075713          	srli	a4,a4,0x20

   1fbd8:	00803433          	snez	s0,s0

   1fbdc:	00a70733          	add	a4,a4,a0

   1fbe0:	0376d693          	srli	a3,a3,0x37

   1fbe4:	00d466b3          	or	a3,s0,a3

   1fbe8:	00971413          	slli	s0,a4,0x9

   1fbec:	00d46433          	or	s0,s0,a3

   1fbf0:	00741713          	slli	a4,s0,0x7

   1fbf4:	0c075463          	bgez	a4,1fcbc <__muldf3+0x36c>

   1fbf8:	00145713          	srli	a4,s0,0x1

   1fbfc:	00147413          	andi	s0,s0,1

   1fc00:	00876433          	or	s0,a4,s0

   1fc04:	3ff80513          	addi	a0,a6,1023

   1fc08:	0ea05463          	blez	a0,1fcf0 <__muldf3+0x3a0>

   1fc0c:	00747713          	andi	a4,s0,7

   1fc10:	02070663          	beqz	a4,1fc3c <__muldf3+0x2ec>

   1fc14:	00200713          	li	a4,2

   1fc18:	0014e493          	ori	s1,s1,1

   1fc1c:	0aea8a63          	beq	s5,a4,1fcd0 <__muldf3+0x380>

   1fc20:	00300713          	li	a4,3

   1fc24:	0aea8063          	beq	s5,a4,1fcc4 <__muldf3+0x374>

   1fc28:	000a9a63          	bnez	s5,1fc3c <__muldf3+0x2ec>

   1fc2c:	00f47713          	andi	a4,s0,15

   1fc30:	00400693          	li	a3,4

   1fc34:	00d70463          	beq	a4,a3,1fc3c <__muldf3+0x2ec>

   1fc38:	00440413          	addi	s0,s0,4

   1fc3c:	00741713          	slli	a4,s0,0x7

   1fc40:	00075c63          	bgez	a4,1fc58 <__muldf3+0x308>

   1fc44:	fff00713          	li	a4,-1

   1fc48:	03871713          	slli	a4,a4,0x38

   1fc4c:	fff70713          	addi	a4,a4,-1

   1fc50:	00e47433          	and	s0,s0,a4

   1fc54:	40080513          	addi	a0,a6,1024

   1fc58:	7fe00713          	li	a4,2046

   1fc5c:	00345413          	srli	s0,s0,0x3

   1fc60:	e8a75ce3          	bge	a4,a0,1faf8 <__muldf3+0x1a8>

   1fc64:	00200713          	li	a4,2

   1fc68:	08ea8063          	beq	s5,a4,1fce8 <__muldf3+0x398>

   1fc6c:	00300713          	li	a4,3

   1fc70:	06ea8463          	beq	s5,a4,1fcd8 <__muldf3+0x388>

   1fc74:	060a8463          	beqz	s5,1fcdc <__muldf3+0x38c>

   1fc78:	fff00413          	li	s0,-1

   1fc7c:	7fe00513          	li	a0,2046

   1fc80:	0054e493          	ori	s1,s1,5

   1fc84:	e75ff06f          	j	1faf8 <__muldf3+0x1a8>

   1fc88:	000a0793          	mv	a5,s4

   1fc8c:	00090413          	mv	s0,s2

   1fc90:	000b0713          	mv	a4,s6

   1fc94:	00200693          	li	a3,2

   1fc98:	1ad70863          	beq	a4,a3,1fe48 <__muldf3+0x4f8>

   1fc9c:	00300693          	li	a3,3

   1fca0:	1ad70a63          	beq	a4,a3,1fe54 <__muldf3+0x504>

   1fca4:	00100693          	li	a3,1

   1fca8:	f4d71ee3          	bne	a4,a3,1fc04 <__muldf3+0x2b4>

   1fcac:	00000413          	li	s0,0

   1fcb0:	1840006f          	j	1fe34 <__muldf3+0x4e4>

   1fcb4:	000b8793          	mv	a5,s7

   1fcb8:	fddff06f          	j	1fc94 <__muldf3+0x344>

   1fcbc:	00098813          	mv	a6,s3

   1fcc0:	f45ff06f          	j	1fc04 <__muldf3+0x2b4>

   1fcc4:	f6079ce3          	bnez	a5,1fc3c <__muldf3+0x2ec>

   1fcc8:	00840413          	addi	s0,s0,8

   1fccc:	f71ff06f          	j	1fc3c <__muldf3+0x2ec>

   1fcd0:	f60786e3          	beqz	a5,1fc3c <__muldf3+0x2ec>

   1fcd4:	ff5ff06f          	j	1fcc8 <__muldf3+0x378>

   1fcd8:	fa0790e3          	bnez	a5,1fc78 <__muldf3+0x328>

   1fcdc:	00000413          	li	s0,0

   1fce0:	7ff00513          	li	a0,2047

   1fce4:	f9dff06f          	j	1fc80 <__muldf3+0x330>

   1fce8:	fe079ae3          	bnez	a5,1fcdc <__muldf3+0x38c>

   1fcec:	f8dff06f          	j	1fc78 <__muldf3+0x328>

   1fcf0:	00100713          	li	a4,1

   1fcf4:	04051463          	bnez	a0,1fd3c <__muldf3+0x3ec>

   1fcf8:	00747693          	andi	a3,s0,7

   1fcfc:	00040713          	mv	a4,s0

   1fd00:	02068863          	beqz	a3,1fd30 <__muldf3+0x3e0>

   1fd04:	00200713          	li	a4,2

   1fd08:	0014e493          	ori	s1,s1,1

   1fd0c:	0aea8e63          	beq	s5,a4,1fdc8 <__muldf3+0x478>

   1fd10:	00300713          	li	a4,3

   1fd14:	0aea8263          	beq	s5,a4,1fdb8 <__muldf3+0x468>

   1fd18:	00040713          	mv	a4,s0

   1fd1c:	000a9a63          	bnez	s5,1fd30 <__muldf3+0x3e0>

   1fd20:	00f47693          	andi	a3,s0,15

   1fd24:	00400613          	li	a2,4

   1fd28:	00c68463          	beq	a3,a2,1fd30 <__muldf3+0x3e0>

   1fd2c:	00440713          	addi	a4,s0,4

   1fd30:	03875713          	srli	a4,a4,0x38

   1fd34:	00174713          	xori	a4,a4,1

   1fd38:	00177713          	andi	a4,a4,1

   1fd3c:	00100613          	li	a2,1

   1fd40:	40a60533          	sub	a0,a2,a0

   1fd44:	03800693          	li	a3,56

   1fd48:	0aa6ca63          	blt	a3,a0,1fdfc <__muldf3+0x4ac>

   1fd4c:	0005061b          	sext.w	a2,a0

   1fd50:	04000513          	li	a0,64

   1fd54:	40c5053b          	subw	a0,a0,a2

   1fd58:	00c456b3          	srl	a3,s0,a2

   1fd5c:	00a41433          	sll	s0,s0,a0

   1fd60:	00803433          	snez	s0,s0

   1fd64:	0086e433          	or	s0,a3,s0

   1fd68:	00747693          	andi	a3,s0,7

   1fd6c:	02068663          	beqz	a3,1fd98 <__muldf3+0x448>

   1fd70:	00200693          	li	a3,2

   1fd74:	0014e493          	ori	s1,s1,1

   1fd78:	06da8463          	beq	s5,a3,1fde0 <__muldf3+0x490>

   1fd7c:	00300693          	li	a3,3

   1fd80:	04da8a63          	beq	s5,a3,1fdd4 <__muldf3+0x484>

   1fd84:	000a9a63          	bnez	s5,1fd98 <__muldf3+0x448>

   1fd88:	00f47693          	andi	a3,s0,15

   1fd8c:	00400613          	li	a2,4

   1fd90:	00c68463          	beq	a3,a2,1fd98 <__muldf3+0x448>

   1fd94:	00440413          	addi	s0,s0,4

   1fd98:	00841693          	slli	a3,s0,0x8

   1fd9c:	0406d663          	bgez	a3,1fde8 <__muldf3+0x498>

   1fda0:	0014e493          	ori	s1,s1,1

   1fda4:	00000413          	li	s0,0

   1fda8:	00100513          	li	a0,1

   1fdac:	d40706e3          	beqz	a4,1faf8 <__muldf3+0x1a8>

   1fdb0:	0024e493          	ori	s1,s1,2

   1fdb4:	d45ff06f          	j	1faf8 <__muldf3+0x1a8>

   1fdb8:	00040713          	mv	a4,s0

   1fdbc:	f6079ae3          	bnez	a5,1fd30 <__muldf3+0x3e0>

   1fdc0:	00840713          	addi	a4,s0,8

   1fdc4:	f6dff06f          	j	1fd30 <__muldf3+0x3e0>

   1fdc8:	00040713          	mv	a4,s0

   1fdcc:	f60782e3          	beqz	a5,1fd30 <__muldf3+0x3e0>

   1fdd0:	ff1ff06f          	j	1fdc0 <__muldf3+0x470>

   1fdd4:	fc0792e3          	bnez	a5,1fd98 <__muldf3+0x448>

   1fdd8:	00840413          	addi	s0,s0,8

   1fddc:	fbdff06f          	j	1fd98 <__muldf3+0x448>

   1fde0:	fa078ce3          	beqz	a5,1fd98 <__muldf3+0x448>

   1fde4:	ff5ff06f          	j	1fdd8 <__muldf3+0x488>

   1fde8:	00345413          	srli	s0,s0,0x3

   1fdec:	00000513          	li	a0,0

   1fdf0:	d00704e3          	beqz	a4,1faf8 <__muldf3+0x1a8>

   1fdf4:	0014f713          	andi	a4,s1,1

   1fdf8:	fb5ff06f          	j	1fdac <__muldf3+0x45c>

   1fdfc:	02040a63          	beqz	s0,1fe30 <__muldf3+0x4e0>

   1fe00:	00200713          	li	a4,2

   1fe04:	0014e493          	ori	s1,s1,1

   1fe08:	02ea8a63          	beq	s5,a4,1fe3c <__muldf3+0x4ec>

   1fe0c:	00300713          	li	a4,3

   1fe10:	00ea8a63          	beq	s5,a4,1fe24 <__muldf3+0x4d4>

   1fe14:	00500413          	li	s0,5

   1fe18:	000a8a63          	beqz	s5,1fe2c <__muldf3+0x4dc>

   1fe1c:	00100413          	li	s0,1

   1fe20:	00c0006f          	j	1fe2c <__muldf3+0x4dc>

   1fe24:	00900413          	li	s0,9

   1fe28:	fe079ae3          	bnez	a5,1fe1c <__muldf3+0x4cc>

   1fe2c:	00345413          	srli	s0,s0,0x3

   1fe30:	0024e493          	ori	s1,s1,2

   1fe34:	00000513          	li	a0,0

   1fe38:	cc1ff06f          	j	1faf8 <__muldf3+0x1a8>

   1fe3c:	00900413          	li	s0,9

   1fe40:	fe0796e3          	bnez	a5,1fe2c <__muldf3+0x4dc>

   1fe44:	fd9ff06f          	j	1fe1c <__muldf3+0x4cc>

   1fe48:	00000413          	li	s0,0

   1fe4c:	7ff00513          	li	a0,2047

   1fe50:	ca9ff06f          	j	1faf8 <__muldf3+0x1a8>

   1fe54:	00100413          	li	s0,1

   1fe58:	03341413          	slli	s0,s0,0x33

   1fe5c:	7ff00513          	li	a0,2047

   1fe60:	00000793          	li	a5,0

   1fe64:	c95ff06f          	j	1faf8 <__muldf3+0x1a8>



000000000001fe68 <__eqtf2>:

   1fe68:	002027f3          	frrm	a5

   1fe6c:	00008737          	lui	a4,0x8

   1fe70:	0305d893          	srli	a7,a1,0x30

   1fe74:	fff70713          	addi	a4,a4,-1 # 7fff <register_fini-0x80b1>

   1fe78:	fff00793          	li	a5,-1

   1fe7c:	0107d793          	srli	a5,a5,0x10

   1fe80:	0306d313          	srli	t1,a3,0x30

   1fe84:	00e8f8b3          	and	a7,a7,a4

   1fe88:	00f5f833          	and	a6,a1,a5

   1fe8c:	00e37333          	and	t1,t1,a4

   1fe90:	00f6f7b3          	and	a5,a3,a5

   1fe94:	03f5d593          	srli	a1,a1,0x3f

   1fe98:	03f6d693          	srli	a3,a3,0x3f

   1fe9c:	00e89c63          	bne	a7,a4,1feb4 <__eqtf2+0x4c>

   1fea0:	00a86733          	or	a4,a6,a0

   1fea4:	06071463          	bnez	a4,1ff0c <__eqtf2+0xa4>

   1fea8:	00100713          	li	a4,1

   1feac:	03131a63          	bne	t1,a7,1fee0 <__eqtf2+0x78>

   1feb0:	0080006f          	j	1feb8 <__eqtf2+0x50>

   1feb4:	00e31663          	bne	t1,a4,1fec0 <__eqtf2+0x58>

   1feb8:	00c7e733          	or	a4,a5,a2

   1febc:	02071e63          	bnez	a4,1fef8 <__eqtf2+0x90>

   1fec0:	00100713          	li	a4,1

   1fec4:	00689e63          	bne	a7,t1,1fee0 <__eqtf2+0x78>

   1fec8:	00f81c63          	bne	a6,a5,1fee0 <__eqtf2+0x78>

   1fecc:	00c51a63          	bne	a0,a2,1fee0 <__eqtf2+0x78>

   1fed0:	00d58c63          	beq	a1,a3,1fee8 <__eqtf2+0x80>

   1fed4:	00089663          	bnez	a7,1fee0 <__eqtf2+0x78>

   1fed8:	00a86733          	or	a4,a6,a0

   1fedc:	00e03733          	snez	a4,a4

   1fee0:	00070513          	mv	a0,a4

   1fee4:	00008067          	ret

   1fee8:	00000713          	li	a4,0

   1feec:	ff5ff06f          	j	1fee0 <__eqtf2+0x78>

   1fef0:	00186073          	csrsi	fflags,16

   1fef4:	0400006f          	j	1ff34 <__eqtf2+0xcc>

   1fef8:	00008737          	lui	a4,0x8

   1fefc:	fff70713          	addi	a4,a4,-1 # 7fff <register_fini-0x80b1>

   1ff00:	02e89663          	bne	a7,a4,1ff2c <__eqtf2+0xc4>

   1ff04:	00a86733          	or	a4,a6,a0

   1ff08:	02070263          	beqz	a4,1ff2c <__eqtf2+0xc4>

   1ff0c:	02f85813          	srli	a6,a6,0x2f

   1ff10:	fe0800e3          	beqz	a6,1fef0 <__eqtf2+0x88>

   1ff14:	00008737          	lui	a4,0x8

   1ff18:	fff70713          	addi	a4,a4,-1 # 7fff <register_fini-0x80b1>

   1ff1c:	00100513          	li	a0,1

   1ff20:	00e31e63          	bne	t1,a4,1ff3c <__eqtf2+0xd4>

   1ff24:	00c7e633          	or	a2,a5,a2

   1ff28:	00060a63          	beqz	a2,1ff3c <__eqtf2+0xd4>

   1ff2c:	02f7d793          	srli	a5,a5,0x2f

   1ff30:	fc0780e3          	beqz	a5,1fef0 <__eqtf2+0x88>

   1ff34:	00100513          	li	a0,1

   1ff38:	00008067          	ret

   1ff3c:	00008067          	ret



000000000001ff40 <__getf2>:

   1ff40:	002027f3          	frrm	a5

   1ff44:	000088b7          	lui	a7,0x8

   1ff48:	0305d813          	srli	a6,a1,0x30

   1ff4c:	fff88893          	addi	a7,a7,-1 # 7fff <register_fini-0x80b1>

   1ff50:	fff00793          	li	a5,-1

   1ff54:	0107d793          	srli	a5,a5,0x10

   1ff58:	0306d713          	srli	a4,a3,0x30

   1ff5c:	01187833          	and	a6,a6,a7

   1ff60:	00f5f333          	and	t1,a1,a5

   1ff64:	01177733          	and	a4,a4,a7

   1ff68:	00f6f7b3          	and	a5,a3,a5

   1ff6c:	03f5d593          	srli	a1,a1,0x3f

   1ff70:	03f6d693          	srli	a3,a3,0x3f

   1ff74:	01181c63          	bne	a6,a7,1ff8c <__getf2+0x4c>

   1ff78:	00a368b3          	or	a7,t1,a0

   1ff7c:	08088e63          	beqz	a7,20018 <__getf2+0xd8>

   1ff80:	00186073          	csrsi	fflags,16

   1ff84:	ffe00593          	li	a1,-2

   1ff88:	04c0006f          	j	1ffd4 <__getf2+0x94>

   1ff8c:	01171663          	bne	a4,a7,1ff98 <__getf2+0x58>

   1ff90:	00c7e8b3          	or	a7,a5,a2

   1ff94:	fe0896e3          	bnez	a7,1ff80 <__getf2+0x40>

   1ff98:	08081263          	bnez	a6,2001c <__getf2+0xdc>

   1ff9c:	00a368b3          	or	a7,t1,a0

   1ffa0:	0018b893          	seqz	a7,a7

   1ffa4:	00071663          	bnez	a4,1ffb0 <__getf2+0x70>

   1ffa8:	00c7ee33          	or	t3,a5,a2

   1ffac:	040e0e63          	beqz	t3,20008 <__getf2+0xc8>

   1ffb0:	00089c63          	bnez	a7,1ffc8 <__getf2+0x88>

   1ffb4:	00d59463          	bne	a1,a3,1ffbc <__getf2+0x7c>

   1ffb8:	03075263          	bge	a4,a6,1ffdc <__getf2+0x9c>

   1ffbc:	04058263          	beqz	a1,20000 <__getf2+0xc0>

   1ffc0:	fff00593          	li	a1,-1

   1ffc4:	0100006f          	j	1ffd4 <__getf2+0x94>

   1ffc8:	fff00593          	li	a1,-1

   1ffcc:	00068463          	beqz	a3,1ffd4 <__getf2+0x94>

   1ffd0:	00068593          	mv	a1,a3

   1ffd4:	00058513          	mv	a0,a1

   1ffd8:	00008067          	ret

   1ffdc:	00e85663          	bge	a6,a4,1ffe8 <__getf2+0xa8>

   1ffe0:	fe059ae3          	bnez	a1,1ffd4 <__getf2+0x94>

   1ffe4:	fddff06f          	j	1ffc0 <__getf2+0x80>

   1ffe8:	fc67eae3          	bltu	a5,t1,1ffbc <__getf2+0x7c>

   1ffec:	02f31263          	bne	t1,a5,20010 <__getf2+0xd0>

   1fff0:	fca666e3          	bltu	a2,a0,1ffbc <__getf2+0x7c>

   1fff4:	fec566e3          	bltu	a0,a2,1ffe0 <__getf2+0xa0>

   1fff8:	00000593          	li	a1,0

   1fffc:	fd9ff06f          	j	1ffd4 <__getf2+0x94>

   20000:	00100593          	li	a1,1

   20004:	fd1ff06f          	j	1ffd4 <__getf2+0x94>

   20008:	fe0898e3          	bnez	a7,1fff8 <__getf2+0xb8>

   2000c:	fb1ff06f          	j	1ffbc <__getf2+0x7c>

   20010:	fcf368e3          	bltu	t1,a5,1ffe0 <__getf2+0xa0>

   20014:	fe5ff06f          	j	1fff8 <__getf2+0xb8>

   20018:	f7070ce3          	beq	a4,a6,1ff90 <__getf2+0x50>

   2001c:	f8071ce3          	bnez	a4,1ffb4 <__getf2+0x74>

   20020:	00000893          	li	a7,0

   20024:	f85ff06f          	j	1ffa8 <__getf2+0x68>



0000000000020028 <__letf2>:

   20028:	002027f3          	frrm	a5

   2002c:	000088b7          	lui	a7,0x8

   20030:	0305d813          	srli	a6,a1,0x30

   20034:	fff88893          	addi	a7,a7,-1 # 7fff <register_fini-0x80b1>

   20038:	fff00793          	li	a5,-1

   2003c:	0107d793          	srli	a5,a5,0x10

   20040:	0306d713          	srli	a4,a3,0x30

   20044:	01187833          	and	a6,a6,a7

   20048:	00f5f333          	and	t1,a1,a5

   2004c:	01177733          	and	a4,a4,a7

   20050:	00f6f7b3          	and	a5,a3,a5

   20054:	03f5d593          	srli	a1,a1,0x3f

   20058:	03f6d693          	srli	a3,a3,0x3f

   2005c:	01181c63          	bne	a6,a7,20074 <__letf2+0x4c>

   20060:	00a368b3          	or	a7,t1,a0

   20064:	08088e63          	beqz	a7,20100 <__letf2+0xd8>

   20068:	00186073          	csrsi	fflags,16

   2006c:	00200593          	li	a1,2

   20070:	04c0006f          	j	200bc <__letf2+0x94>

   20074:	01171663          	bne	a4,a7,20080 <__letf2+0x58>

   20078:	00c7e8b3          	or	a7,a5,a2

   2007c:	fe0896e3          	bnez	a7,20068 <__letf2+0x40>

   20080:	08081263          	bnez	a6,20104 <__letf2+0xdc>

   20084:	00a368b3          	or	a7,t1,a0

   20088:	0018b893          	seqz	a7,a7

   2008c:	00071663          	bnez	a4,20098 <__letf2+0x70>

   20090:	00c7ee33          	or	t3,a5,a2

   20094:	040e0e63          	beqz	t3,200f0 <__letf2+0xc8>

   20098:	00089c63          	bnez	a7,200b0 <__letf2+0x88>

   2009c:	00d59463          	bne	a1,a3,200a4 <__letf2+0x7c>

   200a0:	03075263          	bge	a4,a6,200c4 <__letf2+0x9c>

   200a4:	04058263          	beqz	a1,200e8 <__letf2+0xc0>

   200a8:	fff00593          	li	a1,-1

   200ac:	0100006f          	j	200bc <__letf2+0x94>

   200b0:	fff00593          	li	a1,-1

   200b4:	00068463          	beqz	a3,200bc <__letf2+0x94>

   200b8:	00068593          	mv	a1,a3

   200bc:	00058513          	mv	a0,a1

   200c0:	00008067          	ret

   200c4:	00e85663          	bge	a6,a4,200d0 <__letf2+0xa8>

   200c8:	fe059ae3          	bnez	a1,200bc <__letf2+0x94>

   200cc:	fddff06f          	j	200a8 <__letf2+0x80>

   200d0:	fc67eae3          	bltu	a5,t1,200a4 <__letf2+0x7c>

   200d4:	02f31263          	bne	t1,a5,200f8 <__letf2+0xd0>

   200d8:	fca666e3          	bltu	a2,a0,200a4 <__letf2+0x7c>

   200dc:	fec566e3          	bltu	a0,a2,200c8 <__letf2+0xa0>

   200e0:	00000593          	li	a1,0

   200e4:	fd9ff06f          	j	200bc <__letf2+0x94>

   200e8:	00100593          	li	a1,1

   200ec:	fd1ff06f          	j	200bc <__letf2+0x94>

   200f0:	fe0898e3          	bnez	a7,200e0 <__letf2+0xb8>

   200f4:	fb1ff06f          	j	200a4 <__letf2+0x7c>

   200f8:	fcf368e3          	bltu	t1,a5,200c8 <__letf2+0xa0>

   200fc:	fe5ff06f          	j	200e0 <__letf2+0xb8>

   20100:	f7070ce3          	beq	a4,a6,20078 <__letf2+0x50>

   20104:	f8071ce3          	bnez	a4,2009c <__letf2+0x74>

   20108:	00000893          	li	a7,0

   2010c:	f85ff06f          	j	20090 <__letf2+0x68>



0000000000020110 <__multf3>:

   20110:	fa010113          	addi	sp,sp,-96

   20114:	03613023          	sd	s6,32(sp)

   20118:	01913423          	sd	s9,8(sp)

   2011c:	04113c23          	sd	ra,88(sp)

   20120:	04813823          	sd	s0,80(sp)

   20124:	04913423          	sd	s1,72(sp)

   20128:	05213023          	sd	s2,64(sp)

   2012c:	03313c23          	sd	s3,56(sp)

   20130:	03413823          	sd	s4,48(sp)

   20134:	03513423          	sd	s5,40(sp)

   20138:	01713c23          	sd	s7,24(sp)

   2013c:	01813823          	sd	s8,16(sp)

   20140:	00060c93          	mv	s9,a2

   20144:	00068b13          	mv	s6,a3

   20148:	002029f3          	frrm	s3

   2014c:	00008737          	lui	a4,0x8

   20150:	0305da93          	srli	s5,a1,0x30

   20154:	fff70713          	addi	a4,a4,-1 # 7fff <register_fini-0x80b1>

   20158:	01059913          	slli	s2,a1,0x10

   2015c:	00eaf7b3          	and	a5,s5,a4

   20160:	0009899b          	sext.w	s3,s3

   20164:	01095913          	srli	s2,s2,0x10

   20168:	03f5db93          	srli	s7,a1,0x3f

   2016c:	04078263          	beqz	a5,201b0 <__multf3+0xa0>

   20170:	00078a9b          	sext.w	s5,a5

   20174:	00050a13          	mv	s4,a0

   20178:	0aea8863          	beq	s5,a4,20228 <__multf3+0x118>

   2017c:	00391913          	slli	s2,s2,0x3

   20180:	03d55713          	srli	a4,a0,0x3d

   20184:	01276733          	or	a4,a4,s2

   20188:	ffffcab7          	lui	s5,0xffffc

   2018c:	00100913          	li	s2,1

   20190:	03391913          	slli	s2,s2,0x33

   20194:	001a8a93          	addi	s5,s5,1 # ffffffffffffc001 <__BSS_END__+0xfffffffffffd7541>

   20198:	01276933          	or	s2,a4,s2

   2019c:	00351a13          	slli	s4,a0,0x3

   201a0:	01578ab3          	add	s5,a5,s5

   201a4:	00000c13          	li	s8,0

   201a8:	00000493          	li	s1,0

   201ac:	0940006f          	j	20240 <__multf3+0x130>

   201b0:	00a967b3          	or	a5,s2,a0

   201b4:	00050413          	mv	s0,a0

   201b8:	10078e63          	beqz	a5,202d4 <__multf3+0x1c4>

   201bc:	04090663          	beqz	s2,20208 <__multf3+0xf8>

   201c0:	00090513          	mv	a0,s2

   201c4:	914f00ef          	jal	ra,102d8 <__clzdi2>

   201c8:	0005051b          	sext.w	a0,a0

   201cc:	ff150713          	addi	a4,a0,-15

   201d0:	03c00693          	li	a3,60

   201d4:	0007079b          	sext.w	a5,a4

   201d8:	04e6c063          	blt	a3,a4,20218 <__multf3+0x108>

   201dc:	03d00713          	li	a4,61

   201e0:	00378a1b          	addiw	s4,a5,3

   201e4:	40f707bb          	subw	a5,a4,a5

   201e8:	01491933          	sll	s2,s2,s4

   201ec:	00f457b3          	srl	a5,s0,a5

   201f0:	0127e933          	or	s2,a5,s2

   201f4:	01441a33          	sll	s4,s0,s4

   201f8:	ffffcab7          	lui	s5,0xffffc

   201fc:	011a8a93          	addi	s5,s5,17 # ffffffffffffc011 <__BSS_END__+0xfffffffffffd7551>

   20200:	40aa8ab3          	sub	s5,s5,a0

   20204:	fa1ff06f          	j	201a4 <__multf3+0x94>

   20208:	8d0f00ef          	jal	ra,102d8 <__clzdi2>

   2020c:	0005051b          	sext.w	a0,a0

   20210:	04050513          	addi	a0,a0,64

   20214:	fb9ff06f          	j	201cc <__multf3+0xbc>

   20218:	fc37891b          	addiw	s2,a5,-61

   2021c:	01241933          	sll	s2,s0,s2

   20220:	00000a13          	li	s4,0

   20224:	fd5ff06f          	j	201f8 <__multf3+0xe8>

   20228:	00a967b3          	or	a5,s2,a0

   2022c:	0a078e63          	beqz	a5,202e8 <__multf3+0x1d8>

   20230:	01091793          	slli	a5,s2,0x10

   20234:	00300c13          	li	s8,3

   20238:	01000493          	li	s1,16

   2023c:	f607c6e3          	bltz	a5,201a8 <__multf3+0x98>

   20240:	00008637          	lui	a2,0x8

   20244:	030b5513          	srli	a0,s6,0x30

   20248:	fff60613          	addi	a2,a2,-1 # 7fff <register_fini-0x80b1>

   2024c:	010b1413          	slli	s0,s6,0x10

   20250:	00c57733          	and	a4,a0,a2

   20254:	000c8793          	mv	a5,s9

   20258:	01045413          	srli	s0,s0,0x10

   2025c:	03fb5b13          	srli	s6,s6,0x3f

   20260:	08070c63          	beqz	a4,202f8 <__multf3+0x1e8>

   20264:	0007051b          	sext.w	a0,a4

   20268:	10c50463          	beq	a0,a2,20370 <__multf3+0x260>

   2026c:	00341413          	slli	s0,s0,0x3

   20270:	03dcd693          	srli	a3,s9,0x3d

   20274:	0086e6b3          	or	a3,a3,s0

   20278:	ffffc537          	lui	a0,0xffffc

   2027c:	00100413          	li	s0,1

   20280:	03341413          	slli	s0,s0,0x33

   20284:	00150513          	addi	a0,a0,1 # ffffffffffffc001 <__BSS_END__+0xfffffffffffd7541>

   20288:	0086e433          	or	s0,a3,s0

   2028c:	003c9793          	slli	a5,s9,0x3

   20290:	00a70533          	add	a0,a4,a0

   20294:	00000713          	li	a4,0

   20298:	002c1693          	slli	a3,s8,0x2

   2029c:	00e6e6b3          	or	a3,a3,a4

   202a0:	01550ab3          	add	s5,a0,s5

   202a4:	fff68693          	addi	a3,a3,-1

   202a8:	00e00613          	li	a2,14

   202ac:	016bc833          	xor	a6,s7,s6

   202b0:	001a8313          	addi	t1,s5,1

   202b4:	16d66c63          	bltu	a2,a3,2042c <__multf3+0x31c>

   202b8:	00002617          	auipc	a2,0x2

   202bc:	5c860613          	addi	a2,a2,1480 # 22880 <zeroes.4503+0x88>

   202c0:	00269693          	slli	a3,a3,0x2

   202c4:	00c686b3          	add	a3,a3,a2

   202c8:	0006a683          	lw	a3,0(a3)

   202cc:	00c686b3          	add	a3,a3,a2

   202d0:	00068067          	jr	a3

   202d4:	00000913          	li	s2,0

   202d8:	00000a13          	li	s4,0

   202dc:	00000a93          	li	s5,0

   202e0:	00100c13          	li	s8,1

   202e4:	ec5ff06f          	j	201a8 <__multf3+0x98>

   202e8:	00000913          	li	s2,0

   202ec:	00000a13          	li	s4,0

   202f0:	00200c13          	li	s8,2

   202f4:	eb5ff06f          	j	201a8 <__multf3+0x98>

   202f8:	019467b3          	or	a5,s0,s9

   202fc:	08078863          	beqz	a5,2038c <__multf3+0x27c>

   20300:	04040663          	beqz	s0,2034c <__multf3+0x23c>

   20304:	00040513          	mv	a0,s0

   20308:	fd1ef0ef          	jal	ra,102d8 <__clzdi2>

   2030c:	0005051b          	sext.w	a0,a0

   20310:	ff150793          	addi	a5,a0,-15

   20314:	03c00693          	li	a3,60

   20318:	0007871b          	sext.w	a4,a5

   2031c:	04f6c263          	blt	a3,a5,20360 <__multf3+0x250>

   20320:	03d00693          	li	a3,61

   20324:	0037079b          	addiw	a5,a4,3

   20328:	40e6873b          	subw	a4,a3,a4

   2032c:	00f41433          	sll	s0,s0,a5

   20330:	00ecd733          	srl	a4,s9,a4

   20334:	00876433          	or	s0,a4,s0

   20338:	00fc97b3          	sll	a5,s9,a5

   2033c:	ffffc737          	lui	a4,0xffffc

   20340:	01170713          	addi	a4,a4,17 # ffffffffffffc011 <__BSS_END__+0xfffffffffffd7551>

   20344:	40a70533          	sub	a0,a4,a0

   20348:	f4dff06f          	j	20294 <__multf3+0x184>

   2034c:	000c8513          	mv	a0,s9

   20350:	f89ef0ef          	jal	ra,102d8 <__clzdi2>

   20354:	0005051b          	sext.w	a0,a0

   20358:	04050513          	addi	a0,a0,64

   2035c:	fb5ff06f          	j	20310 <__multf3+0x200>

   20360:	fc37041b          	addiw	s0,a4,-61

   20364:	008c9433          	sll	s0,s9,s0

   20368:	00000793          	li	a5,0

   2036c:	fd1ff06f          	j	2033c <__multf3+0x22c>

   20370:	01946733          	or	a4,s0,s9

   20374:	02070663          	beqz	a4,203a0 <__multf3+0x290>

   20378:	01041713          	slli	a4,s0,0x10

   2037c:	02074a63          	bltz	a4,203b0 <__multf3+0x2a0>

   20380:	00300713          	li	a4,3

   20384:	01000493          	li	s1,16

   20388:	f11ff06f          	j	20298 <__multf3+0x188>

   2038c:	00000413          	li	s0,0

   20390:	00000793          	li	a5,0

   20394:	00000513          	li	a0,0

   20398:	00100713          	li	a4,1

   2039c:	efdff06f          	j	20298 <__multf3+0x188>

   203a0:	00000413          	li	s0,0

   203a4:	00000793          	li	a5,0

   203a8:	00200713          	li	a4,2

   203ac:	eedff06f          	j	20298 <__multf3+0x188>

   203b0:	00300713          	li	a4,3

   203b4:	ee5ff06f          	j	20298 <__multf3+0x188>

   203b8:	00100413          	li	s0,1

   203bc:	000085b7          	lui	a1,0x8

   203c0:	02f41413          	slli	s0,s0,0x2f

   203c4:	00000513          	li	a0,0

   203c8:	fff58593          	addi	a1,a1,-1 # 7fff <register_fini-0x80b1>

   203cc:	00000813          	li	a6,0

   203d0:	01000493          	li	s1,16

   203d4:	01041413          	slli	s0,s0,0x10

   203d8:	03159593          	slli	a1,a1,0x31

   203dc:	0015d593          	srli	a1,a1,0x1

   203e0:	01045413          	srli	s0,s0,0x10

   203e4:	03f81813          	slli	a6,a6,0x3f

   203e8:	00b46433          	or	s0,s0,a1

   203ec:	010465b3          	or	a1,s0,a6

   203f0:	00048463          	beqz	s1,203f8 <__multf3+0x2e8>

   203f4:	0014a073          	csrs	fflags,s1

   203f8:	05813083          	ld	ra,88(sp)

   203fc:	05013403          	ld	s0,80(sp)

   20400:	04813483          	ld	s1,72(sp)

   20404:	04013903          	ld	s2,64(sp)

   20408:	03813983          	ld	s3,56(sp)

   2040c:	03013a03          	ld	s4,48(sp)

   20410:	02813a83          	ld	s5,40(sp)

   20414:	02013b03          	ld	s6,32(sp)

   20418:	01813b83          	ld	s7,24(sp)

   2041c:	01013c03          	ld	s8,16(sp)

   20420:	00813c83          	ld	s9,8(sp)

   20424:	06010113          	addi	sp,sp,96

   20428:	00008067          	ret

   2042c:	fff00713          	li	a4,-1

   20430:	01490bb3          	add	s7,s2,s4

   20434:	008783b3          	add	t2,a5,s0

   20438:	02075713          	srli	a4,a4,0x20

   2043c:	014bbfb3          	sltu	t6,s7,s4

   20440:	00f3b2b3          	sltu	t0,t2,a5

   20444:	020a5c13          	srli	s8,s4,0x20

   20448:	0207df13          	srli	t5,a5,0x20

   2044c:	00ea7a33          	and	s4,s4,a4

   20450:	00e7f7b3          	and	a5,a5,a4

   20454:	000f8e9b          	sext.w	t4,t6

   20458:	00028b1b          	sext.w	s6,t0

   2045c:	000a0513          	mv	a0,s4

   20460:	00078593          	mv	a1,a5

   20464:	5b0010ef          	jal	ra,21a14 <__muldi3>

   20468:	00050e13          	mv	t3,a0

   2046c:	000f0593          	mv	a1,t5

   20470:	000a0513          	mv	a0,s4

   20474:	5a0010ef          	jal	ra,21a14 <__muldi3>

   20478:	00050893          	mv	a7,a0

   2047c:	00078593          	mv	a1,a5

   20480:	000c0513          	mv	a0,s8

   20484:	590010ef          	jal	ra,21a14 <__muldi3>

   20488:	00050713          	mv	a4,a0

   2048c:	000f0593          	mv	a1,t5

   20490:	000c0513          	mv	a0,s8

   20494:	580010ef          	jal	ra,21a14 <__muldi3>

   20498:	020e5793          	srli	a5,t3,0x20

   2049c:	00e888b3          	add	a7,a7,a4

   204a0:	011787b3          	add	a5,a5,a7

   204a4:	00e7f863          	bgeu	a5,a4,204b4 <__multf3+0x3a4>

   204a8:	00100713          	li	a4,1

   204ac:	02071713          	slli	a4,a4,0x20

   204b0:	00e50533          	add	a0,a0,a4

   204b4:	fff00713          	li	a4,-1

   204b8:	02075713          	srli	a4,a4,0x20

   204bc:	00e7f8b3          	and	a7,a5,a4

   204c0:	00ee7e33          	and	t3,t3,a4

   204c4:	00ebfc33          	and	s8,s7,a4

   204c8:	0207df13          	srli	t5,a5,0x20

   204cc:	00e3f733          	and	a4,t2,a4

   204d0:	02089893          	slli	a7,a7,0x20

   204d4:	00af0f33          	add	t5,t5,a0

   204d8:	01c888b3          	add	a7,a7,t3

   204dc:	020bda13          	srli	s4,s7,0x20

   204e0:	0203d793          	srli	a5,t2,0x20

   204e4:	000c0513          	mv	a0,s8

   204e8:	00070593          	mv	a1,a4

   204ec:	528010ef          	jal	ra,21a14 <__muldi3>

   204f0:	00050e13          	mv	t3,a0

   204f4:	00078593          	mv	a1,a5

   204f8:	000c0513          	mv	a0,s8

   204fc:	518010ef          	jal	ra,21a14 <__muldi3>

   20500:	00050c93          	mv	s9,a0

   20504:	00070593          	mv	a1,a4

   20508:	000a0513          	mv	a0,s4

   2050c:	508010ef          	jal	ra,21a14 <__muldi3>

   20510:	00050713          	mv	a4,a0

   20514:	00078593          	mv	a1,a5

   20518:	000a0513          	mv	a0,s4

   2051c:	4f8010ef          	jal	ra,21a14 <__muldi3>

   20520:	020e5693          	srli	a3,t3,0x20

   20524:	00ec8cb3          	add	s9,s9,a4

   20528:	019686b3          	add	a3,a3,s9

   2052c:	00050c13          	mv	s8,a0

   20530:	00e6f863          	bgeu	a3,a4,20540 <__multf3+0x430>

   20534:	00100793          	li	a5,1

   20538:	02079793          	slli	a5,a5,0x20

   2053c:	00f50c33          	add	s8,a0,a5

   20540:	fff00593          	li	a1,-1

   20544:	0205d593          	srli	a1,a1,0x20

   20548:	0206da13          	srli	s4,a3,0x20

   2054c:	00b6f6b3          	and	a3,a3,a1

   20550:	02069693          	slli	a3,a3,0x20

   20554:	00be7e33          	and	t3,t3,a1

   20558:	02095713          	srli	a4,s2,0x20

   2055c:	02045793          	srli	a5,s0,0x20

   20560:	00b97933          	and	s2,s2,a1

   20564:	00b47433          	and	s0,s0,a1

   20568:	01c68e33          	add	t3,a3,t3

   2056c:	00090513          	mv	a0,s2

   20570:	00040593          	mv	a1,s0

   20574:	4a0010ef          	jal	ra,21a14 <__muldi3>

   20578:	00050c93          	mv	s9,a0

   2057c:	00078593          	mv	a1,a5

   20580:	00090513          	mv	a0,s2

   20584:	490010ef          	jal	ra,21a14 <__muldi3>

   20588:	00050913          	mv	s2,a0

   2058c:	00040593          	mv	a1,s0

   20590:	00070513          	mv	a0,a4

   20594:	480010ef          	jal	ra,21a14 <__muldi3>

   20598:	00050413          	mv	s0,a0

   2059c:	00078593          	mv	a1,a5

   205a0:	00070513          	mv	a0,a4

   205a4:	470010ef          	jal	ra,21a14 <__muldi3>

   205a8:	020cd613          	srli	a2,s9,0x20

   205ac:	00890933          	add	s2,s2,s0

   205b0:	01260633          	add	a2,a2,s2

   205b4:	00867863          	bgeu	a2,s0,205c4 <__multf3+0x4b4>

   205b8:	00100793          	li	a5,1

   205bc:	02079793          	slli	a5,a5,0x20

   205c0:	00f50533          	add	a0,a0,a5

   205c4:	02065693          	srli	a3,a2,0x20

   205c8:	00a687b3          	add	a5,a3,a0

   205cc:	fff00693          	li	a3,-1

   205d0:	0206d693          	srli	a3,a3,0x20

   205d4:	00d67733          	and	a4,a2,a3

   205d8:	00dcfcb3          	and	s9,s9,a3

   205dc:	01ee06b3          	add	a3,t3,t5

   205e0:	01e6b633          	sltu	a2,a3,t5

   205e4:	00ca0533          	add	a0,s4,a2

   205e8:	416005b3          	neg	a1,s6

   205ec:	01850533          	add	a0,a0,s8

   205f0:	0175f5b3          	and	a1,a1,s7

   205f4:	41d00eb3          	neg	t4,t4

   205f8:	00a585b3          	add	a1,a1,a0

   205fc:	00c53633          	sltu	a2,a0,a2

   20600:	007ef3b3          	and	t2,t4,t2

   20604:	005ff433          	and	s0,t6,t0

   20608:	00b383b3          	add	t2,t2,a1

   2060c:	00a5b533          	sltu	a0,a1,a0

   20610:	00860433          	add	s0,a2,s0

   20614:	00a40433          	add	s0,s0,a0

   20618:	00b3b5b3          	sltu	a1,t2,a1

   2061c:	00b40433          	add	s0,s0,a1

   20620:	411685b3          	sub	a1,a3,a7

   20624:	41e38633          	sub	a2,t2,t5

   20628:	00b6b533          	sltu	a0,a3,a1

   2062c:	02071713          	slli	a4,a4,0x20

   20630:	00c3be33          	sltu	t3,t2,a2

   20634:	01970733          	add	a4,a4,s9

   20638:	40a60633          	sub	a2,a2,a0

   2063c:	00000513          	li	a0,0

   20640:	00b6f663          	bgeu	a3,a1,2064c <__multf3+0x53c>

   20644:	407f03b3          	sub	t2,t5,t2

   20648:	0013b513          	seqz	a0,t2

   2064c:	01c563b3          	or	t2,a0,t3

   20650:	40e58533          	sub	a0,a1,a4

   20654:	40f606b3          	sub	a3,a2,a5

   20658:	00f40433          	add	s0,s0,a5

   2065c:	00a5b7b3          	sltu	a5,a1,a0

   20660:	00d63633          	sltu	a2,a2,a3

   20664:	40f707b3          	sub	a5,a4,a5

   20668:	00000e13          	li	t3,0

   2066c:	00a5f463          	bgeu	a1,a0,20674 <__multf3+0x564>

   20670:	0016be13          	seqz	t3,a3

   20674:	00f686b3          	add	a3,a3,a5

   20678:	00e6b733          	sltu	a4,a3,a4

   2067c:	00870433          	add	s0,a4,s0

   20680:	40740433          	sub	s0,s0,t2

   20684:	00ce6633          	or	a2,t3,a2

   20688:	40c40433          	sub	s0,s0,a2

   2068c:	0336d793          	srli	a5,a3,0x33

   20690:	00d41413          	slli	s0,s0,0xd

   20694:	00f46433          	or	s0,s0,a5

   20698:	00d51793          	slli	a5,a0,0xd

   2069c:	0117e7b3          	or	a5,a5,a7

   206a0:	00f037b3          	snez	a5,a5

   206a4:	03355513          	srli	a0,a0,0x33

   206a8:	00a7e7b3          	or	a5,a5,a0

   206ac:	00d69693          	slli	a3,a3,0xd

   206b0:	00b41713          	slli	a4,s0,0xb

   206b4:	00d7e7b3          	or	a5,a5,a3

   206b8:	0a075463          	bgez	a4,20760 <__multf3+0x650>

   206bc:	0017d713          	srli	a4,a5,0x1

   206c0:	0017f793          	andi	a5,a5,1

   206c4:	03f41513          	slli	a0,s0,0x3f

   206c8:	00f767b3          	or	a5,a4,a5

   206cc:	00a7e7b3          	or	a5,a5,a0

   206d0:	00145413          	srli	s0,s0,0x1

   206d4:	000045b7          	lui	a1,0x4

   206d8:	fff58593          	addi	a1,a1,-1 # 3fff <register_fini-0xc0b1>

   206dc:	00b305b3          	add	a1,t1,a1

   206e0:	12b05063          	blez	a1,20800 <__multf3+0x6f0>

   206e4:	0077f713          	andi	a4,a5,7

   206e8:	08070863          	beqz	a4,20778 <__multf3+0x668>

   206ec:	00200713          	li	a4,2

   206f0:	0014e493          	ori	s1,s1,1

   206f4:	08e98063          	beq	s3,a4,20774 <__multf3+0x664>

   206f8:	00300713          	li	a4,3

   206fc:	06e98663          	beq	s3,a4,20768 <__multf3+0x658>

   20700:	06099c63          	bnez	s3,20778 <__multf3+0x668>

   20704:	00f7f713          	andi	a4,a5,15

   20708:	00400693          	li	a3,4

   2070c:	06d70663          	beq	a4,a3,20778 <__multf3+0x668>

   20710:	00478713          	addi	a4,a5,4

   20714:	00f737b3          	sltu	a5,a4,a5

   20718:	00f40433          	add	s0,s0,a5

   2071c:	00070793          	mv	a5,a4

   20720:	0580006f          	j	20778 <__multf3+0x668>

   20724:	000b8813          	mv	a6,s7

   20728:	00090413          	mv	s0,s2

   2072c:	000a0793          	mv	a5,s4

   20730:	000c0713          	mv	a4,s8

   20734:	00200693          	li	a3,2

   20738:	28d70c63          	beq	a4,a3,209d0 <__multf3+0x8c0>

   2073c:	00300693          	li	a3,3

   20740:	2ad70263          	beq	a4,a3,209e4 <__multf3+0x8d4>

   20744:	00100693          	li	a3,1

   20748:	f8d716e3          	bne	a4,a3,206d4 <__multf3+0x5c4>

   2074c:	00000413          	li	s0,0

   20750:	00000513          	li	a0,0

   20754:	2680006f          	j	209bc <__multf3+0x8ac>

   20758:	000b0813          	mv	a6,s6

   2075c:	fd9ff06f          	j	20734 <__multf3+0x624>

   20760:	000a8313          	mv	t1,s5

   20764:	f71ff06f          	j	206d4 <__multf3+0x5c4>

   20768:	00081863          	bnez	a6,20778 <__multf3+0x668>

   2076c:	00878713          	addi	a4,a5,8

   20770:	fa5ff06f          	j	20714 <__multf3+0x604>

   20774:	fe081ce3          	bnez	a6,2076c <__multf3+0x65c>

   20778:	00b41713          	slli	a4,s0,0xb

   2077c:	00075e63          	bgez	a4,20798 <__multf3+0x688>

   20780:	fff00713          	li	a4,-1

   20784:	03471713          	slli	a4,a4,0x34

   20788:	fff70713          	addi	a4,a4,-1

   2078c:	000045b7          	lui	a1,0x4

   20790:	00e47433          	and	s0,s0,a4

   20794:	00b305b3          	add	a1,t1,a1

   20798:	00008737          	lui	a4,0x8

   2079c:	ffe70693          	addi	a3,a4,-2 # 7ffe <register_fini-0x80b2>

   207a0:	00b6cc63          	blt	a3,a1,207b8 <__multf3+0x6a8>

   207a4:	0037d513          	srli	a0,a5,0x3

   207a8:	03d41793          	slli	a5,s0,0x3d

   207ac:	00a7e533          	or	a0,a5,a0

   207b0:	00345413          	srli	s0,s0,0x3

   207b4:	c21ff06f          	j	203d4 <__multf3+0x2c4>

   207b8:	00200793          	li	a5,2

   207bc:	02f98a63          	beq	s3,a5,207f0 <__multf3+0x6e0>

   207c0:	00300793          	li	a5,3

   207c4:	fff70593          	addi	a1,a4,-1

   207c8:	00f98e63          	beq	s3,a5,207e4 <__multf3+0x6d4>

   207cc:	00098e63          	beqz	s3,207e8 <__multf3+0x6d8>

   207d0:	fff00513          	li	a0,-1

   207d4:	00068593          	mv	a1,a3

   207d8:	0054e493          	ori	s1,s1,5

   207dc:	00050413          	mv	s0,a0

   207e0:	bf5ff06f          	j	203d4 <__multf3+0x2c4>

   207e4:	fe0816e3          	bnez	a6,207d0 <__multf3+0x6c0>

   207e8:	00000513          	li	a0,0

   207ec:	fedff06f          	j	207d8 <__multf3+0x6c8>

   207f0:	fe0800e3          	beqz	a6,207d0 <__multf3+0x6c0>

   207f4:	00000513          	li	a0,0

   207f8:	fff70593          	addi	a1,a4,-1

   207fc:	fddff06f          	j	207d8 <__multf3+0x6c8>

   20800:	00100693          	li	a3,1

   20804:	06059663          	bnez	a1,20870 <__multf3+0x760>

   20808:	0077f693          	andi	a3,a5,7

   2080c:	00040713          	mv	a4,s0

   20810:	04068a63          	beqz	a3,20864 <__multf3+0x754>

   20814:	00200713          	li	a4,2

   20818:	0014e493          	ori	s1,s1,1

   2081c:	04e98063          	beq	s3,a4,2085c <__multf3+0x74c>

   20820:	00300713          	li	a4,3

   20824:	02e98463          	beq	s3,a4,2084c <__multf3+0x73c>

   20828:	00040713          	mv	a4,s0

   2082c:	02099c63          	bnez	s3,20864 <__multf3+0x754>

   20830:	00f7f693          	andi	a3,a5,15

   20834:	00400613          	li	a2,4

   20838:	02c68663          	beq	a3,a2,20864 <__multf3+0x754>

   2083c:	ffc7b713          	sltiu	a4,a5,-4

   20840:	00174713          	xori	a4,a4,1

   20844:	00e40733          	add	a4,s0,a4

   20848:	01c0006f          	j	20864 <__multf3+0x754>

   2084c:	00040713          	mv	a4,s0

   20850:	00081a63          	bnez	a6,20864 <__multf3+0x754>

   20854:	ff87b713          	sltiu	a4,a5,-8

   20858:	fe9ff06f          	j	20840 <__multf3+0x730>

   2085c:	00040713          	mv	a4,s0

   20860:	fe081ae3          	bnez	a6,20854 <__multf3+0x744>

   20864:	03475693          	srli	a3,a4,0x34

   20868:	0016c693          	xori	a3,a3,1

   2086c:	0016f693          	andi	a3,a3,1

   20870:	00100713          	li	a4,1

   20874:	40b705b3          	sub	a1,a4,a1

   20878:	07400713          	li	a4,116

   2087c:	10b74063          	blt	a4,a1,2097c <__multf3+0x86c>

   20880:	03f00613          	li	a2,63

   20884:	0005871b          	sext.w	a4,a1

   20888:	06b64463          	blt	a2,a1,208f0 <__multf3+0x7e0>

   2088c:	04000613          	li	a2,64

   20890:	40e6063b          	subw	a2,a2,a4

   20894:	00c41533          	sll	a0,s0,a2

   20898:	00e7d5b3          	srl	a1,a5,a4

   2089c:	00c797b3          	sll	a5,a5,a2

   208a0:	00b56533          	or	a0,a0,a1

   208a4:	00f037b3          	snez	a5,a5

   208a8:	00f56533          	or	a0,a0,a5

   208ac:	00e45433          	srl	s0,s0,a4

   208b0:	00757793          	andi	a5,a0,7

   208b4:	08078063          	beqz	a5,20934 <__multf3+0x824>

   208b8:	00200793          	li	a5,2

   208bc:	0014e493          	ori	s1,s1,1

   208c0:	06f98863          	beq	s3,a5,20930 <__multf3+0x820>

   208c4:	00300793          	li	a5,3

   208c8:	04f98e63          	beq	s3,a5,20924 <__multf3+0x814>

   208cc:	06099463          	bnez	s3,20934 <__multf3+0x824>

   208d0:	00f57793          	andi	a5,a0,15

   208d4:	00400713          	li	a4,4

   208d8:	04e78e63          	beq	a5,a4,20934 <__multf3+0x824>

   208dc:	00450793          	addi	a5,a0,4

   208e0:	00a7b533          	sltu	a0,a5,a0

   208e4:	00a40433          	add	s0,s0,a0

   208e8:	00078513          	mv	a0,a5

   208ec:	0480006f          	j	20934 <__multf3+0x824>

   208f0:	fc07051b          	addiw	a0,a4,-64

   208f4:	04000893          	li	a7,64

   208f8:	00a45533          	srl	a0,s0,a0

   208fc:	00000613          	li	a2,0

   20900:	01158863          	beq	a1,a7,20910 <__multf3+0x800>

   20904:	08000613          	li	a2,128

   20908:	40e6073b          	subw	a4,a2,a4

   2090c:	00e41633          	sll	a2,s0,a4

   20910:	00f667b3          	or	a5,a2,a5

   20914:	00f037b3          	snez	a5,a5

   20918:	00f56533          	or	a0,a0,a5

   2091c:	00000413          	li	s0,0

   20920:	f91ff06f          	j	208b0 <__multf3+0x7a0>

   20924:	00081863          	bnez	a6,20934 <__multf3+0x824>

   20928:	00850793          	addi	a5,a0,8

   2092c:	fb5ff06f          	j	208e0 <__multf3+0x7d0>

   20930:	fe081ce3          	bnez	a6,20928 <__multf3+0x818>

   20934:	00c41793          	slli	a5,s0,0xc

   20938:	0207d063          	bgez	a5,20958 <__multf3+0x848>

   2093c:	0014e493          	ori	s1,s1,1

   20940:	00000413          	li	s0,0

   20944:	00000513          	li	a0,0

   20948:	00100593          	li	a1,1

   2094c:	a80684e3          	beqz	a3,203d4 <__multf3+0x2c4>

   20950:	0024e493          	ori	s1,s1,2

   20954:	a81ff06f          	j	203d4 <__multf3+0x2c4>

   20958:	03d41793          	slli	a5,s0,0x3d

   2095c:	00355513          	srli	a0,a0,0x3

   20960:	00a7e533          	or	a0,a5,a0

   20964:	00345413          	srli	s0,s0,0x3

   20968:	00000593          	li	a1,0

   2096c:	a60684e3          	beqz	a3,203d4 <__multf3+0x2c4>

   20970:	0014f793          	andi	a5,s1,1

   20974:	a60780e3          	beqz	a5,203d4 <__multf3+0x2c4>

   20978:	fd9ff06f          	j	20950 <__multf3+0x840>

   2097c:	0087e533          	or	a0,a5,s0

   20980:	02050a63          	beqz	a0,209b4 <__multf3+0x8a4>

   20984:	00200793          	li	a5,2

   20988:	0014e493          	ori	s1,s1,1

   2098c:	02f98c63          	beq	s3,a5,209c4 <__multf3+0x8b4>

   20990:	00300793          	li	a5,3

   20994:	00f98a63          	beq	s3,a5,209a8 <__multf3+0x898>

   20998:	00500793          	li	a5,5

   2099c:	00098a63          	beqz	s3,209b0 <__multf3+0x8a0>

   209a0:	00100793          	li	a5,1

   209a4:	00c0006f          	j	209b0 <__multf3+0x8a0>

   209a8:	00900793          	li	a5,9

   209ac:	fe081ae3          	bnez	a6,209a0 <__multf3+0x890>

   209b0:	0037d513          	srli	a0,a5,0x3

   209b4:	0024e493          	ori	s1,s1,2

   209b8:	00000413          	li	s0,0

   209bc:	00000593          	li	a1,0

   209c0:	a15ff06f          	j	203d4 <__multf3+0x2c4>

   209c4:	00900793          	li	a5,9

   209c8:	fe0814e3          	bnez	a6,209b0 <__multf3+0x8a0>

   209cc:	fd5ff06f          	j	209a0 <__multf3+0x890>

   209d0:	000085b7          	lui	a1,0x8

   209d4:	00000413          	li	s0,0

   209d8:	00000513          	li	a0,0

   209dc:	fff58593          	addi	a1,a1,-1 # 7fff <register_fini-0x80b1>

   209e0:	9f5ff06f          	j	203d4 <__multf3+0x2c4>

   209e4:	00100413          	li	s0,1

   209e8:	000085b7          	lui	a1,0x8

   209ec:	02f41413          	slli	s0,s0,0x2f

   209f0:	00000513          	li	a0,0

   209f4:	fff58593          	addi	a1,a1,-1 # 7fff <register_fini-0x80b1>

   209f8:	00000813          	li	a6,0

   209fc:	9d9ff06f          	j	203d4 <__multf3+0x2c4>



0000000000020a00 <__subtf3>:

   20a00:	fd010113          	addi	sp,sp,-48

   20a04:	02113423          	sd	ra,40(sp)

   20a08:	02813023          	sd	s0,32(sp)

   20a0c:	00913c23          	sd	s1,24(sp)

   20a10:	01213823          	sd	s2,16(sp)

   20a14:	01313423          	sd	s3,8(sp)

   20a18:	01413023          	sd	s4,0(sp)

   20a1c:	002024f3          	frrm	s1

   20a20:	fff00f93          	li	t6,-1

   20a24:	010fdf93          	srli	t6,t6,0x10

   20a28:	00008f37          	lui	t5,0x8

   20a2c:	0305d893          	srli	a7,a1,0x30

   20a30:	ffff0f13          	addi	t5,t5,-1 # 7fff <register_fini-0x80b1>

   20a34:	0306d813          	srli	a6,a3,0x30

   20a38:	03f5d413          	srli	s0,a1,0x3f

   20a3c:	03f6d313          	srli	t1,a3,0x3f

   20a40:	01f5f5b3          	and	a1,a1,t6

   20a44:	01f6f6b3          	and	a3,a3,t6

   20a48:	03d55793          	srli	a5,a0,0x3d

   20a4c:	01e8f8b3          	and	a7,a7,t5

   20a50:	00359593          	slli	a1,a1,0x3

   20a54:	00351e93          	slli	t4,a0,0x3

   20a58:	00369693          	slli	a3,a3,0x3

   20a5c:	03d65513          	srli	a0,a2,0x3d

   20a60:	01e87833          	and	a6,a6,t5

   20a64:	0004849b          	sext.w	s1,s1

   20a68:	00088993          	mv	s3,a7

   20a6c:	00b7e5b3          	or	a1,a5,a1

   20a70:	00d566b3          	or	a3,a0,a3

   20a74:	00361e13          	slli	t3,a2,0x3

   20a78:	01e81663          	bne	a6,t5,20a84 <__subtf3+0x84>

   20a7c:	01c6e7b3          	or	a5,a3,t3

   20a80:	00079463          	bnez	a5,20a88 <__subtf3+0x88>

   20a84:	00134313          	xori	t1,t1,1

   20a88:	410887bb          	subw	a5,a7,a6

   20a8c:	00008537          	lui	a0,0x8

   20a90:	0007871b          	sext.w	a4,a5

   20a94:	fff50613          	addi	a2,a0,-1 # 7fff <register_fini-0x80b1>

   20a98:	3e831a63          	bne	t1,s0,20e8c <__subtf3+0x48c>

   20a9c:	12e05c63          	blez	a4,20bd4 <__subtf3+0x1d4>

   20aa0:	0a081663          	bnez	a6,20b4c <__subtf3+0x14c>

   20aa4:	01c6e733          	or	a4,a3,t3

   20aa8:	02071463          	bnez	a4,20ad0 <__subtf3+0xd0>

   20aac:	0ec890e3          	bne	a7,a2,2138c <__subtf3+0x98c>

   20ab0:	01d5ee33          	or	t3,a1,t4

   20ab4:	140e06e3          	beqz	t3,21400 <__subtf3+0xa00>

   20ab8:	00d59793          	slli	a5,a1,0xd

   20abc:	00058693          	mv	a3,a1

   20ac0:	000e8e13          	mv	t3,t4

   20ac4:	0607c263          	bltz	a5,20b28 <__subtf3+0x128>

   20ac8:	01000793          	li	a5,16

   20acc:	2700006f          	j	20d3c <__subtf3+0x33c>

   20ad0:	fff7871b          	addiw	a4,a5,-1

   20ad4:	04071e63          	bnez	a4,20b30 <__subtf3+0x130>

   20ad8:	01de0e33          	add	t3,t3,t4

   20adc:	00b686b3          	add	a3,a3,a1

   20ae0:	01de3eb3          	sltu	t4,t3,t4

   20ae4:	01d686b3          	add	a3,a3,t4

   20ae8:	00c69793          	slli	a5,a3,0xc

   20aec:	0807d8e3          	bgez	a5,2137c <__subtf3+0x97c>

   20af0:	000087b7          	lui	a5,0x8

   20af4:	00198993          	addi	s3,s3,1

   20af8:	fff78713          	addi	a4,a5,-1 # 7fff <register_fini-0x80b1>

   20afc:	34e98863          	beq	s3,a4,20e4c <__subtf3+0x44c>

   20b00:	fff00513          	li	a0,-1

   20b04:	03351513          	slli	a0,a0,0x33

   20b08:	fff50513          	addi	a0,a0,-1

   20b0c:	00a6f533          	and	a0,a3,a0

   20b10:	001e5593          	srli	a1,t3,0x1

   20b14:	001e7e13          	andi	t3,t3,1

   20b18:	03f51693          	slli	a3,a0,0x3f

   20b1c:	01c5ee33          	or	t3,a1,t3

   20b20:	01c6ee33          	or	t3,a3,t3

   20b24:	00155693          	srli	a3,a0,0x1

   20b28:	00000713          	li	a4,0

   20b2c:	2ac0006f          	j	20dd8 <__subtf3+0x3d8>

   20b30:	02c89663          	bne	a7,a2,20b5c <__subtf3+0x15c>

   20b34:	01d5ee33          	or	t3,a1,t4

   20b38:	0c0e04e3          	beqz	t3,21400 <__subtf3+0xa00>

   20b3c:	00d59793          	slli	a5,a1,0xd

   20b40:	00058693          	mv	a3,a1

   20b44:	000e8e13          	mv	t3,t4

   20b48:	0b00006f          	j	20bf8 <__subtf3+0x1f8>

   20b4c:	fec884e3          	beq	a7,a2,20b34 <__subtf3+0x134>

   20b50:	00100793          	li	a5,1

   20b54:	03379793          	slli	a5,a5,0x33

   20b58:	00f6e6b3          	or	a3,a3,a5

   20b5c:	07400793          	li	a5,116

   20b60:	06e7c463          	blt	a5,a4,20bc8 <__subtf3+0x1c8>

   20b64:	03f00793          	li	a5,63

   20b68:	02e7c663          	blt	a5,a4,20b94 <__subtf3+0x194>

   20b6c:	04000613          	li	a2,64

   20b70:	40e6063b          	subw	a2,a2,a4

   20b74:	00c697b3          	sll	a5,a3,a2

   20b78:	00ee5533          	srl	a0,t3,a4

   20b7c:	00ce1e33          	sll	t3,t3,a2

   20b80:	00a7e7b3          	or	a5,a5,a0

   20b84:	01c03e33          	snez	t3,t3

   20b88:	01c7ee33          	or	t3,a5,t3

   20b8c:	00e6d6b3          	srl	a3,a3,a4

   20b90:	f49ff06f          	j	20ad8 <__subtf3+0xd8>

   20b94:	fc07079b          	addiw	a5,a4,-64

   20b98:	04000513          	li	a0,64

   20b9c:	00f6d7b3          	srl	a5,a3,a5

   20ba0:	00000613          	li	a2,0

   20ba4:	00a70863          	beq	a4,a0,20bb4 <__subtf3+0x1b4>

   20ba8:	08000613          	li	a2,128

   20bac:	40e6073b          	subw	a4,a2,a4

   20bb0:	00e69633          	sll	a2,a3,a4

   20bb4:	01c66e33          	or	t3,a2,t3

   20bb8:	01c03e33          	snez	t3,t3

   20bbc:	01c7ee33          	or	t3,a5,t3

   20bc0:	00000693          	li	a3,0

   20bc4:	f15ff06f          	j	20ad8 <__subtf3+0xd8>

   20bc8:	01c6ee33          	or	t3,a3,t3

   20bcc:	01c03e33          	snez	t3,t3

   20bd0:	ff1ff06f          	j	20bc0 <__subtf3+0x1c0>

   20bd4:	10070a63          	beqz	a4,20ce8 <__subtf3+0x2e8>

   20bd8:	0a089263          	bnez	a7,20c7c <__subtf3+0x27c>

   20bdc:	01d5e533          	or	a0,a1,t4

   20be0:	02051263          	bnez	a0,20c04 <__subtf3+0x204>

   20be4:	00080993          	mv	s3,a6

   20be8:	78c81a63          	bne	a6,a2,2137c <__subtf3+0x97c>

   20bec:	01c6e7b3          	or	a5,a3,t3

   20bf0:	7e078863          	beqz	a5,213e0 <__subtf3+0x9e0>

   20bf4:	00d69793          	slli	a5,a3,0xd

   20bf8:	00000713          	li	a4,0

   20bfc:	1c07ce63          	bltz	a5,20dd8 <__subtf3+0x3d8>

   20c00:	ec9ff06f          	j	20ac8 <__subtf3+0xc8>

   20c04:	fff00513          	li	a0,-1

   20c08:	02a71063          	bne	a4,a0,20c28 <__subtf3+0x228>

   20c0c:	01ce8eb3          	add	t4,t4,t3

   20c10:	00d586b3          	add	a3,a1,a3

   20c14:	01cebe33          	sltu	t3,t4,t3

   20c18:	01c686b3          	add	a3,a3,t3

   20c1c:	000e8e13          	mv	t3,t4

   20c20:	00080993          	mv	s3,a6

   20c24:	ec5ff06f          	j	20ae8 <__subtf3+0xe8>

   20c28:	04c80c63          	beq	a6,a2,20c80 <__subtf3+0x280>

   20c2c:	fff7c793          	not	a5,a5

   20c30:	0007879b          	sext.w	a5,a5

   20c34:	07400713          	li	a4,116

   20c38:	0af74263          	blt	a4,a5,20cdc <__subtf3+0x2dc>

   20c3c:	03f00713          	li	a4,63

   20c40:	06f74463          	blt	a4,a5,20ca8 <__subtf3+0x2a8>

   20c44:	04000513          	li	a0,64

   20c48:	40f5053b          	subw	a0,a0,a5

   20c4c:	00fed633          	srl	a2,t4,a5

   20c50:	00a59733          	sll	a4,a1,a0

   20c54:	00ae9eb3          	sll	t4,t4,a0

   20c58:	00c76733          	or	a4,a4,a2

   20c5c:	01d03eb3          	snez	t4,t4

   20c60:	01d76eb3          	or	t4,a4,t4

   20c64:	00f5d7b3          	srl	a5,a1,a5

   20c68:	01ce8eb3          	add	t4,t4,t3

   20c6c:	00d787b3          	add	a5,a5,a3

   20c70:	01ceb6b3          	sltu	a3,t4,t3

   20c74:	00d786b3          	add	a3,a5,a3

   20c78:	fa5ff06f          	j	20c1c <__subtf3+0x21c>

   20c7c:	00c81c63          	bne	a6,a2,20c94 <__subtf3+0x294>

   20c80:	01c6e7b3          	or	a5,a3,t3

   20c84:	76078663          	beqz	a5,213f0 <__subtf3+0x9f0>

   20c88:	00d69793          	slli	a5,a3,0xd

   20c8c:	00080993          	mv	s3,a6

   20c90:	f69ff06f          	j	20bf8 <__subtf3+0x1f8>

   20c94:	00100713          	li	a4,1

   20c98:	03371713          	slli	a4,a4,0x33

   20c9c:	40f007bb          	negw	a5,a5

   20ca0:	00e5e5b3          	or	a1,a1,a4

   20ca4:	f91ff06f          	j	20c34 <__subtf3+0x234>

   20ca8:	fc07871b          	addiw	a4,a5,-64

   20cac:	04000613          	li	a2,64

   20cb0:	00e5d733          	srl	a4,a1,a4

   20cb4:	00000513          	li	a0,0

   20cb8:	00c78863          	beq	a5,a2,20cc8 <__subtf3+0x2c8>

   20cbc:	08000513          	li	a0,128

   20cc0:	40f507bb          	subw	a5,a0,a5

   20cc4:	00f59533          	sll	a0,a1,a5

   20cc8:	01d56eb3          	or	t4,a0,t4

   20ccc:	01d03eb3          	snez	t4,t4

   20cd0:	01d76eb3          	or	t4,a4,t4

   20cd4:	00000793          	li	a5,0

   20cd8:	f91ff06f          	j	20c68 <__subtf3+0x268>

   20cdc:	01d5e7b3          	or	a5,a1,t4

   20ce0:	00f03eb3          	snez	t4,a5

   20ce4:	ff1ff06f          	j	20cd4 <__subtf3+0x2d4>

   20ce8:	00188313          	addi	t1,a7,1

   20cec:	ffe50793          	addi	a5,a0,-2

   20cf0:	00f37533          	and	a0,t1,a5

   20cf4:	0a051e63          	bnez	a0,20db0 <__subtf3+0x3b0>

   20cf8:	01d5e533          	or	a0,a1,t4

   20cfc:	04089a63          	bnez	a7,20d50 <__subtf3+0x350>

   20d00:	68050063          	beqz	a0,21380 <__subtf3+0x980>

   20d04:	01c6e7b3          	or	a5,a3,t3

   20d08:	38078463          	beqz	a5,21090 <__subtf3+0x690>

   20d0c:	01de0e33          	add	t3,t3,t4

   20d10:	01de37b3          	sltu	a5,t3,t4

   20d14:	00d586b3          	add	a3,a1,a3

   20d18:	00f685b3          	add	a1,a3,a5

   20d1c:	00c59793          	slli	a5,a1,0xc

   20d20:	6607d263          	bgez	a5,21384 <__subtf3+0x984>

   20d24:	fff00693          	li	a3,-1

   20d28:	03369693          	slli	a3,a3,0x33

   20d2c:	fff68693          	addi	a3,a3,-1

   20d30:	00d5f6b3          	and	a3,a1,a3

   20d34:	00000793          	li	a5,0

   20d38:	00100993          	li	s3,1

   20d3c:	007e7613          	andi	a2,t3,7

   20d40:	0c061a63          	bnez	a2,20e14 <__subtf3+0x414>

   20d44:	48070263          	beqz	a4,211c8 <__subtf3+0x7c8>

   20d48:	0017f713          	andi	a4,a5,1

   20d4c:	6ec0006f          	j	21438 <__subtf3+0xa38>

   20d50:	04c89863          	bne	a7,a2,20da0 <__subtf3+0x3a0>

   20d54:	72050e63          	beqz	a0,21490 <__subtf3+0xa90>

   20d58:	0325d793          	srli	a5,a1,0x32

   20d5c:	0017f793          	andi	a5,a5,1

   20d60:	0017b793          	seqz	a5,a5

   20d64:	00479793          	slli	a5,a5,0x4

   20d68:	01181e63          	bne	a6,a7,20d84 <__subtf3+0x384>

   20d6c:	01c6e633          	or	a2,a3,t3

   20d70:	70060c63          	beqz	a2,21488 <__subtf3+0xa88>

   20d74:	00d69613          	slli	a2,a3,0xd

   20d78:	00064463          	bltz	a2,20d80 <__subtf3+0x380>

   20d7c:	01000793          	li	a5,16

   20d80:	00050a63          	beqz	a0,20d94 <__subtf3+0x394>

   20d84:	01c6e6b3          	or	a3,a3,t3

   20d88:	42069463          	bnez	a3,211b0 <__subtf3+0x7b0>

   20d8c:	00058693          	mv	a3,a1

   20d90:	000e8e13          	mv	t3,t4

   20d94:	000089b7          	lui	s3,0x8

   20d98:	fff98993          	addi	s3,s3,-1 # 7fff <register_fini-0x80b1>

   20d9c:	fa1ff06f          	j	20d3c <__subtf3+0x33c>

   20da0:	00000793          	li	a5,0

   20da4:	fcc81ee3          	bne	a6,a2,20d80 <__subtf3+0x380>

   20da8:	00000793          	li	a5,0

   20dac:	fc1ff06f          	j	20d6c <__subtf3+0x36c>

   20db0:	02c30863          	beq	t1,a2,20de0 <__subtf3+0x3e0>

   20db4:	01ce8e33          	add	t3,t4,t3

   20db8:	00d587b3          	add	a5,a1,a3

   20dbc:	01de36b3          	sltu	a3,t3,t4

   20dc0:	00d78eb3          	add	t4,a5,a3

   20dc4:	03fe9693          	slli	a3,t4,0x3f

   20dc8:	001e5e13          	srli	t3,t3,0x1

   20dcc:	01c6ee33          	or	t3,a3,t3

   20dd0:	00030993          	mv	s3,t1

   20dd4:	001ed693          	srli	a3,t4,0x1

   20dd8:	00000793          	li	a5,0

   20ddc:	f61ff06f          	j	20d3c <__subtf3+0x33c>

   20de0:	00048863          	beqz	s1,20df0 <__subtf3+0x3f0>

   20de4:	00300693          	li	a3,3

   20de8:	00d49863          	bne	s1,a3,20df8 <__subtf3+0x3f8>

   20dec:	00041c63          	bnez	s0,20e04 <__subtf3+0x404>

   20df0:	00030993          	mv	s3,t1

   20df4:	0680006f          	j	20e5c <__subtf3+0x45c>

   20df8:	00200693          	li	a3,2

   20dfc:	00d49463          	bne	s1,a3,20e04 <__subtf3+0x404>

   20e00:	fe0418e3          	bnez	s0,20df0 <__subtf3+0x3f0>

   20e04:	fff00693          	li	a3,-1

   20e08:	fff00e13          	li	t3,-1

   20e0c:	00078993          	mv	s3,a5

   20e10:	00500793          	li	a5,5

   20e14:	00200613          	li	a2,2

   20e18:	0017e793          	ori	a5,a5,1

   20e1c:	60c48c63          	beq	s1,a2,21434 <__subtf3+0xa34>

   20e20:	00300613          	li	a2,3

   20e24:	60c48263          	beq	s1,a2,21428 <__subtf3+0xa28>

   20e28:	60049863          	bnez	s1,21438 <__subtf3+0xa38>

   20e2c:	00fe7613          	andi	a2,t3,15

   20e30:	00400593          	li	a1,4

   20e34:	60b60263          	beq	a2,a1,21438 <__subtf3+0xa38>

   20e38:	004e0593          	addi	a1,t3,4

   20e3c:	01c5be33          	sltu	t3,a1,t3

   20e40:	01c686b3          	add	a3,a3,t3

   20e44:	00058e13          	mv	t3,a1

   20e48:	5f00006f          	j	21438 <__subtf3+0xa38>

   20e4c:	00048863          	beqz	s1,20e5c <__subtf3+0x45c>

   20e50:	00300713          	li	a4,3

   20e54:	00e49c63          	bne	s1,a4,20e6c <__subtf3+0x46c>

   20e58:	02041063          	bnez	s0,20e78 <__subtf3+0x478>

   20e5c:	00000693          	li	a3,0

   20e60:	00000e13          	li	t3,0

   20e64:	00500793          	li	a5,5

   20e68:	3600006f          	j	211c8 <__subtf3+0x7c8>

   20e6c:	00200713          	li	a4,2

   20e70:	00e49463          	bne	s1,a4,20e78 <__subtf3+0x478>

   20e74:	fe0414e3          	bnez	s0,20e5c <__subtf3+0x45c>

   20e78:	fff00693          	li	a3,-1

   20e7c:	fff00e13          	li	t3,-1

   20e80:	ffe78993          	addi	s3,a5,-2

   20e84:	00000713          	li	a4,0

   20e88:	f89ff06f          	j	20e10 <__subtf3+0x410>

   20e8c:	0ce05863          	blez	a4,20f5c <__subtf3+0x55c>

   20e90:	06081c63          	bnez	a6,20f08 <__subtf3+0x508>

   20e94:	01c6e733          	or	a4,a3,t3

   20e98:	c0070ae3          	beqz	a4,20aac <__subtf3+0xac>

   20e9c:	fff7871b          	addiw	a4,a5,-1

   20ea0:	02071663          	bnez	a4,20ecc <__subtf3+0x4cc>

   20ea4:	41ce8e33          	sub	t3,t4,t3

   20ea8:	40d586b3          	sub	a3,a1,a3

   20eac:	01cebeb3          	sltu	t4,t4,t3

   20eb0:	41d686b3          	sub	a3,a3,t4

   20eb4:	00c69793          	slli	a5,a3,0xc

   20eb8:	4c07d263          	bgez	a5,2137c <__subtf3+0x97c>

   20ebc:	00d69913          	slli	s2,a3,0xd

   20ec0:	00d95913          	srli	s2,s2,0xd

   20ec4:	000e0a13          	mv	s4,t3

   20ec8:	3d00006f          	j	21298 <__subtf3+0x898>

   20ecc:	c6c884e3          	beq	a7,a2,20b34 <__subtf3+0x134>

   20ed0:	07400793          	li	a5,116

   20ed4:	06e7ce63          	blt	a5,a4,20f50 <__subtf3+0x550>

   20ed8:	03f00793          	li	a5,63

   20edc:	04e7c063          	blt	a5,a4,20f1c <__subtf3+0x51c>

   20ee0:	04000613          	li	a2,64

   20ee4:	40e6063b          	subw	a2,a2,a4

   20ee8:	00c697b3          	sll	a5,a3,a2

   20eec:	00ee5533          	srl	a0,t3,a4

   20ef0:	00ce1e33          	sll	t3,t3,a2

   20ef4:	00a7e7b3          	or	a5,a5,a0

   20ef8:	01c03e33          	snez	t3,t3

   20efc:	01c7ee33          	or	t3,a5,t3

   20f00:	00e6d6b3          	srl	a3,a3,a4

   20f04:	fa1ff06f          	j	20ea4 <__subtf3+0x4a4>

   20f08:	c2c886e3          	beq	a7,a2,20b34 <__subtf3+0x134>

   20f0c:	00100793          	li	a5,1

   20f10:	03379793          	slli	a5,a5,0x33

   20f14:	00f6e6b3          	or	a3,a3,a5

   20f18:	fb9ff06f          	j	20ed0 <__subtf3+0x4d0>

   20f1c:	fc07079b          	addiw	a5,a4,-64

   20f20:	04000513          	li	a0,64

   20f24:	00f6d7b3          	srl	a5,a3,a5

   20f28:	00000613          	li	a2,0

   20f2c:	00a70863          	beq	a4,a0,20f3c <__subtf3+0x53c>

   20f30:	08000613          	li	a2,128

   20f34:	40e6073b          	subw	a4,a2,a4

   20f38:	00e69633          	sll	a2,a3,a4

   20f3c:	01c66e33          	or	t3,a2,t3

   20f40:	01c03e33          	snez	t3,t3

   20f44:	01c7ee33          	or	t3,a5,t3

   20f48:	00000693          	li	a3,0

   20f4c:	f59ff06f          	j	20ea4 <__subtf3+0x4a4>

   20f50:	01c6ee33          	or	t3,a3,t3

   20f54:	01c03e33          	snez	t3,t3

   20f58:	ff1ff06f          	j	20f48 <__subtf3+0x548>

   20f5c:	10070063          	beqz	a4,2105c <__subtf3+0x65c>

   20f60:	0a089263          	bnez	a7,21004 <__subtf3+0x604>

   20f64:	01d5e533          	or	a0,a1,t4

   20f68:	02051063          	bnez	a0,20f88 <__subtf3+0x588>

   20f6c:	42c81663          	bne	a6,a2,21398 <__subtf3+0x998>

   20f70:	01c6e7b3          	or	a5,a3,t3

   20f74:	48078a63          	beqz	a5,21408 <__subtf3+0xa08>

   20f78:	00d69793          	slli	a5,a3,0xd

   20f7c:	00080993          	mv	s3,a6

   20f80:	00030413          	mv	s0,t1

   20f84:	c75ff06f          	j	20bf8 <__subtf3+0x1f8>

   20f88:	fff00513          	li	a0,-1

   20f8c:	02a71263          	bne	a4,a0,20fb0 <__subtf3+0x5b0>

   20f90:	41de0eb3          	sub	t4,t3,t4

   20f94:	40b686b3          	sub	a3,a3,a1

   20f98:	01de3e33          	sltu	t3,t3,t4

   20f9c:	41c686b3          	sub	a3,a3,t3

   20fa0:	000e8e13          	mv	t3,t4

   20fa4:	00080993          	mv	s3,a6

   20fa8:	00030413          	mv	s0,t1

   20fac:	f09ff06f          	j	20eb4 <__subtf3+0x4b4>

   20fb0:	fcc800e3          	beq	a6,a2,20f70 <__subtf3+0x570>

   20fb4:	fff7c793          	not	a5,a5

   20fb8:	0007879b          	sext.w	a5,a5

   20fbc:	07400713          	li	a4,116

   20fc0:	08f74863          	blt	a4,a5,21050 <__subtf3+0x650>

   20fc4:	03f00713          	li	a4,63

   20fc8:	04f74a63          	blt	a4,a5,2101c <__subtf3+0x61c>

   20fcc:	04000513          	li	a0,64

   20fd0:	40f5053b          	subw	a0,a0,a5

   20fd4:	00fed633          	srl	a2,t4,a5

   20fd8:	00a59733          	sll	a4,a1,a0

   20fdc:	00ae9eb3          	sll	t4,t4,a0

   20fe0:	00c76733          	or	a4,a4,a2

   20fe4:	01d03eb3          	snez	t4,t4

   20fe8:	01d76eb3          	or	t4,a4,t4

   20fec:	00f5d7b3          	srl	a5,a1,a5

   20ff0:	41de0eb3          	sub	t4,t3,t4

   20ff4:	40f687b3          	sub	a5,a3,a5

   20ff8:	01de36b3          	sltu	a3,t3,t4

   20ffc:	40d786b3          	sub	a3,a5,a3

   21000:	fa1ff06f          	j	20fa0 <__subtf3+0x5a0>

   21004:	f6c806e3          	beq	a6,a2,20f70 <__subtf3+0x570>

   21008:	00100713          	li	a4,1

   2100c:	03371713          	slli	a4,a4,0x33

   21010:	40f007bb          	negw	a5,a5

   21014:	00e5e5b3          	or	a1,a1,a4

   21018:	fa5ff06f          	j	20fbc <__subtf3+0x5bc>

   2101c:	fc07871b          	addiw	a4,a5,-64

   21020:	04000613          	li	a2,64

   21024:	00e5d733          	srl	a4,a1,a4

   21028:	00000513          	li	a0,0

   2102c:	00c78863          	beq	a5,a2,2103c <__subtf3+0x63c>

   21030:	08000513          	li	a0,128

   21034:	40f507bb          	subw	a5,a0,a5

   21038:	00f59533          	sll	a0,a1,a5

   2103c:	01d56eb3          	or	t4,a0,t4

   21040:	01d03eb3          	snez	t4,t4

   21044:	01d76eb3          	or	t4,a4,t4

   21048:	00000793          	li	a5,0

   2104c:	fa5ff06f          	j	20ff0 <__subtf3+0x5f0>

   21050:	01d5e7b3          	or	a5,a1,t4

   21054:	00f03eb3          	snez	t4,a5

   21058:	ff1ff06f          	j	21048 <__subtf3+0x648>

   2105c:	00188f13          	addi	t5,a7,1

   21060:	ffe50793          	addi	a5,a0,-2

   21064:	00ff77b3          	and	a5,t5,a5

   21068:	20079263          	bnez	a5,2126c <__subtf3+0x86c>

   2106c:	01d5ef33          	or	t5,a1,t4

   21070:	01c6e533          	or	a0,a3,t3

   21074:	0c089863          	bnez	a7,21144 <__subtf3+0x744>

   21078:	080f1063          	bnez	t5,210f8 <__subtf3+0x6f8>

   2107c:	32051463          	bnez	a0,213a4 <__subtf3+0x9a4>

   21080:	ffe48413          	addi	s0,s1,-2

   21084:	00143413          	seqz	s0,s0

   21088:	00000593          	li	a1,0

   2108c:	00000e93          	li	t4,0

   21090:	00beee33          	or	t3,t4,a1

   21094:	380e0463          	beqz	t3,2141c <__subtf3+0xa1c>

   21098:	001e9613          	slli	a2,t4,0x1

   2109c:	03fed793          	srli	a5,t4,0x3f

   210a0:	00159713          	slli	a4,a1,0x1

   210a4:	00767693          	andi	a3,a2,7

   210a8:	00f70733          	add	a4,a4,a5

   210ac:	00000793          	li	a5,0

   210b0:	02068663          	beqz	a3,210dc <__subtf3+0x6dc>

   210b4:	00200793          	li	a5,2

   210b8:	30f48e63          	beq	s1,a5,213d4 <__subtf3+0x9d4>

   210bc:	00300793          	li	a5,3

   210c0:	2ef48e63          	beq	s1,a5,213bc <__subtf3+0x9bc>

   210c4:	00100793          	li	a5,1

   210c8:	00049a63          	bnez	s1,210dc <__subtf3+0x6dc>

   210cc:	00f67693          	andi	a3,a2,15

   210d0:	00400513          	li	a0,4

   210d4:	ffc63613          	sltiu	a2,a2,-4

   210d8:	2ea69863          	bne	a3,a0,213c8 <__subtf3+0x9c8>

   210dc:	03475713          	srli	a4,a4,0x34

   210e0:	00174713          	xori	a4,a4,1

   210e4:	00177713          	andi	a4,a4,1

   210e8:	00058693          	mv	a3,a1

   210ec:	000e8e13          	mv	t3,t4

   210f0:	00000993          	li	s3,0

   210f4:	c49ff06f          	j	20d3c <__subtf3+0x33c>

   210f8:	f8050ce3          	beqz	a0,21090 <__subtf3+0x690>

   210fc:	41ce8733          	sub	a4,t4,t3

   21100:	00eeb633          	sltu	a2,t4,a4

   21104:	40d587b3          	sub	a5,a1,a3

   21108:	40c787b3          	sub	a5,a5,a2

   2110c:	00c79613          	slli	a2,a5,0xc

   21110:	00065e63          	bgez	a2,2112c <__subtf3+0x72c>

   21114:	41de0eb3          	sub	t4,t3,t4

   21118:	40b687b3          	sub	a5,a3,a1

   2111c:	01de36b3          	sltu	a3,t3,t4

   21120:	40d785b3          	sub	a1,a5,a3

   21124:	00030413          	mv	s0,t1

   21128:	f69ff06f          	j	21090 <__subtf3+0x690>

   2112c:	00f76eb3          	or	t4,a4,a5

   21130:	280e9063          	bnez	t4,213b0 <__subtf3+0x9b0>

   21134:	ffe48413          	addi	s0,s1,-2

   21138:	00143413          	seqz	s0,s0

   2113c:	00000593          	li	a1,0

   21140:	f51ff06f          	j	21090 <__subtf3+0x690>

   21144:	04c89c63          	bne	a7,a2,2119c <__subtf3+0x79c>

   21148:	320f0a63          	beqz	t5,2147c <__subtf3+0xa7c>

   2114c:	0325d793          	srli	a5,a1,0x32

   21150:	0017f793          	andi	a5,a5,1

   21154:	0017b793          	seqz	a5,a5

   21158:	00479793          	slli	a5,a5,0x4

   2115c:	05181863          	bne	a6,a7,211ac <__subtf3+0x7ac>

   21160:	00050863          	beqz	a0,21170 <__subtf3+0x770>

   21164:	00d69613          	slli	a2,a3,0xd

   21168:	00064463          	bltz	a2,21170 <__subtf3+0x770>

   2116c:	01000793          	li	a5,16

   21170:	020f1e63          	bnez	t5,211ac <__subtf3+0x7ac>

   21174:	00030413          	mv	s0,t1

   21178:	c0051ee3          	bnez	a0,20d94 <__subtf3+0x394>

   2117c:	00100693          	li	a3,1

   21180:	000089b7          	lui	s3,0x8

   21184:	00000e13          	li	t3,0

   21188:	00000413          	li	s0,0

   2118c:	03269693          	slli	a3,a3,0x32

   21190:	fff98993          	addi	s3,s3,-1 # 7fff <register_fini-0x80b1>

   21194:	01000793          	li	a5,16

   21198:	0300006f          	j	211c8 <__subtf3+0x7c8>

   2119c:	00000793          	li	a5,0

   211a0:	fcc818e3          	bne	a6,a2,21170 <__subtf3+0x770>

   211a4:	00000793          	li	a5,0

   211a8:	fb9ff06f          	j	21160 <__subtf3+0x760>

   211ac:	be0500e3          	beqz	a0,20d8c <__subtf3+0x38c>

   211b0:	00100693          	li	a3,1

   211b4:	000089b7          	lui	s3,0x8

   211b8:	00000413          	li	s0,0

   211bc:	03269693          	slli	a3,a3,0x32

   211c0:	00000e13          	li	t3,0

   211c4:	fff98993          	addi	s3,s3,-1 # 7fff <register_fini-0x80b1>

   211c8:	00c69713          	slli	a4,a3,0xc

   211cc:	02075263          	bgez	a4,211f0 <__subtf3+0x7f0>

   211d0:	00008737          	lui	a4,0x8

   211d4:	00198993          	addi	s3,s3,1

   211d8:	fff70613          	addi	a2,a4,-1 # 7fff <register_fini-0x80b1>

   211dc:	26c98463          	beq	s3,a2,21444 <__subtf3+0xa44>

   211e0:	fff00713          	li	a4,-1

   211e4:	03371713          	slli	a4,a4,0x33

   211e8:	fff70713          	addi	a4,a4,-1

   211ec:	00e6f6b3          	and	a3,a3,a4

   211f0:	00008737          	lui	a4,0x8

   211f4:	03d69513          	slli	a0,a3,0x3d

   211f8:	003e5e13          	srli	t3,t3,0x3

   211fc:	fff70713          	addi	a4,a4,-1 # 7fff <register_fini-0x80b1>

   21200:	01c56533          	or	a0,a0,t3

   21204:	0036d693          	srli	a3,a3,0x3

   21208:	02e99063          	bne	s3,a4,21228 <__subtf3+0x828>

   2120c:	00d56533          	or	a0,a0,a3

   21210:	00000693          	li	a3,0

   21214:	00050a63          	beqz	a0,21228 <__subtf3+0x828>

   21218:	00100693          	li	a3,1

   2121c:	02f69693          	slli	a3,a3,0x2f

   21220:	00000513          	li	a0,0

   21224:	00000413          	li	s0,0

   21228:	01069693          	slli	a3,a3,0x10

   2122c:	03199993          	slli	s3,s3,0x31

   21230:	0019d993          	srli	s3,s3,0x1

   21234:	0106d693          	srli	a3,a3,0x10

   21238:	03f41593          	slli	a1,s0,0x3f

   2123c:	0136e6b3          	or	a3,a3,s3

   21240:	00b6e5b3          	or	a1,a3,a1

   21244:	00078463          	beqz	a5,2124c <__subtf3+0x84c>

   21248:	0017a073          	csrs	fflags,a5

   2124c:	02813083          	ld	ra,40(sp)

   21250:	02013403          	ld	s0,32(sp)

   21254:	01813483          	ld	s1,24(sp)

   21258:	01013903          	ld	s2,16(sp)

   2125c:	00813983          	ld	s3,8(sp)

   21260:	00013a03          	ld	s4,0(sp)

   21264:	03010113          	addi	sp,sp,48

   21268:	00008067          	ret

   2126c:	41ce8a33          	sub	s4,t4,t3

   21270:	40d58933          	sub	s2,a1,a3

   21274:	014eb733          	sltu	a4,t4,s4

   21278:	40e90933          	sub	s2,s2,a4

   2127c:	00c91793          	slli	a5,s2,0xc

   21280:	0807d663          	bgez	a5,2130c <__subtf3+0x90c>

   21284:	41de0a33          	sub	s4,t3,t4

   21288:	40b687b3          	sub	a5,a3,a1

   2128c:	014e36b3          	sltu	a3,t3,s4

   21290:	40d78933          	sub	s2,a5,a3

   21294:	00030413          	mv	s0,t1

   21298:	08090063          	beqz	s2,21318 <__subtf3+0x918>

   2129c:	00090513          	mv	a0,s2

   212a0:	838ef0ef          	jal	ra,102d8 <__clzdi2>

   212a4:	0005051b          	sext.w	a0,a0

   212a8:	ff45061b          	addiw	a2,a0,-12

   212ac:	03f00793          	li	a5,63

   212b0:	00060e93          	mv	t4,a2

   212b4:	06c7ca63          	blt	a5,a2,21328 <__subtf3+0x928>

   212b8:	04000693          	li	a3,64

   212bc:	40c686bb          	subw	a3,a3,a2

   212c0:	00c91933          	sll	s2,s2,a2

   212c4:	00da56b3          	srl	a3,s4,a3

   212c8:	0126e733          	or	a4,a3,s2

   212cc:	00ca1e33          	sll	t3,s4,a2

   212d0:	09364c63          	blt	a2,s3,21368 <__subtf3+0x968>

   212d4:	413e89bb          	subw	s3,t4,s3

   212d8:	0019879b          	addiw	a5,s3,1

   212dc:	03f00613          	li	a2,63

   212e0:	04f64c63          	blt	a2,a5,21338 <__subtf3+0x938>

   212e4:	04000613          	li	a2,64

   212e8:	40f6063b          	subw	a2,a2,a5

   212ec:	00c71eb3          	sll	t4,a4,a2

   212f0:	00fe56b3          	srl	a3,t3,a5

   212f4:	00ce1633          	sll	a2,t3,a2

   212f8:	00dee6b3          	or	a3,t4,a3

   212fc:	00c03633          	snez	a2,a2

   21300:	00c6eeb3          	or	t4,a3,a2

   21304:	00f755b3          	srl	a1,a4,a5

   21308:	d89ff06f          	j	21090 <__subtf3+0x690>

   2130c:	012a6eb3          	or	t4,s4,s2

   21310:	f80e94e3          	bnez	t4,21298 <__subtf3+0x898>

   21314:	e21ff06f          	j	21134 <__subtf3+0x734>

   21318:	000a0513          	mv	a0,s4

   2131c:	fbdee0ef          	jal	ra,102d8 <__clzdi2>

   21320:	0405051b          	addiw	a0,a0,64

   21324:	f85ff06f          	j	212a8 <__subtf3+0x8a8>

   21328:	fb45069b          	addiw	a3,a0,-76

   2132c:	00da1733          	sll	a4,s4,a3

   21330:	00000e13          	li	t3,0

   21334:	f9dff06f          	j	212d0 <__subtf3+0x8d0>

   21338:	fc198e9b          	addiw	t4,s3,-63

   2133c:	04000593          	li	a1,64

   21340:	01d75eb3          	srl	t4,a4,t4

   21344:	00000613          	li	a2,0

   21348:	00b78863          	beq	a5,a1,21358 <__subtf3+0x958>

   2134c:	08000613          	li	a2,128

   21350:	40f6063b          	subw	a2,a2,a5

   21354:	00c71633          	sll	a2,a4,a2

   21358:	00ce6633          	or	a2,t3,a2

   2135c:	00c03633          	snez	a2,a2

   21360:	00ceeeb3          	or	t4,t4,a2

   21364:	dd9ff06f          	j	2113c <__subtf3+0x73c>

   21368:	fff00693          	li	a3,-1

   2136c:	03369693          	slli	a3,a3,0x33

   21370:	fff68693          	addi	a3,a3,-1

   21374:	40c989b3          	sub	s3,s3,a2

   21378:	00d776b3          	and	a3,a4,a3

   2137c:	fa099663          	bnez	s3,20b28 <__subtf3+0x128>

   21380:	00068593          	mv	a1,a3

   21384:	000e0e93          	mv	t4,t3

   21388:	d09ff06f          	j	21090 <__subtf3+0x690>

   2138c:	00058693          	mv	a3,a1

   21390:	000e8e13          	mv	t3,t4

   21394:	fe9ff06f          	j	2137c <__subtf3+0x97c>

   21398:	00080993          	mv	s3,a6

   2139c:	00030413          	mv	s0,t1

   213a0:	fddff06f          	j	2137c <__subtf3+0x97c>

   213a4:	00068593          	mv	a1,a3

   213a8:	000e0e93          	mv	t4,t3

   213ac:	d79ff06f          	j	21124 <__subtf3+0x724>

   213b0:	00078593          	mv	a1,a5

   213b4:	00070e93          	mv	t4,a4

   213b8:	cd9ff06f          	j	21090 <__subtf3+0x690>

   213bc:	00100793          	li	a5,1

   213c0:	d0041ee3          	bnez	s0,210dc <__subtf3+0x6dc>

   213c4:	ff863613          	sltiu	a2,a2,-8

   213c8:	00164613          	xori	a2,a2,1

   213cc:	00c70733          	add	a4,a4,a2

   213d0:	d0dff06f          	j	210dc <__subtf3+0x6dc>

   213d4:	00100793          	li	a5,1

   213d8:	d00402e3          	beqz	s0,210dc <__subtf3+0x6dc>

   213dc:	fe9ff06f          	j	213c4 <__subtf3+0x9c4>

   213e0:	00000693          	li	a3,0

   213e4:	00000e13          	li	t3,0

   213e8:	00000793          	li	a5,0

   213ec:	dddff06f          	j	211c8 <__subtf3+0x7c8>

   213f0:	00000693          	li	a3,0

   213f4:	00000e13          	li	t3,0

   213f8:	00080993          	mv	s3,a6

   213fc:	fedff06f          	j	213e8 <__subtf3+0x9e8>

   21400:	00000693          	li	a3,0

   21404:	fe5ff06f          	j	213e8 <__subtf3+0x9e8>

   21408:	00000693          	li	a3,0

   2140c:	00000e13          	li	t3,0

   21410:	00080993          	mv	s3,a6

   21414:	00030413          	mv	s0,t1

   21418:	fd1ff06f          	j	213e8 <__subtf3+0x9e8>

   2141c:	00000693          	li	a3,0

   21420:	00000993          	li	s3,0

   21424:	fc5ff06f          	j	213e8 <__subtf3+0x9e8>

   21428:	00041863          	bnez	s0,21438 <__subtf3+0xa38>

   2142c:	008e0593          	addi	a1,t3,8

   21430:	a0dff06f          	j	20e3c <__subtf3+0x43c>

   21434:	fe041ce3          	bnez	s0,2142c <__subtf3+0xa2c>

   21438:	d80708e3          	beqz	a4,211c8 <__subtf3+0x7c8>

   2143c:	0027e793          	ori	a5,a5,2

   21440:	d89ff06f          	j	211c8 <__subtf3+0x7c8>

   21444:	00000e13          	li	t3,0

   21448:	02048463          	beqz	s1,21470 <__subtf3+0xa70>

   2144c:	00300693          	li	a3,3

   21450:	00d49a63          	bne	s1,a3,21464 <__subtf3+0xa64>

   21454:	00040e63          	beqz	s0,21470 <__subtf3+0xa70>

   21458:	fff00e13          	li	t3,-1

   2145c:	ffe70993          	addi	s3,a4,-2

   21460:	0100006f          	j	21470 <__subtf3+0xa70>

   21464:	00200693          	li	a3,2

   21468:	fed498e3          	bne	s1,a3,21458 <__subtf3+0xa58>

   2146c:	fe0406e3          	beqz	s0,21458 <__subtf3+0xa58>

   21470:	0057e793          	ori	a5,a5,5

   21474:	000e0693          	mv	a3,t3

   21478:	d79ff06f          	j	211f0 <__subtf3+0x7f0>

   2147c:	00000793          	li	a5,0

   21480:	cf181ae3          	bne	a6,a7,21174 <__subtf3+0x774>

   21484:	d21ff06f          	j	211a4 <__subtf3+0x7a4>

   21488:	900506e3          	beqz	a0,20d94 <__subtf3+0x394>

   2148c:	901ff06f          	j	20d8c <__subtf3+0x38c>

   21490:	951814e3          	bne	a6,a7,20dd8 <__subtf3+0x3d8>

   21494:	915ff06f          	j	20da8 <__subtf3+0x3a8>



0000000000021498 <__fixtfsi>:

   21498:	002027f3          	frrm	a5

   2149c:	00004637          	lui	a2,0x4

   214a0:	00159693          	slli	a3,a1,0x1

   214a4:	01059793          	slli	a5,a1,0x10

   214a8:	0316d693          	srli	a3,a3,0x31

   214ac:	ffe60713          	addi	a4,a2,-2 # 3ffe <register_fini-0xc0b2>

   214b0:	0107d793          	srli	a5,a5,0x10

   214b4:	03f5d593          	srli	a1,a1,0x3f

   214b8:	00d74e63          	blt	a4,a3,214d4 <__fixtfsi+0x3c>

   214bc:	08069e63          	bnez	a3,21558 <__fixtfsi+0xc0>

   214c0:	00a7e7b3          	or	a5,a5,a0

   214c4:	00000713          	li	a4,0

   214c8:	08079463          	bnez	a5,21550 <__fixtfsi+0xb8>

   214cc:	00070513          	mv	a0,a4

   214d0:	00008067          	ret

   214d4:	01d60713          	addi	a4,a2,29

   214d8:	02d75a63          	bge	a4,a3,2150c <__fixtfsi+0x74>

   214dc:	80000737          	lui	a4,0x80000

   214e0:	fff74713          	not	a4,a4

   214e4:	00b7073b          	addw	a4,a4,a1

   214e8:	06058c63          	beqz	a1,21560 <__fixtfsi+0xc8>

   214ec:	01e60593          	addi	a1,a2,30

   214f0:	01000613          	li	a2,16

   214f4:	06b69863          	bne	a3,a1,21564 <__fixtfsi+0xcc>

   214f8:	0117d693          	srli	a3,a5,0x11

   214fc:	06069463          	bnez	a3,21564 <__fixtfsi+0xcc>

   21500:	02f79793          	slli	a5,a5,0x2f

   21504:	00a7e7b3          	or	a5,a5,a0

   21508:	fc1ff06f          	j	214c8 <__fixtfsi+0x30>

   2150c:	00100713          	li	a4,1

   21510:	03071713          	slli	a4,a4,0x30

   21514:	00e7e7b3          	or	a5,a5,a4

   21518:	ffffc737          	lui	a4,0xffffc

   2151c:	0006869b          	sext.w	a3,a3

   21520:	0117071b          	addiw	a4,a4,17

   21524:	00e6873b          	addw	a4,a3,a4

   21528:	00e79733          	sll	a4,a5,a4

   2152c:	00a76533          	or	a0,a4,a0

   21530:	00004737          	lui	a4,0x4

   21534:	02f7071b          	addiw	a4,a4,47

   21538:	40d706bb          	subw	a3,a4,a3

   2153c:	00d7d7b3          	srl	a5,a5,a3

   21540:	0007871b          	sext.w	a4,a5

   21544:	00058463          	beqz	a1,2154c <__fixtfsi+0xb4>

   21548:	40e0073b          	negw	a4,a4

   2154c:	f80500e3          	beqz	a0,214cc <__fixtfsi+0x34>

   21550:	00100613          	li	a2,1

   21554:	0100006f          	j	21564 <__fixtfsi+0xcc>

   21558:	00000713          	li	a4,0

   2155c:	ff5ff06f          	j	21550 <__fixtfsi+0xb8>

   21560:	01000613          	li	a2,16

   21564:	00162073          	csrs	fflags,a2

   21568:	f65ff06f          	j	214cc <__fixtfsi+0x34>



000000000002156c <__floatsitf>:

   2156c:	fe010113          	addi	sp,sp,-32

   21570:	00113c23          	sd	ra,24(sp)

   21574:	00813823          	sd	s0,16(sp)

   21578:	00913423          	sd	s1,8(sp)

   2157c:	06050863          	beqz	a0,215ec <__floatsitf+0x80>

   21580:	0005079b          	sext.w	a5,a0

   21584:	03f55493          	srli	s1,a0,0x3f

   21588:	00055463          	bgez	a0,21590 <__floatsitf+0x24>

   2158c:	40f007bb          	negw	a5,a5

   21590:	02079413          	slli	s0,a5,0x20

   21594:	02045413          	srli	s0,s0,0x20

   21598:	00040513          	mv	a0,s0

   2159c:	d3dee0ef          	jal	ra,102d8 <__clzdi2>

   215a0:	00004737          	lui	a4,0x4

   215a4:	03e7079b          	addiw	a5,a4,62

   215a8:	40a785bb          	subw	a1,a5,a0

   215ac:	02f7071b          	addiw	a4,a4,47

   215b0:	40b7053b          	subw	a0,a4,a1

   215b4:	00a41533          	sll	a0,s0,a0

   215b8:	01813083          	ld	ra,24(sp)

   215bc:	01013403          	ld	s0,16(sp)

   215c0:	01051513          	slli	a0,a0,0x10

   215c4:	03159593          	slli	a1,a1,0x31

   215c8:	01055513          	srli	a0,a0,0x10

   215cc:	0015d593          	srli	a1,a1,0x1

   215d0:	03f49493          	slli	s1,s1,0x3f

   215d4:	00b565b3          	or	a1,a0,a1

   215d8:	0095e5b3          	or	a1,a1,s1

   215dc:	00000513          	li	a0,0

   215e0:	00813483          	ld	s1,8(sp)

   215e4:	02010113          	addi	sp,sp,32

   215e8:	00008067          	ret

   215ec:	00000513          	li	a0,0

   215f0:	00000593          	li	a1,0

   215f4:	00000493          	li	s1,0

   215f8:	fc1ff06f          	j	215b8 <__floatsitf+0x4c>



00000000000215fc <__extenddftf2>:

   215fc:	fe010113          	addi	sp,sp,-32

   21600:	00113c23          	sd	ra,24(sp)

   21604:	00813823          	sd	s0,16(sp)

   21608:	00913423          	sd	s1,8(sp)

   2160c:	002027f3          	frrm	a5

   21610:	03455713          	srli	a4,a0,0x34

   21614:	7ff77713          	andi	a4,a4,2047

   21618:	00170693          	addi	a3,a4,1 # 4001 <register_fini-0xc0af>

   2161c:	00c51413          	slli	s0,a0,0xc

   21620:	7fe6f693          	andi	a3,a3,2046

   21624:	00c45413          	srli	s0,s0,0xc

   21628:	03f55493          	srli	s1,a0,0x3f

   2162c:	02068063          	beqz	a3,2164c <__extenddftf2+0x50>

   21630:	000046b7          	lui	a3,0x4

   21634:	c0068693          	addi	a3,a3,-1024 # 3c00 <register_fini-0xc4b0>

   21638:	00445793          	srli	a5,s0,0x4

   2163c:	00d70733          	add	a4,a4,a3

   21640:	03c41413          	slli	s0,s0,0x3c

   21644:	00000693          	li	a3,0

   21648:	0880006f          	j	216d0 <__extenddftf2+0xd4>

   2164c:	04071a63          	bnez	a4,216a0 <__extenddftf2+0xa4>

   21650:	00000793          	li	a5,0

   21654:	fe0408e3          	beqz	s0,21644 <__extenddftf2+0x48>

   21658:	00040513          	mv	a0,s0

   2165c:	c7dee0ef          	jal	ra,102d8 <__clzdi2>

   21660:	0005071b          	sext.w	a4,a0

   21664:	00e00793          	li	a5,14

   21668:	02e7c463          	blt	a5,a4,21690 <__extenddftf2+0x94>

   2166c:	00f00793          	li	a5,15

   21670:	40a787bb          	subw	a5,a5,a0

   21674:	0315071b          	addiw	a4,a0,49

   21678:	00f457b3          	srl	a5,s0,a5

   2167c:	00e41433          	sll	s0,s0,a4

   21680:	00004737          	lui	a4,0x4

   21684:	c0c7071b          	addiw	a4,a4,-1012

   21688:	40a7073b          	subw	a4,a4,a0

   2168c:	fb9ff06f          	j	21644 <__extenddftf2+0x48>

   21690:	ff15079b          	addiw	a5,a0,-15

   21694:	00f417b3          	sll	a5,s0,a5

   21698:	00000413          	li	s0,0

   2169c:	fe5ff06f          	j	21680 <__extenddftf2+0x84>

   216a0:	06040663          	beqz	s0,2170c <__extenddftf2+0x110>

   216a4:	00100713          	li	a4,1

   216a8:	03371693          	slli	a3,a4,0x33

   216ac:	00d476b3          	and	a3,s0,a3

   216b0:	00445793          	srli	a5,s0,0x4

   216b4:	02f71713          	slli	a4,a4,0x2f

   216b8:	0016b693          	seqz	a3,a3

   216bc:	00e7e7b3          	or	a5,a5,a4

   216c0:	00008737          	lui	a4,0x8

   216c4:	00469693          	slli	a3,a3,0x4

   216c8:	03c41413          	slli	s0,s0,0x3c

   216cc:	fff70713          	addi	a4,a4,-1 # 7fff <register_fini-0x80b1>

   216d0:	01079793          	slli	a5,a5,0x10

   216d4:	03171713          	slli	a4,a4,0x31

   216d8:	00175713          	srli	a4,a4,0x1

   216dc:	0107d793          	srli	a5,a5,0x10

   216e0:	03f49593          	slli	a1,s1,0x3f

   216e4:	00e7e7b3          	or	a5,a5,a4

   216e8:	00b7e5b3          	or	a1,a5,a1

   216ec:	00068463          	beqz	a3,216f4 <__extenddftf2+0xf8>

   216f0:	0016a073          	csrs	fflags,a3

   216f4:	00040513          	mv	a0,s0

   216f8:	01813083          	ld	ra,24(sp)

   216fc:	01013403          	ld	s0,16(sp)

   21700:	00813483          	ld	s1,8(sp)

   21704:	02010113          	addi	sp,sp,32

   21708:	00008067          	ret

   2170c:	00008737          	lui	a4,0x8

   21710:	00000793          	li	a5,0

   21714:	fff70713          	addi	a4,a4,-1 # 7fff <register_fini-0x80b1>

   21718:	f2dff06f          	j	21644 <__extenddftf2+0x48>



000000000002171c <__trunctfdf2>:

   2171c:	00202673          	frrm	a2

   21720:	000088b7          	lui	a7,0x8

   21724:	0305d713          	srli	a4,a1,0x30

   21728:	fff88813          	addi	a6,a7,-1 # 7fff <register_fini-0x80b1>

   2172c:	03f5d693          	srli	a3,a1,0x3f

   21730:	01059593          	slli	a1,a1,0x10

   21734:	00d5d793          	srli	a5,a1,0xd

   21738:	01077733          	and	a4,a4,a6

   2173c:	03d55593          	srli	a1,a0,0x3d

   21740:	00f5e5b3          	or	a1,a1,a5

   21744:	ffe88893          	addi	a7,a7,-2

   21748:	00170793          	addi	a5,a4,1

   2174c:	0117f8b3          	and	a7,a5,a7

   21750:	0006061b          	sext.w	a2,a2

   21754:	00351e93          	slli	t4,a0,0x3

   21758:	1e088a63          	beqz	a7,2194c <__trunctfdf2+0x230>

   2175c:	ffffce37          	lui	t3,0xffffc

   21760:	400e0e13          	addi	t3,t3,1024 # ffffffffffffc400 <__BSS_END__+0xfffffffffffd7940>

   21764:	01c70e33          	add	t3,a4,t3

   21768:	7fe00793          	li	a5,2046

   2176c:	0dc7dc63          	bge	a5,t3,21844 <__trunctfdf2+0x128>

   21770:	06060063          	beqz	a2,217d0 <__trunctfdf2+0xb4>

   21774:	00300793          	li	a5,3

   21778:	04f61663          	bne	a2,a5,217c4 <__trunctfdf2+0xa8>

   2177c:	04068a63          	beqz	a3,217d0 <__trunctfdf2+0xb4>

   21780:	fff00793          	li	a5,-1

   21784:	7fe00e13          	li	t3,2046

   21788:	00000713          	li	a4,0

   2178c:	00500893          	li	a7,5

   21790:	00200593          	li	a1,2

   21794:	0018e893          	ori	a7,a7,1

   21798:	22b60e63          	beq	a2,a1,219d4 <__trunctfdf2+0x2b8>

   2179c:	00300593          	li	a1,3

   217a0:	22b60463          	beq	a2,a1,219c8 <__trunctfdf2+0x2ac>

   217a4:	00061a63          	bnez	a2,217b8 <__trunctfdf2+0x9c>

   217a8:	00f7f593          	andi	a1,a5,15

   217ac:	00400513          	li	a0,4

   217b0:	00a58463          	beq	a1,a0,217b8 <__trunctfdf2+0x9c>

   217b4:	00478793          	addi	a5,a5,4

   217b8:	02070263          	beqz	a4,217dc <__trunctfdf2+0xc0>

   217bc:	0028e893          	ori	a7,a7,2

   217c0:	01c0006f          	j	217dc <__trunctfdf2+0xc0>

   217c4:	00200793          	li	a5,2

   217c8:	faf61ce3          	bne	a2,a5,21780 <__trunctfdf2+0x64>

   217cc:	fa068ae3          	beqz	a3,21780 <__trunctfdf2+0x64>

   217d0:	00000793          	li	a5,0

   217d4:	7ff00e13          	li	t3,2047

   217d8:	00500893          	li	a7,5

   217dc:	00879713          	slli	a4,a5,0x8

   217e0:	02075063          	bgez	a4,21800 <__trunctfdf2+0xe4>

   217e4:	001e0e13          	addi	t3,t3,1

   217e8:	7ff00713          	li	a4,2047

   217ec:	1eee0863          	beq	t3,a4,219dc <__trunctfdf2+0x2c0>

   217f0:	fff00613          	li	a2,-1

   217f4:	03761613          	slli	a2,a2,0x37

   217f8:	fff60613          	addi	a2,a2,-1

   217fc:	00c7f7b3          	and	a5,a5,a2

   21800:	7ff00713          	li	a4,2047

   21804:	0037d793          	srli	a5,a5,0x3

   21808:	00ee1a63          	bne	t3,a4,2181c <__trunctfdf2+0x100>

   2180c:	00078863          	beqz	a5,2181c <__trunctfdf2+0x100>

   21810:	00100793          	li	a5,1

   21814:	03379793          	slli	a5,a5,0x33

   21818:	00000693          	li	a3,0

   2181c:	00c79793          	slli	a5,a5,0xc

   21820:	7ffe7513          	andi	a0,t3,2047

   21824:	03451513          	slli	a0,a0,0x34

   21828:	00c7d793          	srli	a5,a5,0xc

   2182c:	03f69693          	slli	a3,a3,0x3f

   21830:	00a7e7b3          	or	a5,a5,a0

   21834:	00d7e533          	or	a0,a5,a3

   21838:	1c088c63          	beqz	a7,21a10 <__trunctfdf2+0x2f4>

   2183c:	0018a073          	csrs	fflags,a7

   21840:	00008067          	ret

   21844:	0dc04a63          	bgtz	t3,21918 <__trunctfdf2+0x1fc>

   21848:	fcc00793          	li	a5,-52

   2184c:	14fe4863          	blt	t3,a5,2199c <__trunctfdf2+0x280>

   21850:	00100793          	li	a5,1

   21854:	03379793          	slli	a5,a5,0x33

   21858:	03d00313          	li	t1,61

   2185c:	00f5e5b3          	or	a1,a1,a5

   21860:	41c30333          	sub	t1,t1,t3

   21864:	03f00793          	li	a5,63

   21868:	000e051b          	sext.w	a0,t3

   2186c:	0667ce63          	blt	a5,t1,218e8 <__trunctfdf2+0x1cc>

   21870:	0035081b          	addiw	a6,a0,3

   21874:	03d00713          	li	a4,61

   21878:	40a7073b          	subw	a4,a4,a0

   2187c:	010e97b3          	sll	a5,t4,a6

   21880:	00eed733          	srl	a4,t4,a4

   21884:	00f037b3          	snez	a5,a5

   21888:	00f767b3          	or	a5,a4,a5

   2188c:	010595b3          	sll	a1,a1,a6

   21890:	00f5e7b3          	or	a5,a1,a5

   21894:	00000e13          	li	t3,0

   21898:	12078463          	beqz	a5,219c0 <__trunctfdf2+0x2a4>

   2189c:	00179713          	slli	a4,a5,0x1

   218a0:	00777593          	andi	a1,a4,7

   218a4:	00000893          	li	a7,0

   218a8:	02058663          	beqz	a1,218d4 <__trunctfdf2+0x1b8>

   218ac:	00200593          	li	a1,2

   218b0:	10b60063          	beq	a2,a1,219b0 <__trunctfdf2+0x294>

   218b4:	00300593          	li	a1,3

   218b8:	00100893          	li	a7,1

   218bc:	0eb60463          	beq	a2,a1,219a4 <__trunctfdf2+0x288>

   218c0:	00061a63          	bnez	a2,218d4 <__trunctfdf2+0x1b8>

   218c4:	00f77593          	andi	a1,a4,15

   218c8:	00400513          	li	a0,4

   218cc:	00a58463          	beq	a1,a0,218d4 <__trunctfdf2+0x1b8>

   218d0:	00470713          	addi	a4,a4,4

   218d4:	03875713          	srli	a4,a4,0x38

   218d8:	00174713          	xori	a4,a4,1

   218dc:	00177713          	andi	a4,a4,1

   218e0:	00000e13          	li	t3,0

   218e4:	0540006f          	j	21938 <__trunctfdf2+0x21c>

   218e8:	ffd00893          	li	a7,-3

   218ec:	40a888bb          	subw	a7,a7,a0

   218f0:	04000793          	li	a5,64

   218f4:	0115d8b3          	srl	a7,a1,a7

   218f8:	00000813          	li	a6,0

   218fc:	00f30663          	beq	t1,a5,21908 <__trunctfdf2+0x1ec>

   21900:	0435071b          	addiw	a4,a0,67

   21904:	00e59833          	sll	a6,a1,a4

   21908:	01d86833          	or	a6,a6,t4

   2190c:	01003833          	snez	a6,a6

   21910:	0108e7b3          	or	a5,a7,a6

   21914:	f81ff06f          	j	21894 <__trunctfdf2+0x178>

   21918:	00751793          	slli	a5,a0,0x7

   2191c:	00f037b3          	snez	a5,a5

   21920:	03ced813          	srli	a6,t4,0x3c

   21924:	0107e7b3          	or	a5,a5,a6

   21928:	00459593          	slli	a1,a1,0x4

   2192c:	00f5e7b3          	or	a5,a1,a5

   21930:	00000713          	li	a4,0

   21934:	00000893          	li	a7,0

   21938:	0077f593          	andi	a1,a5,7

   2193c:	e4059ae3          	bnez	a1,21790 <__trunctfdf2+0x74>

   21940:	e8070ee3          	beqz	a4,217dc <__trunctfdf2+0xc0>

   21944:	0018f713          	andi	a4,a7,1

   21948:	e71ff06f          	j	217b8 <__trunctfdf2+0x9c>

   2194c:	01d5e7b3          	or	a5,a1,t4

   21950:	00071663          	bnez	a4,2195c <__trunctfdf2+0x240>

   21954:	00f037b3          	snez	a5,a5

   21958:	f3dff06f          	j	21894 <__trunctfdf2+0x178>

   2195c:	06078063          	beqz	a5,219bc <__trunctfdf2+0x2a0>

   21960:	00000893          	li	a7,0

   21964:	01071863          	bne	a4,a6,21974 <__trunctfdf2+0x258>

   21968:	0325d893          	srli	a7,a1,0x32

   2196c:	0018b893          	seqz	a7,a7

   21970:	00489893          	slli	a7,a7,0x4

   21974:	03ced793          	srli	a5,t4,0x3c

   21978:	00459593          	slli	a1,a1,0x4

   2197c:	00f5e5b3          	or	a1,a1,a5

   21980:	00100793          	li	a5,1

   21984:	ff85f593          	andi	a1,a1,-8

   21988:	03679793          	slli	a5,a5,0x36

   2198c:	00f5e7b3          	or	a5,a1,a5

   21990:	7ff00e13          	li	t3,2047

   21994:	00000713          	li	a4,0

   21998:	fa1ff06f          	j	21938 <__trunctfdf2+0x21c>

   2199c:	00100793          	li	a5,1

   219a0:	efdff06f          	j	2189c <__trunctfdf2+0x180>

   219a4:	f20698e3          	bnez	a3,218d4 <__trunctfdf2+0x1b8>

   219a8:	00870713          	addi	a4,a4,8

   219ac:	f29ff06f          	j	218d4 <__trunctfdf2+0x1b8>

   219b0:	00100893          	li	a7,1

   219b4:	f20680e3          	beqz	a3,218d4 <__trunctfdf2+0x1b8>

   219b8:	ff1ff06f          	j	219a8 <__trunctfdf2+0x28c>

   219bc:	7ff00e13          	li	t3,2047

   219c0:	00000893          	li	a7,0

   219c4:	e19ff06f          	j	217dc <__trunctfdf2+0xc0>

   219c8:	de0698e3          	bnez	a3,217b8 <__trunctfdf2+0x9c>

   219cc:	00878793          	addi	a5,a5,8

   219d0:	de9ff06f          	j	217b8 <__trunctfdf2+0x9c>

   219d4:	de0682e3          	beqz	a3,217b8 <__trunctfdf2+0x9c>

   219d8:	ff5ff06f          	j	219cc <__trunctfdf2+0x2b0>

   219dc:	00000793          	li	a5,0

   219e0:	02060463          	beqz	a2,21a08 <__trunctfdf2+0x2ec>

   219e4:	00300713          	li	a4,3

   219e8:	00e61a63          	bne	a2,a4,219fc <__trunctfdf2+0x2e0>

   219ec:	00068e63          	beqz	a3,21a08 <__trunctfdf2+0x2ec>

   219f0:	fff00793          	li	a5,-1

   219f4:	7fe00e13          	li	t3,2046

   219f8:	0100006f          	j	21a08 <__trunctfdf2+0x2ec>

   219fc:	00200713          	li	a4,2

   21a00:	fee618e3          	bne	a2,a4,219f0 <__trunctfdf2+0x2d4>

   21a04:	fe0686e3          	beqz	a3,219f0 <__trunctfdf2+0x2d4>

   21a08:	0058e893          	ori	a7,a7,5

   21a0c:	df5ff06f          	j	21800 <__trunctfdf2+0xe4>

   21a10:	00008067          	ret



0000000000021a14 <__muldi3>:

   21a14:	00050613          	mv	a2,a0

   21a18:	00000513          	li	a0,0

   21a1c:	0015f693          	andi	a3,a1,1

   21a20:	00068463          	beqz	a3,21a28 <__muldi3+0x14>

   21a24:	00c50533          	add	a0,a0,a2

   21a28:	0015d593          	srli	a1,a1,0x1

   21a2c:	00161613          	slli	a2,a2,0x1

   21a30:	fe0596e3          	bnez	a1,21a1c <__muldi3+0x8>

   21a34:	00008067          	ret



0000000000021a38 <__udivsi3>:

   21a38:	02051513          	slli	a0,a0,0x20

   21a3c:	02059593          	slli	a1,a1,0x20

   21a40:	00008293          	mv	t0,ra

   21a44:	03c000ef          	jal	ra,21a80 <__udivdi3>

   21a48:	0005051b          	sext.w	a0,a0

   21a4c:	00028067          	jr	t0 # 10500 <memset+0xb4>



0000000000021a50 <__umodsi3>:

   21a50:	02051513          	slli	a0,a0,0x20

   21a54:	02059593          	slli	a1,a1,0x20

   21a58:	02055513          	srli	a0,a0,0x20

   21a5c:	0205d593          	srli	a1,a1,0x20

   21a60:	00008293          	mv	t0,ra

   21a64:	01c000ef          	jal	ra,21a80 <__udivdi3>

   21a68:	0005851b          	sext.w	a0,a1

   21a6c:	00028067          	jr	t0



0000000000021a70 <__divsi3>:

   21a70:	fff00293          	li	t0,-1

   21a74:	0a558c63          	beq	a1,t0,21b2c <__moddi3+0x30>



0000000000021a78 <__divdi3>:

   21a78:	06054063          	bltz	a0,21ad8 <__umoddi3+0x10>

   21a7c:	0605c663          	bltz	a1,21ae8 <__umoddi3+0x20>



0000000000021a80 <__udivdi3>:

   21a80:	00058613          	mv	a2,a1

   21a84:	00050593          	mv	a1,a0

   21a88:	fff00513          	li	a0,-1

   21a8c:	02060c63          	beqz	a2,21ac4 <__udivdi3+0x44>

   21a90:	00100693          	li	a3,1

   21a94:	00b67a63          	bgeu	a2,a1,21aa8 <__udivdi3+0x28>

   21a98:	00c05863          	blez	a2,21aa8 <__udivdi3+0x28>

   21a9c:	00161613          	slli	a2,a2,0x1

   21aa0:	00169693          	slli	a3,a3,0x1

   21aa4:	feb66ae3          	bltu	a2,a1,21a98 <__udivdi3+0x18>

   21aa8:	00000513          	li	a0,0

   21aac:	00c5e663          	bltu	a1,a2,21ab8 <__udivdi3+0x38>

   21ab0:	40c585b3          	sub	a1,a1,a2

   21ab4:	00d56533          	or	a0,a0,a3

   21ab8:	0016d693          	srli	a3,a3,0x1

   21abc:	00165613          	srli	a2,a2,0x1

   21ac0:	fe0696e3          	bnez	a3,21aac <__udivdi3+0x2c>

   21ac4:	00008067          	ret



0000000000021ac8 <__umoddi3>:

   21ac8:	00008293          	mv	t0,ra

   21acc:	fb5ff0ef          	jal	ra,21a80 <__udivdi3>

   21ad0:	00058513          	mv	a0,a1

   21ad4:	00028067          	jr	t0

   21ad8:	40a00533          	neg	a0,a0

   21adc:	0005d863          	bgez	a1,21aec <__umoddi3+0x24>

   21ae0:	40b005b3          	neg	a1,a1

   21ae4:	f9dff06f          	j	21a80 <__udivdi3>

   21ae8:	40b005b3          	neg	a1,a1

   21aec:	00008293          	mv	t0,ra

   21af0:	f91ff0ef          	jal	ra,21a80 <__udivdi3>

   21af4:	40a00533          	neg	a0,a0

   21af8:	00028067          	jr	t0



0000000000021afc <__moddi3>:

   21afc:	00008293          	mv	t0,ra

   21b00:	0005ca63          	bltz	a1,21b14 <__moddi3+0x18>

   21b04:	00054c63          	bltz	a0,21b1c <__moddi3+0x20>

   21b08:	f79ff0ef          	jal	ra,21a80 <__udivdi3>

   21b0c:	00058513          	mv	a0,a1

   21b10:	00028067          	jr	t0

   21b14:	40b005b3          	neg	a1,a1

   21b18:	fe0558e3          	bgez	a0,21b08 <__moddi3+0xc>

   21b1c:	40a00533          	neg	a0,a0

   21b20:	f61ff0ef          	jal	ra,21a80 <__udivdi3>

   21b24:	40b00533          	neg	a0,a1

   21b28:	00028067          	jr	t0

   21b2c:	01f29293          	slli	t0,t0,0x1f

   21b30:	f45514e3          	bne	a0,t0,21a78 <__divdi3>

   21b34:	00008067          	ret